
a.out:	file format Mach-O 64-bit x86-64


Disassembly of section __TEXT,__text:

0000000100003480 _main:
100003480: 55                          	pushq	%rbp
100003481: 48 89 e5                    	movq	%rsp, %rbp
100003484: 48 81 ec 20 01 00 00        	subq	$288, %rsp
10000348b: c7 45 fc 00 00 00 00        	movl	$0, -4(%rbp)
100003492: 48 8d 7d d0                 	leaq	-48(%rbp), %rdi
100003496: e8 75 03 00 00              	callq	885 <__ZNSt3__113unordered_setIiNS_4hashIiEENS_8equal_toIiEENS_9allocatorIiEEEC1Ev>
10000349b: 48 8d 7d b8                 	leaq	-72(%rbp), %rdi
10000349f: e8 8c 03 00 00              	callq	908 <__ZNSt3__16vectorIiNS_9allocatorIiEEEC1Ev>
1000034a4: c7 45 b4 00 00 00 00        	movl	$0, -76(%rbp)
1000034ab: 81 7d b4 80 96 98 00        	cmpl	$10000000, -76(%rbp)
1000034b2: 0f 8d 76 00 00 00           	jge	118 <_main+0xae>
1000034b8: 48 8d 7d d0                 	leaq	-48(%rbp), %rdi
1000034bc: 48 8d 75 b4                 	leaq	-76(%rbp), %rsi
1000034c0: e8 8b 03 00 00              	callq	907 <__ZNSt3__113unordered_setIiNS_4hashIiEENS_8equal_toIiEENS_9allocatorIiEEE6insertERKi>
1000034c5: 88 95 47 ff ff ff           	movb	%dl, -185(%rbp)
1000034cb: 48 89 85 38 ff ff ff        	movq	%rax, -200(%rbp)
1000034d2: e9 00 00 00 00              	jmp	0 <_main+0x57>
1000034d7: 48 8b 85 38 ff ff ff        	movq	-200(%rbp), %rax
1000034de: 48 89 45 90                 	movq	%rax, -112(%rbp)
1000034e2: 8a 8d 47 ff ff ff           	movb	-185(%rbp), %cl
1000034e8: 88 4d 98                    	movb	%cl, -104(%rbp)
1000034eb: 48 8d 7d b8                 	leaq	-72(%rbp), %rdi
1000034ef: 48 8d 75 b4                 	leaq	-76(%rbp), %rsi
1000034f3: e8 98 03 00 00              	callq	920 <__ZNSt3__16vectorIiNS_9allocatorIiEEE9push_backERKi>
1000034f8: e9 00 00 00 00              	jmp	0 <_main+0x7d>
1000034fd: e9 00 00 00 00              	jmp	0 <_main+0x82>
100003502: 8b 45 b4                    	movl	-76(%rbp), %eax
100003505: 83 c0 01                    	addl	$1, %eax
100003508: 89 45 b4                    	movl	%eax, -76(%rbp)
10000350b: e9 9b ff ff ff              	jmp	-101 <_main+0x2b>
100003510: 48 89 45 a8                 	movq	%rax, -88(%rbp)
100003514: 89 55 a4                    	movl	%edx, -92(%rbp)
100003517: 48 8d 7d b8                 	leaq	-72(%rbp), %rdi
10000351b: e8 00 06 00 00              	callq	1536 <__ZNSt3__16vectorIiNS_9allocatorIiEEED1Ev>
100003520: 48 8d 7d d0                 	leaq	-48(%rbp), %rdi
100003524: e8 17 06 00 00              	callq	1559 <__ZNSt3__113unordered_setIiNS_4hashIiEENS_8equal_toIiEENS_9allocatorIiEEED1Ev>
100003529: e9 d4 02 00 00              	jmp	724 <_main+0x382>
10000352e: e8 a5 46 00 00              	callq	18085 <dyld_stub_binder+0x100007bd8>
100003533: 48 89 85 30 ff ff ff        	movq	%rax, -208(%rbp)
10000353a: e9 00 00 00 00              	jmp	0 <_main+0xbf>
10000353f: 48 8b 85 30 ff ff ff        	movq	-208(%rbp), %rax
100003546: 48 89 45 88                 	movq	%rax, -120(%rbp)
10000354a: 48 8d 4d d0                 	leaq	-48(%rbp), %rcx
10000354e: 48 89 4d 80                 	movq	%rcx, -128(%rbp)
100003552: 48 8b 7d 80                 	movq	-128(%rbp), %rdi
100003556: e8 95 03 00 00              	callq	917 <__ZNSt3__113unordered_setIiNS_4hashIiEENS_8equal_toIiEENS_9allocatorIiEEE5beginEv>
10000355b: 48 89 85 78 ff ff ff        	movq	%rax, -136(%rbp)
100003562: 48 8b 7d 80                 	movq	-128(%rbp), %rdi
100003566: e8 b5 03 00 00              	callq	949 <__ZNSt3__113unordered_setIiNS_4hashIiEENS_8equal_toIiEENS_9allocatorIiEEE3endEv>
10000356b: 48 89 85 70 ff ff ff        	movq	%rax, -144(%rbp)
100003572: 48 8d bd 78 ff ff ff        	leaq	-136(%rbp), %rdi
100003579: 48 8d b5 70 ff ff ff        	leaq	-144(%rbp), %rsi
100003580: e8 cb 03 00 00              	callq	971 <__ZNSt3__1neERKNS_21__hash_const_iteratorIPNS_11__hash_nodeIiPvEEEES7_>
100003585: 88 85 2f ff ff ff           	movb	%al, -209(%rbp)
10000358b: e9 00 00 00 00              	jmp	0 <_main+0x110>
100003590: 8a 85 2f ff ff ff           	movb	-209(%rbp), %al
100003596: a8 01                       	testb	$1, %al
100003598: 0f 85 05 00 00 00           	jne	5 <_main+0x123>
10000359e: e9 4c 00 00 00              	jmp	76 <_main+0x16f>
1000035a3: 48 8d bd 78 ff ff ff        	leaq	-136(%rbp), %rdi
1000035aa: e8 d1 03 00 00              	callq	977 <__ZNKSt3__121__hash_const_iteratorIPNS_11__hash_nodeIiPvEEEdeEv>
1000035af: 48 89 85 20 ff ff ff        	movq	%rax, -224(%rbp)
1000035b6: e9 00 00 00 00              	jmp	0 <_main+0x13b>
1000035bb: 48 8b 85 20 ff ff ff        	movq	-224(%rbp), %rax
1000035c2: 8b 08                       	movl	(%rax), %ecx
1000035c4: 89 8d 6c ff ff ff           	movl	%ecx, -148(%rbp)
1000035ca: 8b 8d 6c ff ff ff           	movl	-148(%rbp), %ecx
1000035d0: 83 c1 01                    	addl	$1, %ecx
1000035d3: 89 8d 68 ff ff ff           	movl	%ecx, -152(%rbp)
1000035d9: 48 8d bd 78 ff ff ff        	leaq	-136(%rbp), %rdi
1000035e0: e8 cb 03 00 00              	callq	971 <__ZNSt3__121__hash_const_iteratorIPNS_11__hash_nodeIiPvEEEppEv>
1000035e5: e9 00 00 00 00              	jmp	0 <_main+0x16a>
1000035ea: e9 83 ff ff ff              	jmp	-125 <_main+0xf2>
1000035ef: e8 e4 45 00 00              	callq	17892 <dyld_stub_binder+0x100007bd8>
1000035f4: 48 89 85 18 ff ff ff        	movq	%rax, -232(%rbp)
1000035fb: e9 00 00 00 00              	jmp	0 <_main+0x180>
100003600: 48 8b 45 88                 	movq	-120(%rbp), %rax
100003604: 48 8b 8d 18 ff ff ff        	movq	-232(%rbp), %rcx
10000360b: 48 29 c1                    	subq	%rax, %rcx
10000360e: 48 89 c8                    	movq	%rcx, %rax
100003611: 48 d1 e8                    	shrq	%rax
100003614: 89 ca                       	movl	%ecx, %edx
100003616: 83 e2 01                    	andl	$1, %edx
100003619: 89 d6                       	movl	%edx, %esi
10000361b: 48 09 c6                    	orq	%rax, %rsi
10000361e: f3 48 0f 2a c6              	cvtsi2ss	%rsi, %xmm0
100003623: f3 0f 58 c0                 	addss	%xmm0, %xmm0
100003627: f3 48 0f 2a c9              	cvtsi2ss	%rcx, %xmm1
10000362c: 48 85 c9                    	testq	%rcx, %rcx
10000362f: f3 0f 11 8d 14 ff ff ff     	movss	%xmm1, -236(%rbp)
100003637: f3 0f 11 85 10 ff ff ff     	movss	%xmm0, -240(%rbp)
10000363f: 0f 88 10 00 00 00           	js	16 <_main+0x1d5>
100003645: f3 0f 10 85 14 ff ff ff     	movss	-236(%rbp), %xmm0
10000364d: f3 0f 11 85 10 ff ff ff     	movss	%xmm0, -240(%rbp)
100003655: f3 0f 10 85 10 ff ff ff     	movss	-240(%rbp), %xmm0
10000365d: f3 0f 10 0d 3b 46 00 00     	movss	17979(%rip), %xmm1
100003665: f3 0f 5e c1                 	divss	%xmm1, %xmm0
100003669: 48 8b 3d 98 49 00 00        	movq	18840(%rip), %rdi
100003670: e8 1b 45 00 00              	callq	17691 <dyld_stub_binder+0x100007b90>
100003675: 48 89 85 08 ff ff ff        	movq	%rax, -248(%rbp)
10000367c: e9 00 00 00 00              	jmp	0 <_main+0x201>
100003681: 48 8d 35 68 03 00 00        	leaq	872(%rip), %rsi
100003688: 48 8b bd 08 ff ff ff        	movq	-248(%rbp), %rdi
10000368f: e8 3c 03 00 00              	callq	828 <__ZNSt3__113basic_ostreamIcNS_11char_traitsIcEEElsEPFRS3_S4_E>
100003694: e9 00 00 00 00              	jmp	0 <_main+0x219>
100003699: e8 3a 45 00 00              	callq	17722 <dyld_stub_binder+0x100007bd8>
10000369e: 48 89 85 00 ff ff ff        	movq	%rax, -256(%rbp)
1000036a5: e9 00 00 00 00              	jmp	0 <_main+0x22a>
1000036aa: 48 8b 85 00 ff ff ff        	movq	-256(%rbp), %rax
1000036b1: 48 89 45 88                 	movq	%rax, -120(%rbp)
1000036b5: 48 8d 4d b8                 	leaq	-72(%rbp), %rcx
1000036b9: 48 89 8d 60 ff ff ff        	movq	%rcx, -160(%rbp)
1000036c0: 48 8b bd 60 ff ff ff        	movq	-160(%rbp), %rdi
1000036c7: e8 84 03 00 00              	callq	900 <__ZNSt3__16vectorIiNS_9allocatorIiEEE5beginEv>
1000036cc: 48 89 85 58 ff ff ff        	movq	%rax, -168(%rbp)
1000036d3: 48 8b bd 60 ff ff ff        	movq	-160(%rbp), %rdi
1000036da: e8 a1 03 00 00              	callq	929 <__ZNSt3__16vectorIiNS_9allocatorIiEEE3endEv>
1000036df: 48 89 85 50 ff ff ff        	movq	%rax, -176(%rbp)
1000036e6: 48 8d bd 58 ff ff ff        	leaq	-168(%rbp), %rdi
1000036ed: 48 8d b5 50 ff ff ff        	leaq	-176(%rbp), %rsi
1000036f4: e8 b7 03 00 00              	callq	951 <__ZNSt3__1neIPiEEbRKNS_11__wrap_iterIT_EES6_>
1000036f9: a8 01                       	testb	$1, %al
1000036fb: 0f 85 05 00 00 00           	jne	5 <_main+0x286>
100003701: e9 34 00 00 00              	jmp	52 <_main+0x2ba>
100003706: 48 8d bd 58 ff ff ff        	leaq	-168(%rbp), %rdi
10000370d: e8 ce 03 00 00              	callq	974 <__ZNKSt3__111__wrap_iterIPiEdeEv>
100003712: 8b 08                       	movl	(%rax), %ecx
100003714: 89 8d 4c ff ff ff           	movl	%ecx, -180(%rbp)
10000371a: 8b 8d 4c ff ff ff           	movl	-180(%rbp), %ecx
100003720: 83 c1 01                    	addl	$1, %ecx
100003723: 89 8d 48 ff ff ff           	movl	%ecx, -184(%rbp)
100003729: 48 8d bd 58 ff ff ff        	leaq	-168(%rbp), %rdi
100003730: e8 cb 03 00 00              	callq	971 <__ZNSt3__111__wrap_iterIPiEppEv>
100003735: e9 ac ff ff ff              	jmp	-84 <_main+0x266>
10000373a: e8 99 44 00 00              	callq	17561 <dyld_stub_binder+0x100007bd8>
10000373f: 48 89 85 f8 fe ff ff        	movq	%rax, -264(%rbp)
100003746: e9 00 00 00 00              	jmp	0 <_main+0x2cb>
10000374b: 48 8b 45 88                 	movq	-120(%rbp), %rax
10000374f: 48 8b 8d f8 fe ff ff        	movq	-264(%rbp), %rcx
100003756: 48 29 c1                    	subq	%rax, %rcx
100003759: 48 89 c8                    	movq	%rcx, %rax
10000375c: 48 d1 e8                    	shrq	%rax
10000375f: 89 ca                       	movl	%ecx, %edx
100003761: 83 e2 01                    	andl	$1, %edx
100003764: 89 d6                       	movl	%edx, %esi
100003766: 48 09 c6                    	orq	%rax, %rsi
100003769: f3 48 0f 2a c6              	cvtsi2ss	%rsi, %xmm0
10000376e: f3 0f 58 c0                 	addss	%xmm0, %xmm0
100003772: f3 48 0f 2a c9              	cvtsi2ss	%rcx, %xmm1
100003777: 48 85 c9                    	testq	%rcx, %rcx
10000377a: f3 0f 11 8d f4 fe ff ff     	movss	%xmm1, -268(%rbp)
100003782: f3 0f 11 85 f0 fe ff ff     	movss	%xmm0, -272(%rbp)
10000378a: 0f 88 10 00 00 00           	js	16 <_main+0x320>
100003790: f3 0f 10 85 f4 fe ff ff     	movss	-268(%rbp), %xmm0
100003798: f3 0f 11 85 f0 fe ff ff     	movss	%xmm0, -272(%rbp)
1000037a0: f3 0f 10 85 f0 fe ff ff     	movss	-272(%rbp), %xmm0
1000037a8: f3 0f 10 0d f0 44 00 00     	movss	17648(%rip), %xmm1
1000037b0: f3 0f 5e c1                 	divss	%xmm1, %xmm0
1000037b4: 48 8b 3d 4d 48 00 00        	movq	18509(%rip), %rdi
1000037bb: e8 d0 43 00 00              	callq	17360 <dyld_stub_binder+0x100007b90>
1000037c0: 48 89 85 e8 fe ff ff        	movq	%rax, -280(%rbp)
1000037c7: e9 00 00 00 00              	jmp	0 <_main+0x34c>
1000037cc: 48 8d 35 1d 02 00 00        	leaq	541(%rip), %rsi
1000037d3: 48 8b bd e8 fe ff ff        	movq	-280(%rbp), %rdi
1000037da: e8 f1 01 00 00              	callq	497 <__ZNSt3__113basic_ostreamIcNS_11char_traitsIcEEElsEPFRS3_S4_E>
1000037df: e9 00 00 00 00              	jmp	0 <_main+0x364>
1000037e4: 48 8d 7d b8                 	leaq	-72(%rbp), %rdi
1000037e8: e8 33 03 00 00              	callq	819 <__ZNSt3__16vectorIiNS_9allocatorIiEEED1Ev>
1000037ed: 48 8d 7d d0                 	leaq	-48(%rbp), %rdi
1000037f1: e8 4a 03 00 00              	callq	842 <__ZNSt3__113unordered_setIiNS_4hashIiEENS_8equal_toIiEENS_9allocatorIiEEED1Ev>
1000037f6: 8b 45 fc                    	movl	-4(%rbp), %eax
1000037f9: 48 81 c4 20 01 00 00        	addq	$288, %rsp
100003800: 5d                          	popq	%rbp
100003801: c3                          	retq
100003802: 48 8b 7d a8                 	movq	-88(%rbp), %rdi
100003806: e8 37 43 00 00              	callq	17207 <dyld_stub_binder+0x100007b42>
10000380b: 0f 0b                       	ud2
10000380d: 0f 1f 00                    	nopl	(%rax)

0000000100003810 __ZNSt3__113unordered_setIiNS_4hashIiEENS_8equal_toIiEENS_9allocatorIiEEEC1Ev:
100003810: 55                          	pushq	%rbp
100003811: 48 89 e5                    	movq	%rsp, %rbp
100003814: 48 83 ec 10                 	subq	$16, %rsp
100003818: 48 89 7d f8                 	movq	%rdi, -8(%rbp)
10000381c: 48 8b 7d f8                 	movq	-8(%rbp), %rdi
100003820: e8 3b 03 00 00              	callq	827 <__ZNSt3__113unordered_setIiNS_4hashIiEENS_8equal_toIiEENS_9allocatorIiEEEC2Ev>
100003825: 48 83 c4 10                 	addq	$16, %rsp
100003829: 5d                          	popq	%rbp
10000382a: c3                          	retq
10000382b: 0f 1f 44 00 00              	nopl	(%rax,%rax)

0000000100003830 __ZNSt3__16vectorIiNS_9allocatorIiEEEC1Ev:
100003830: 55                          	pushq	%rbp
100003831: 48 89 e5                    	movq	%rsp, %rbp
100003834: 48 83 ec 10                 	subq	$16, %rsp
100003838: 48 89 7d f8                 	movq	%rdi, -8(%rbp)
10000383c: 48 8b 7d f8                 	movq	-8(%rbp), %rdi
100003840: e8 ab 0f 00 00              	callq	4011 <__ZNSt3__16vectorIiNS_9allocatorIiEEEC2Ev>
100003845: 48 83 c4 10                 	addq	$16, %rsp
100003849: 5d                          	popq	%rbp
10000384a: c3                          	retq
10000384b: 0f 1f 44 00 00              	nopl	(%rax,%rax)

0000000100003850 __ZNSt3__113unordered_setIiNS_4hashIiEENS_8equal_toIiEENS_9allocatorIiEEE6insertERKi:
100003850: 55                          	pushq	%rbp
100003851: 48 89 e5                    	movq	%rsp, %rbp
100003854: 48 83 ec 30                 	subq	$48, %rsp
100003858: 48 89 7d e8                 	movq	%rdi, -24(%rbp)
10000385c: 48 89 75 e0                 	movq	%rsi, -32(%rbp)
100003860: 48 8b 7d e8                 	movq	-24(%rbp), %rdi
100003864: 48 8b 75 e0                 	movq	-32(%rbp), %rsi
100003868: e8 c3 15 00 00              	callq	5571 <__ZNSt3__112__hash_tableIiNS_4hashIiEENS_8equal_toIiEENS_9allocatorIiEEE15__insert_uniqueERKi>
10000386d: 48 89 45 d0                 	movq	%rax, -48(%rbp)
100003871: 88 55 d8                    	movb	%dl, -40(%rbp)
100003874: 48 8d 7d f0                 	leaq	-16(%rbp), %rdi
100003878: 48 8d 75 d0                 	leaq	-48(%rbp), %rsi
10000387c: e8 ff 15 00 00              	callq	5631 <__ZNSt3__14pairINS_21__hash_const_iteratorIPNS_11__hash_nodeIiPvEEEEbEC1INS_15__hash_iteratorIS5_EEbLb0EEEONS0_IT_T0_EE>
100003881: 48 8b 45 f0                 	movq	-16(%rbp), %rax
100003885: 8a 55 f8                    	movb	-8(%rbp), %dl
100003888: 48 83 c4 30                 	addq	$48, %rsp
10000388c: 5d                          	popq	%rbp
10000388d: c3                          	retq
10000388e: 66 90                       	nop

0000000100003890 __ZNSt3__16vectorIiNS_9allocatorIiEEE9push_backERKi:
100003890: 55                          	pushq	%rbp
100003891: 48 89 e5                    	movq	%rsp, %rbp
100003894: 48 83 ec 20                 	subq	$32, %rsp
100003898: 48 89 7d f8                 	movq	%rdi, -8(%rbp)
10000389c: 48 89 75 f0                 	movq	%rsi, -16(%rbp)
1000038a0: 48 8b 45 f8                 	movq	-8(%rbp), %rax
1000038a4: 48 8b 48 08                 	movq	8(%rax), %rcx
1000038a8: 48 89 c2                    	movq	%rax, %rdx
1000038ab: 48 89 d7                    	movq	%rdx, %rdi
1000038ae: 48 89 45 e8                 	movq	%rax, -24(%rbp)
1000038b2: 48 89 4d e0                 	movq	%rcx, -32(%rbp)
1000038b6: e8 95 32 00 00              	callq	12949 <__ZNSt3__113__vector_baseIiNS_9allocatorIiEEE9__end_capEv>
1000038bb: 48 8b 4d e0                 	movq	-32(%rbp), %rcx
1000038bf: 48 3b 08                    	cmpq	(%rax), %rcx
1000038c2: 0f 84 12 00 00 00           	je	18 <__ZNSt3__16vectorIiNS_9allocatorIiEEE9push_backERKi+0x4a>
1000038c8: 48 8b 75 f0                 	movq	-16(%rbp), %rsi
1000038cc: 48 8b 7d e8                 	movq	-24(%rbp), %rdi
1000038d0: e8 ab 32 00 00              	callq	12971 <__ZNSt3__16vectorIiNS_9allocatorIiEEE22__construct_one_at_endIJRKiEEEvDpOT_>
1000038d5: e9 0d 00 00 00              	jmp	13 <__ZNSt3__16vectorIiNS_9allocatorIiEEE9push_backERKi+0x57>
1000038da: 48 8b 75 f0                 	movq	-16(%rbp), %rsi
1000038de: 48 8b 7d e8                 	movq	-24(%rbp), %rdi
1000038e2: e8 39 33 00 00              	callq	13113 <__ZNSt3__16vectorIiNS_9allocatorIiEEE21__push_back_slow_pathIRKiEEvOT_>
1000038e7: 48 83 c4 20                 	addq	$32, %rsp
1000038eb: 5d                          	popq	%rbp
1000038ec: c3                          	retq
1000038ed: 0f 1f 00                    	nopl	(%rax)

00000001000038f0 __ZNSt3__113unordered_setIiNS_4hashIiEENS_8equal_toIiEENS_9allocatorIiEEE5beginEv:
1000038f0: 55                          	pushq	%rbp
1000038f1: 48 89 e5                    	movq	%rsp, %rbp
1000038f4: 48 83 ec 20                 	subq	$32, %rsp
1000038f8: 48 89 7d f0                 	movq	%rdi, -16(%rbp)
1000038fc: 48 8b 7d f0                 	movq	-16(%rbp), %rdi
100003900: e8 eb 3f 00 00              	callq	16363 <__ZNSt3__112__hash_tableIiNS_4hashIiEENS_8equal_toIiEENS_9allocatorIiEEE5beginEv>
100003905: 48 89 45 e8                 	movq	%rax, -24(%rbp)
100003909: 48 8d 7d f8                 	leaq	-8(%rbp), %rdi
10000390d: 48 8d 75 e8                 	leaq	-24(%rbp), %rsi
100003911: e8 da 31 00 00              	callq	12762 <__ZNSt3__121__hash_const_iteratorIPNS_11__hash_nodeIiPvEEEC1ERKNS_15__hash_iteratorIS4_EE>
100003916: 48 8b 45 f8                 	movq	-8(%rbp), %rax
10000391a: 48 83 c4 20                 	addq	$32, %rsp
10000391e: 5d                          	popq	%rbp
10000391f: c3                          	retq

0000000100003920 __ZNSt3__113unordered_setIiNS_4hashIiEENS_8equal_toIiEENS_9allocatorIiEEE3endEv:
100003920: 55                          	pushq	%rbp
100003921: 48 89 e5                    	movq	%rsp, %rbp
100003924: 48 83 ec 20                 	subq	$32, %rsp
100003928: 48 89 7d f0                 	movq	%rdi, -16(%rbp)
10000392c: 48 8b 7d f0                 	movq	-16(%rbp), %rdi
100003930: e8 fb 3f 00 00              	callq	16379 <__ZNSt3__112__hash_tableIiNS_4hashIiEENS_8equal_toIiEENS_9allocatorIiEEE3endEv>
100003935: 48 89 45 e8                 	movq	%rax, -24(%rbp)
100003939: 48 8d 7d f8                 	leaq	-8(%rbp), %rdi
10000393d: 48 8d 75 e8                 	leaq	-24(%rbp), %rsi
100003941: e8 aa 31 00 00              	callq	12714 <__ZNSt3__121__hash_const_iteratorIPNS_11__hash_nodeIiPvEEEC1ERKNS_15__hash_iteratorIS4_EE>
100003946: 48 8b 45 f8                 	movq	-8(%rbp), %rax
10000394a: 48 83 c4 20                 	addq	$32, %rsp
10000394e: 5d                          	popq	%rbp
10000394f: c3                          	retq

0000000100003950 __ZNSt3__1neERKNS_21__hash_const_iteratorIPNS_11__hash_nodeIiPvEEEES7_:
100003950: 55                          	pushq	%rbp
100003951: 48 89 e5                    	movq	%rsp, %rbp
100003954: 48 83 ec 10                 	subq	$16, %rsp
100003958: 48 89 7d f8                 	movq	%rdi, -8(%rbp)
10000395c: 48 89 75 f0                 	movq	%rsi, -16(%rbp)
100003960: 48 8b 7d f8                 	movq	-8(%rbp), %rdi
100003964: 48 8b 75 f0                 	movq	-16(%rbp), %rsi
100003968: e8 f3 3f 00 00              	callq	16371 <__ZNSt3__1eqERKNS_21__hash_const_iteratorIPNS_11__hash_nodeIiPvEEEES7_>
10000396d: 34 ff                       	xorb	$-1, %al
10000396f: 24 01                       	andb	$1, %al
100003971: 0f b6 c0                    	movzbl	%al, %eax
100003974: 48 83 c4 10                 	addq	$16, %rsp
100003978: 5d                          	popq	%rbp
100003979: c3                          	retq
10000397a: 66 0f 1f 44 00 00           	nopw	(%rax,%rax)

0000000100003980 __ZNKSt3__121__hash_const_iteratorIPNS_11__hash_nodeIiPvEEEdeEv:
100003980: 55                          	pushq	%rbp
100003981: 48 89 e5                    	movq	%rsp, %rbp
100003984: 48 83 ec 10                 	subq	$16, %rsp
100003988: 48 89 7d f8                 	movq	%rdi, -8(%rbp)
10000398c: 48 8b 45 f8                 	movq	-8(%rbp), %rax
100003990: 48 8b 38                    	movq	(%rax), %rdi
100003993: e8 d8 0c 00 00              	callq	3288 <__ZNSt3__116__hash_node_baseIPNS_11__hash_nodeIiPvEEE8__upcastEv>
100003998: 48 05 10 00 00 00           	addq	$16, %rax
10000399e: 48 83 c4 10                 	addq	$16, %rsp
1000039a2: 5d                          	popq	%rbp
1000039a3: c3                          	retq
1000039a4: 66 2e 0f 1f 84 00 00 00 00 00       	nopw	%cs:(%rax,%rax)
1000039ae: 66 90                       	nop

00000001000039b0 __ZNSt3__121__hash_const_iteratorIPNS_11__hash_nodeIiPvEEEppEv:
1000039b0: 55                          	pushq	%rbp
1000039b1: 48 89 e5                    	movq	%rsp, %rbp
1000039b4: 48 89 7d f8                 	movq	%rdi, -8(%rbp)
1000039b8: 48 8b 45 f8                 	movq	-8(%rbp), %rax
1000039bc: 48 8b 08                    	movq	(%rax), %rcx
1000039bf: 48 8b 09                    	movq	(%rcx), %rcx
1000039c2: 48 89 08                    	movq	%rcx, (%rax)
1000039c5: 5d                          	popq	%rbp
1000039c6: c3                          	retq
1000039c7: 66 0f 1f 84 00 00 00 00 00  	nopw	(%rax,%rax)

00000001000039d0 __ZNSt3__113basic_ostreamIcNS_11char_traitsIcEEElsEPFRS3_S4_E:
1000039d0: 55                          	pushq	%rbp
1000039d1: 48 89 e5                    	movq	%rsp, %rbp
1000039d4: 48 83 ec 10                 	subq	$16, %rsp
1000039d8: 48 89 7d f8                 	movq	%rdi, -8(%rbp)
1000039dc: 48 89 75 f0                 	movq	%rsi, -16(%rbp)
1000039e0: 48 8b 7d f8                 	movq	-8(%rbp), %rdi
1000039e4: ff 55 f0                    	callq	*-16(%rbp)
1000039e7: 48 83 c4 10                 	addq	$16, %rsp
1000039eb: 5d                          	popq	%rbp
1000039ec: c3                          	retq
1000039ed: 0f 1f 00                    	nopl	(%rax)

00000001000039f0 __ZNSt3__1L4endlIcNS_11char_traitsIcEEEERNS_13basic_ostreamIT_T0_EES7_:
1000039f0: 55                          	pushq	%rbp
1000039f1: 48 89 e5                    	movq	%rsp, %rbp
1000039f4: 48 83 ec 20                 	subq	$32, %rsp
1000039f8: 48 89 7d f8                 	movq	%rdi, -8(%rbp)
1000039fc: 48 8b 7d f8                 	movq	-8(%rbp), %rdi
100003a00: 48 8b 45 f8                 	movq	-8(%rbp), %rax
100003a04: 48 8b 08                    	movq	(%rax), %rcx
100003a07: 48 8b 49 e8                 	movq	-24(%rcx), %rcx
100003a0b: 48 01 c8                    	addq	%rcx, %rax
100003a0e: 48 89 7d f0                 	movq	%rdi, -16(%rbp)
100003a12: 48 89 c7                    	movq	%rax, %rdi
100003a15: be 0a 00 00 00              	movl	$10, %esi
100003a1a: e8 71 3f 00 00              	callq	16241 <__ZNKSt3__19basic_iosIcNS_11char_traitsIcEEE5widenEc>
100003a1f: 48 8b 7d f0                 	movq	-16(%rbp), %rdi
100003a23: 0f be f0                    	movsbl	%al, %esi
100003a26: e8 59 41 00 00              	callq	16729 <dyld_stub_binder+0x100007b84>
100003a2b: 48 8b 7d f8                 	movq	-8(%rbp), %rdi
100003a2f: 48 89 45 e8                 	movq	%rax, -24(%rbp)
100003a33: e8 52 41 00 00              	callq	16722 <dyld_stub_binder+0x100007b8a>
100003a38: 48 8b 4d f8                 	movq	-8(%rbp), %rcx
100003a3c: 48 89 45 e0                 	movq	%rax, -32(%rbp)
100003a40: 48 89 c8                    	movq	%rcx, %rax
100003a43: 48 83 c4 20                 	addq	$32, %rsp
100003a47: 5d                          	popq	%rbp
100003a48: c3                          	retq
100003a49: 0f 1f 80 00 00 00 00        	nopl	(%rax)

0000000100003a50 __ZNSt3__16vectorIiNS_9allocatorIiEEE5beginEv:
100003a50: 55                          	pushq	%rbp
100003a51: 48 89 e5                    	movq	%rsp, %rbp
100003a54: 48 83 ec 10                 	subq	$16, %rsp
100003a58: 48 89 7d f0                 	movq	%rdi, -16(%rbp)
100003a5c: 48 8b 45 f0                 	movq	-16(%rbp), %rax
100003a60: 48 8b 30                    	movq	(%rax), %rsi
100003a63: 48 89 c7                    	movq	%rax, %rdi
100003a66: e8 05 40 00 00              	callq	16389 <__ZNSt3__16vectorIiNS_9allocatorIiEEE11__make_iterEPi>
100003a6b: 48 89 45 f8                 	movq	%rax, -8(%rbp)
100003a6f: 48 8b 45 f8                 	movq	-8(%rbp), %rax
100003a73: 48 83 c4 10                 	addq	$16, %rsp
100003a77: 5d                          	popq	%rbp
100003a78: c3                          	retq
100003a79: 0f 1f 80 00 00 00 00        	nopl	(%rax)

0000000100003a80 __ZNSt3__16vectorIiNS_9allocatorIiEEE3endEv:
100003a80: 55                          	pushq	%rbp
100003a81: 48 89 e5                    	movq	%rsp, %rbp
100003a84: 48 83 ec 10                 	subq	$16, %rsp
100003a88: 48 89 7d f0                 	movq	%rdi, -16(%rbp)
100003a8c: 48 8b 45 f0                 	movq	-16(%rbp), %rax
100003a90: 48 8b 70 08                 	movq	8(%rax), %rsi
100003a94: 48 89 c7                    	movq	%rax, %rdi
100003a97: e8 d4 3f 00 00              	callq	16340 <__ZNSt3__16vectorIiNS_9allocatorIiEEE11__make_iterEPi>
100003a9c: 48 89 45 f8                 	movq	%rax, -8(%rbp)
100003aa0: 48 8b 45 f8                 	movq	-8(%rbp), %rax
100003aa4: 48 83 c4 10                 	addq	$16, %rsp
100003aa8: 5d                          	popq	%rbp
100003aa9: c3                          	retq
100003aaa: 66 0f 1f 44 00 00           	nopw	(%rax,%rax)

0000000100003ab0 __ZNSt3__1neIPiEEbRKNS_11__wrap_iterIT_EES6_:
100003ab0: 55                          	pushq	%rbp
100003ab1: 48 89 e5                    	movq	%rsp, %rbp
100003ab4: 48 83 ec 10                 	subq	$16, %rsp
100003ab8: 48 89 7d f8                 	movq	%rdi, -8(%rbp)
100003abc: 48 89 75 f0                 	movq	%rsi, -16(%rbp)
100003ac0: 48 8b 7d f8                 	movq	-8(%rbp), %rdi
100003ac4: 48 8b 75 f0                 	movq	-16(%rbp), %rsi
100003ac8: e8 23 40 00 00              	callq	16419 <__ZNSt3__1eqIPiS1_EEbRKNS_11__wrap_iterIT_EERKNS2_IT0_EE>
100003acd: 34 ff                       	xorb	$-1, %al
100003acf: 24 01                       	andb	$1, %al
100003ad1: 0f b6 c0                    	movzbl	%al, %eax
100003ad4: 48 83 c4 10                 	addq	$16, %rsp
100003ad8: 5d                          	popq	%rbp
100003ad9: c3                          	retq
100003ada: 66 0f 1f 44 00 00           	nopw	(%rax,%rax)

0000000100003ae0 __ZNKSt3__111__wrap_iterIPiEdeEv:
100003ae0: 55                          	pushq	%rbp
100003ae1: 48 89 e5                    	movq	%rsp, %rbp
100003ae4: 48 89 7d f8                 	movq	%rdi, -8(%rbp)
100003ae8: 48 8b 45 f8                 	movq	-8(%rbp), %rax
100003aec: 48 8b 00                    	movq	(%rax), %rax
100003aef: 5d                          	popq	%rbp
100003af0: c3                          	retq
100003af1: 66 2e 0f 1f 84 00 00 00 00 00       	nopw	%cs:(%rax,%rax)
100003afb: 0f 1f 44 00 00              	nopl	(%rax,%rax)

0000000100003b00 __ZNSt3__111__wrap_iterIPiEppEv:
100003b00: 55                          	pushq	%rbp
100003b01: 48 89 e5                    	movq	%rsp, %rbp
100003b04: 48 89 7d f8                 	movq	%rdi, -8(%rbp)
100003b08: 48 8b 45 f8                 	movq	-8(%rbp), %rax
100003b0c: 48 8b 08                    	movq	(%rax), %rcx
100003b0f: 48 81 c1 04 00 00 00        	addq	$4, %rcx
100003b16: 48 89 08                    	movq	%rcx, (%rax)
100003b19: 5d                          	popq	%rbp
100003b1a: c3                          	retq
100003b1b: 0f 1f 44 00 00              	nopl	(%rax,%rax)

0000000100003b20 __ZNSt3__16vectorIiNS_9allocatorIiEEED1Ev:
100003b20: 55                          	pushq	%rbp
100003b21: 48 89 e5                    	movq	%rsp, %rbp
100003b24: 48 83 ec 10                 	subq	$16, %rsp
100003b28: 48 89 7d f8                 	movq	%rdi, -8(%rbp)
100003b2c: 48 8b 7d f8                 	movq	-8(%rbp), %rdi
100003b30: e8 6b 0e 00 00              	callq	3691 <__ZNSt3__16vectorIiNS_9allocatorIiEEED2Ev>
100003b35: 48 83 c4 10                 	addq	$16, %rsp
100003b39: 5d                          	popq	%rbp
100003b3a: c3                          	retq
100003b3b: 0f 1f 44 00 00              	nopl	(%rax,%rax)

0000000100003b40 __ZNSt3__113unordered_setIiNS_4hashIiEENS_8equal_toIiEENS_9allocatorIiEEED1Ev:
100003b40: 55                          	pushq	%rbp
100003b41: 48 89 e5                    	movq	%rsp, %rbp
100003b44: 48 83 ec 10                 	subq	$16, %rsp
100003b48: 48 89 7d f8                 	movq	%rdi, -8(%rbp)
100003b4c: 48 8b 7d f8                 	movq	-8(%rbp), %rdi
100003b50: e8 8b 09 00 00              	callq	2443 <__ZNSt3__113unordered_setIiNS_4hashIiEENS_8equal_toIiEENS_9allocatorIiEEED2Ev>
100003b55: 48 83 c4 10                 	addq	$16, %rsp
100003b59: 5d                          	popq	%rbp
100003b5a: c3                          	retq
100003b5b: 0f 1f 44 00 00              	nopl	(%rax,%rax)

0000000100003b60 __ZNSt3__113unordered_setIiNS_4hashIiEENS_8equal_toIiEENS_9allocatorIiEEEC2Ev:
100003b60: 55                          	pushq	%rbp
100003b61: 48 89 e5                    	movq	%rsp, %rbp
100003b64: 48 83 ec 10                 	subq	$16, %rsp
100003b68: 48 89 7d f8                 	movq	%rdi, -8(%rbp)
100003b6c: 48 8b 7d f8                 	movq	-8(%rbp), %rdi
100003b70: e8 0b 00 00 00              	callq	11 <__ZNSt3__112__hash_tableIiNS_4hashIiEENS_8equal_toIiEENS_9allocatorIiEEEC1Ev>
100003b75: 48 83 c4 10                 	addq	$16, %rsp
100003b79: 5d                          	popq	%rbp
100003b7a: c3                          	retq
100003b7b: 0f 1f 44 00 00              	nopl	(%rax,%rax)

0000000100003b80 __ZNSt3__112__hash_tableIiNS_4hashIiEENS_8equal_toIiEENS_9allocatorIiEEEC1Ev:
100003b80: 55                          	pushq	%rbp
100003b81: 48 89 e5                    	movq	%rsp, %rbp
100003b84: 48 83 ec 10                 	subq	$16, %rsp
100003b88: 48 89 7d f8                 	movq	%rdi, -8(%rbp)
100003b8c: 48 8b 7d f8                 	movq	-8(%rbp), %rdi
100003b90: e8 0b 00 00 00              	callq	11 <__ZNSt3__112__hash_tableIiNS_4hashIiEENS_8equal_toIiEENS_9allocatorIiEEEC2Ev>
100003b95: 48 83 c4 10                 	addq	$16, %rsp
100003b99: 5d                          	popq	%rbp
100003b9a: c3                          	retq
100003b9b: 0f 1f 44 00 00              	nopl	(%rax,%rax)

0000000100003ba0 __ZNSt3__112__hash_tableIiNS_4hashIiEENS_8equal_toIiEENS_9allocatorIiEEEC2Ev:
100003ba0: 55                          	pushq	%rbp
100003ba1: 48 89 e5                    	movq	%rsp, %rbp
100003ba4: 48 83 ec 40                 	subq	$64, %rsp
100003ba8: 48 89 7d f8                 	movq	%rdi, -8(%rbp)
100003bac: 48 8b 45 f8                 	movq	-8(%rbp), %rax
100003bb0: 48 89 c1                    	movq	%rax, %rcx
100003bb3: 48 89 c7                    	movq	%rax, %rdi
100003bb6: 48 89 45 d0                 	movq	%rax, -48(%rbp)
100003bba: 48 89 4d c8                 	movq	%rcx, -56(%rbp)
100003bbe: e8 7d 00 00 00              	callq	125 <__ZNSt3__110unique_ptrIA_PNS_16__hash_node_baseIPNS_11__hash_nodeIiPvEEEENS_25__bucket_list_deallocatorINS_9allocatorIS7_EEEEEC1ILb1EvEEv>
100003bc3: 48 8b 45 d0                 	movq	-48(%rbp), %rax
100003bc7: 48 83 c0 10                 	addq	$16, %rax
100003bcb: 48 89 c7                    	movq	%rax, %rdi
100003bce: e8 8d 00 00 00              	callq	141 <__ZNSt3__117__compressed_pairINS_16__hash_node_baseIPNS_11__hash_nodeIiPvEEEENS_9allocatorIS4_EEEC1ILb1EvEEv>
100003bd3: e9 00 00 00 00              	jmp	0 <__ZNSt3__112__hash_tableIiNS_4hashIiEENS_8equal_toIiEENS_9allocatorIiEEEC2Ev+0x38>
100003bd8: 48 8b 45 c8                 	movq	-56(%rbp), %rax
100003bdc: 48 83 c0 18                 	addq	$24, %rax
100003be0: c7 45 e8 00 00 00 00        	movl	$0, -24(%rbp)
100003be7: 48 8d 75 e8                 	leaq	-24(%rbp), %rsi
100003beb: 48 8d 55 e0                 	leaq	-32(%rbp), %rdx
100003bef: 48 89 c7                    	movq	%rax, %rdi
100003bf2: e8 89 00 00 00              	callq	137 <__ZNSt3__117__compressed_pairImNS_4hashIiEEEC1IiNS_18__default_init_tagEEEOT_OT0_>
100003bf7: e9 00 00 00 00              	jmp	0 <__ZNSt3__112__hash_tableIiNS_4hashIiEENS_8equal_toIiEENS_9allocatorIiEEEC2Ev+0x5c>
100003bfc: 48 8b 45 c8                 	movq	-56(%rbp), %rax
100003c00: 48 83 c0 20                 	addq	$32, %rax
100003c04: c7 45 dc 00 00 80 3f        	movl	$1065353216, -36(%rbp)
100003c0b: 48 8d 75 dc                 	leaq	-36(%rbp), %rsi
100003c0f: 48 8d 55 d8                 	leaq	-40(%rbp), %rdx
100003c13: 48 89 c7                    	movq	%rax, %rdi
100003c16: e8 95 00 00 00              	callq	149 <__ZNSt3__117__compressed_pairIfNS_8equal_toIiEEEC1IfNS_18__default_init_tagEEEOT_OT0_>
100003c1b: e9 00 00 00 00              	jmp	0 <__ZNSt3__112__hash_tableIiNS_4hashIiEENS_8equal_toIiEENS_9allocatorIiEEEC2Ev+0x80>
100003c20: 48 83 c4 40                 	addq	$64, %rsp
100003c24: 5d                          	popq	%rbp
100003c25: c3                          	retq
100003c26: 48 89 45 f0                 	movq	%rax, -16(%rbp)
100003c2a: 89 55 ec                    	movl	%edx, -20(%rbp)
100003c2d: 48 8b 7d d0                 	movq	-48(%rbp), %rdi
100003c31: e8 ba 00 00 00              	callq	186 <__ZNSt3__110unique_ptrIA_PNS_16__hash_node_baseIPNS_11__hash_nodeIiPvEEEENS_25__bucket_list_deallocatorINS_9allocatorIS7_EEEEED1Ev>
100003c36: 48 8b 7d f0                 	movq	-16(%rbp), %rdi
100003c3a: e8 a1 00 00 00              	callq	161 <___clang_call_terminate>
100003c3f: 90                          	nop

0000000100003c40 __ZNSt3__110unique_ptrIA_PNS_16__hash_node_baseIPNS_11__hash_nodeIiPvEEEENS_25__bucket_list_deallocatorINS_9allocatorIS7_EEEEEC1ILb1EvEEv:
100003c40: 55                          	pushq	%rbp
100003c41: 48 89 e5                    	movq	%rsp, %rbp
100003c44: 48 83 ec 10                 	subq	$16, %rsp
100003c48: 48 89 7d f8                 	movq	%rdi, -8(%rbp)
100003c4c: 48 8b 7d f8                 	movq	-8(%rbp), %rdi
100003c50: e8 bb 00 00 00              	callq	187 <__ZNSt3__110unique_ptrIA_PNS_16__hash_node_baseIPNS_11__hash_nodeIiPvEEEENS_25__bucket_list_deallocatorINS_9allocatorIS7_EEEEEC2ILb1EvEEv>
100003c55: 48 83 c4 10                 	addq	$16, %rsp
100003c59: 5d                          	popq	%rbp
100003c5a: c3                          	retq
100003c5b: 0f 1f 44 00 00              	nopl	(%rax,%rax)

0000000100003c60 __ZNSt3__117__compressed_pairINS_16__hash_node_baseIPNS_11__hash_nodeIiPvEEEENS_9allocatorIS4_EEEC1ILb1EvEEv:
100003c60: 55                          	pushq	%rbp
100003c61: 48 89 e5                    	movq	%rsp, %rbp
100003c64: 48 83 ec 10                 	subq	$16, %rsp
100003c68: 48 89 7d f8                 	movq	%rdi, -8(%rbp)
100003c6c: 48 8b 7d f8                 	movq	-8(%rbp), %rdi
100003c70: e8 6b 03 00 00              	callq	875 <__ZNSt3__117__compressed_pairINS_16__hash_node_baseIPNS_11__hash_nodeIiPvEEEENS_9allocatorIS4_EEEC2ILb1EvEEv>
100003c75: 48 83 c4 10                 	addq	$16, %rsp
100003c79: 5d                          	popq	%rbp
100003c7a: c3                          	retq
100003c7b: 0f 1f 44 00 00              	nopl	(%rax,%rax)

0000000100003c80 __ZNSt3__117__compressed_pairImNS_4hashIiEEEC1IiNS_18__default_init_tagEEEOT_OT0_:
100003c80: 55                          	pushq	%rbp
100003c81: 48 89 e5                    	movq	%rsp, %rbp
100003c84: 48 83 ec 20                 	subq	$32, %rsp
100003c88: 48 89 7d f8                 	movq	%rdi, -8(%rbp)
100003c8c: 48 89 75 f0                 	movq	%rsi, -16(%rbp)
100003c90: 48 89 55 e8                 	movq	%rdx, -24(%rbp)
100003c94: 48 8b 7d f8                 	movq	-8(%rbp), %rdi
100003c98: 48 8b 75 f0                 	movq	-16(%rbp), %rsi
100003c9c: 48 8b 55 e8                 	movq	-24(%rbp), %rdx
100003ca0: e8 0b 04 00 00              	callq	1035 <__ZNSt3__117__compressed_pairImNS_4hashIiEEEC2IiNS_18__default_init_tagEEEOT_OT0_>
100003ca5: 48 83 c4 20                 	addq	$32, %rsp
100003ca9: 5d                          	popq	%rbp
100003caa: c3                          	retq
100003cab: 0f 1f 44 00 00              	nopl	(%rax,%rax)

0000000100003cb0 __ZNSt3__117__compressed_pairIfNS_8equal_toIiEEEC1IfNS_18__default_init_tagEEEOT_OT0_:
100003cb0: 55                          	pushq	%rbp
100003cb1: 48 89 e5                    	movq	%rsp, %rbp
100003cb4: 48 83 ec 20                 	subq	$32, %rsp
100003cb8: 48 89 7d f8                 	movq	%rdi, -8(%rbp)
100003cbc: 48 89 75 f0                 	movq	%rsi, -16(%rbp)
100003cc0: 48 89 55 e8                 	movq	%rdx, -24(%rbp)
100003cc4: 48 8b 7d f8                 	movq	-8(%rbp), %rdi
100003cc8: 48 8b 75 f0                 	movq	-16(%rbp), %rsi
100003ccc: 48 8b 55 e8                 	movq	-24(%rbp), %rdx
100003cd0: e8 4b 04 00 00              	callq	1099 <__ZNSt3__117__compressed_pairIfNS_8equal_toIiEEEC2IfNS_18__default_init_tagEEEOT_OT0_>
100003cd5: 48 83 c4 20                 	addq	$32, %rsp
100003cd9: 5d                          	popq	%rbp
100003cda: c3                          	retq
100003cdb: 0f 1f 44 00 00              	nopl	(%rax,%rax)

0000000100003ce0 ___clang_call_terminate:
100003ce0: 50                          	pushq	%rax
100003ce1: e8 e0 3e 00 00              	callq	16096 <dyld_stub_binder+0x100007bc6>
100003ce6: 48 89 04 24                 	movq	%rax, (%rsp)
100003cea: e8 bf 3e 00 00              	callq	16063 <dyld_stub_binder+0x100007bae>
100003cef: 90                          	nop

0000000100003cf0 __ZNSt3__110unique_ptrIA_PNS_16__hash_node_baseIPNS_11__hash_nodeIiPvEEEENS_25__bucket_list_deallocatorINS_9allocatorIS7_EEEEED1Ev:
100003cf0: 55                          	pushq	%rbp
100003cf1: 48 89 e5                    	movq	%rsp, %rbp
100003cf4: 48 83 ec 10                 	subq	$16, %rsp
100003cf8: 48 89 7d f8                 	movq	%rdi, -8(%rbp)
100003cfc: 48 8b 7d f8                 	movq	-8(%rbp), %rdi
100003d00: e8 db 04 00 00              	callq	1243 <__ZNSt3__110unique_ptrIA_PNS_16__hash_node_baseIPNS_11__hash_nodeIiPvEEEENS_25__bucket_list_deallocatorINS_9allocatorIS7_EEEEED2Ev>
100003d05: 48 83 c4 10                 	addq	$16, %rsp
100003d09: 5d                          	popq	%rbp
100003d0a: c3                          	retq
100003d0b: 0f 1f 44 00 00              	nopl	(%rax,%rax)

0000000100003d10 __ZNSt3__110unique_ptrIA_PNS_16__hash_node_baseIPNS_11__hash_nodeIiPvEEEENS_25__bucket_list_deallocatorINS_9allocatorIS7_EEEEEC2ILb1EvEEv:
100003d10: 55                          	pushq	%rbp
100003d11: 48 89 e5                    	movq	%rsp, %rbp
100003d14: 48 83 ec 20                 	subq	$32, %rsp
100003d18: 48 89 7d f8                 	movq	%rdi, -8(%rbp)
100003d1c: 48 8b 7d f8                 	movq	-8(%rbp), %rdi
100003d20: 48 c7 45 f0 00 00 00 00     	movq	$0, -16(%rbp)
100003d28: 48 8d 75 f0                 	leaq	-16(%rbp), %rsi
100003d2c: 48 8d 55 e8                 	leaq	-24(%rbp), %rdx
100003d30: e8 1b 00 00 00              	callq	27 <__ZNSt3__117__compressed_pairIPPNS_16__hash_node_baseIPNS_11__hash_nodeIiPvEEEENS_25__bucket_list_deallocatorINS_9allocatorIS7_EEEEEC1IS8_NS_18__default_init_tagEEEOT_OT0_>
100003d35: e9 00 00 00 00              	jmp	0 <__ZNSt3__110unique_ptrIA_PNS_16__hash_node_baseIPNS_11__hash_nodeIiPvEEEENS_25__bucket_list_deallocatorINS_9allocatorIS7_EEEEEC2ILb1EvEEv+0x2a>
100003d3a: 48 83 c4 20                 	addq	$32, %rsp
100003d3e: 5d                          	popq	%rbp
100003d3f: c3                          	retq
100003d40: 48 89 c7                    	movq	%rax, %rdi
100003d43: 48 89 55 e0                 	movq	%rdx, -32(%rbp)
100003d47: e8 94 ff ff ff              	callq	-108 <___clang_call_terminate>
100003d4c: 0f 1f 40 00                 	nopl	(%rax)

0000000100003d50 __ZNSt3__117__compressed_pairIPPNS_16__hash_node_baseIPNS_11__hash_nodeIiPvEEEENS_25__bucket_list_deallocatorINS_9allocatorIS7_EEEEEC1IS8_NS_18__default_init_tagEEEOT_OT0_:
100003d50: 55                          	pushq	%rbp
100003d51: 48 89 e5                    	movq	%rsp, %rbp
100003d54: 48 83 ec 20                 	subq	$32, %rsp
100003d58: 48 89 7d f8                 	movq	%rdi, -8(%rbp)
100003d5c: 48 89 75 f0                 	movq	%rsi, -16(%rbp)
100003d60: 48 89 55 e8                 	movq	%rdx, -24(%rbp)
100003d64: 48 8b 7d f8                 	movq	-8(%rbp), %rdi
100003d68: 48 8b 75 f0                 	movq	-16(%rbp), %rsi
100003d6c: 48 8b 55 e8                 	movq	-24(%rbp), %rdx
100003d70: e8 0b 00 00 00              	callq	11 <__ZNSt3__117__compressed_pairIPPNS_16__hash_node_baseIPNS_11__hash_nodeIiPvEEEENS_25__bucket_list_deallocatorINS_9allocatorIS7_EEEEEC2IS8_NS_18__default_init_tagEEEOT_OT0_>
100003d75: 48 83 c4 20                 	addq	$32, %rsp
100003d79: 5d                          	popq	%rbp
100003d7a: c3                          	retq
100003d7b: 0f 1f 44 00 00              	nopl	(%rax,%rax)

0000000100003d80 __ZNSt3__117__compressed_pairIPPNS_16__hash_node_baseIPNS_11__hash_nodeIiPvEEEENS_25__bucket_list_deallocatorINS_9allocatorIS7_EEEEEC2IS8_NS_18__default_init_tagEEEOT_OT0_:
100003d80: 55                          	pushq	%rbp
100003d81: 48 89 e5                    	movq	%rsp, %rbp
100003d84: 48 83 ec 40                 	subq	$64, %rsp
100003d88: 48 89 7d f8                 	movq	%rdi, -8(%rbp)
100003d8c: 48 89 75 f0                 	movq	%rsi, -16(%rbp)
100003d90: 48 89 55 e8                 	movq	%rdx, -24(%rbp)
100003d94: 48 8b 45 f8                 	movq	-8(%rbp), %rax
100003d98: 48 89 c1                    	movq	%rax, %rcx
100003d9b: 48 8b 7d f0                 	movq	-16(%rbp), %rdi
100003d9f: 48 89 45 d8                 	movq	%rax, -40(%rbp)
100003da3: 48 89 4d d0                 	movq	%rcx, -48(%rbp)
100003da7: e8 44 00 00 00              	callq	68 <__ZNSt3__1L7forwardIPPNS_16__hash_node_baseIPNS_11__hash_nodeIiPvEEEEEEOT_RNS_16remove_referenceIS9_E4typeE>
100003dac: 48 8b 7d d0                 	movq	-48(%rbp), %rdi
100003db0: 48 89 c6                    	movq	%rax, %rsi
100003db3: e8 48 00 00 00              	callq	72 <__ZNSt3__122__compressed_pair_elemIPPNS_16__hash_node_baseIPNS_11__hash_nodeIiPvEEEELi0ELb0EEC2IS8_vEEOT_>
100003db8: 48 8b 45 d8                 	movq	-40(%rbp), %rax
100003dbc: 48 05 08 00 00 00           	addq	$8, %rax
100003dc2: 48 8b 7d e8                 	movq	-24(%rbp), %rdi
100003dc6: 48 89 45 c8                 	movq	%rax, -56(%rbp)
100003dca: e8 71 00 00 00              	callq	113 <__ZNSt3__1L7forwardINS_18__default_init_tagEEEOT_RNS_16remove_referenceIS2_E4typeE>
100003dcf: 48 8b 7d c8                 	movq	-56(%rbp), %rdi
100003dd3: 48 89 45 c0                 	movq	%rax, -64(%rbp)
100003dd7: e8 74 00 00 00              	callq	116 <__ZNSt3__122__compressed_pair_elemINS_25__bucket_list_deallocatorINS_9allocatorIPNS_16__hash_node_baseIPNS_11__hash_nodeIiPvEEEEEEEELi1ELb0EEC2ENS_18__default_init_tagE>
100003ddc: 48 83 c4 40                 	addq	$64, %rsp
100003de0: 5d                          	popq	%rbp
100003de1: c3                          	retq
100003de2: 66 2e 0f 1f 84 00 00 00 00 00       	nopw	%cs:(%rax,%rax)
100003dec: 0f 1f 40 00                 	nopl	(%rax)

0000000100003df0 __ZNSt3__1L7forwardIPPNS_16__hash_node_baseIPNS_11__hash_nodeIiPvEEEEEEOT_RNS_16remove_referenceIS9_E4typeE:
100003df0: 55                          	pushq	%rbp
100003df1: 48 89 e5                    	movq	%rsp, %rbp
100003df4: 48 89 7d f8                 	movq	%rdi, -8(%rbp)
100003df8: 48 8b 45 f8                 	movq	-8(%rbp), %rax
100003dfc: 5d                          	popq	%rbp
100003dfd: c3                          	retq
100003dfe: 66 90                       	nop

0000000100003e00 __ZNSt3__122__compressed_pair_elemIPPNS_16__hash_node_baseIPNS_11__hash_nodeIiPvEEEELi0ELb0EEC2IS8_vEEOT_:
100003e00: 55                          	pushq	%rbp
100003e01: 48 89 e5                    	movq	%rsp, %rbp
100003e04: 48 83 ec 20                 	subq	$32, %rsp
100003e08: 48 89 7d f8                 	movq	%rdi, -8(%rbp)
100003e0c: 48 89 75 f0                 	movq	%rsi, -16(%rbp)
100003e10: 48 8b 45 f8                 	movq	-8(%rbp), %rax
100003e14: 48 8b 7d f0                 	movq	-16(%rbp), %rdi
100003e18: 48 89 45 e8                 	movq	%rax, -24(%rbp)
100003e1c: e8 cf ff ff ff              	callq	-49 <__ZNSt3__1L7forwardIPPNS_16__hash_node_baseIPNS_11__hash_nodeIiPvEEEEEEOT_RNS_16remove_referenceIS9_E4typeE>
100003e21: 48 8b 00                    	movq	(%rax), %rax
100003e24: 48 8b 4d e8                 	movq	-24(%rbp), %rcx
100003e28: 48 89 01                    	movq	%rax, (%rcx)
100003e2b: 48 83 c4 20                 	addq	$32, %rsp
100003e2f: 5d                          	popq	%rbp
100003e30: c3                          	retq
100003e31: 66 2e 0f 1f 84 00 00 00 00 00       	nopw	%cs:(%rax,%rax)
100003e3b: 0f 1f 44 00 00              	nopl	(%rax,%rax)

0000000100003e40 __ZNSt3__1L7forwardINS_18__default_init_tagEEEOT_RNS_16remove_referenceIS2_E4typeE:
100003e40: 55                          	pushq	%rbp
100003e41: 48 89 e5                    	movq	%rsp, %rbp
100003e44: 48 89 7d f8                 	movq	%rdi, -8(%rbp)
100003e48: 48 8b 45 f8                 	movq	-8(%rbp), %rax
100003e4c: 5d                          	popq	%rbp
100003e4d: c3                          	retq
100003e4e: 66 90                       	nop

0000000100003e50 __ZNSt3__122__compressed_pair_elemINS_25__bucket_list_deallocatorINS_9allocatorIPNS_16__hash_node_baseIPNS_11__hash_nodeIiPvEEEEEEEELi1ELb0EEC2ENS_18__default_init_tagE:
100003e50: 55                          	pushq	%rbp
100003e51: 48 89 e5                    	movq	%rsp, %rbp
100003e54: 48 83 ec 10                 	subq	$16, %rsp
100003e58: 48 89 7d f0                 	movq	%rdi, -16(%rbp)
100003e5c: 48 8b 7d f0                 	movq	-16(%rbp), %rdi
100003e60: e8 0b 00 00 00              	callq	11 <__ZNSt3__125__bucket_list_deallocatorINS_9allocatorIPNS_16__hash_node_baseIPNS_11__hash_nodeIiPvEEEEEEEC1Ev>
100003e65: 48 83 c4 10                 	addq	$16, %rsp
100003e69: 5d                          	popq	%rbp
100003e6a: c3                          	retq
100003e6b: 0f 1f 44 00 00              	nopl	(%rax,%rax)

0000000100003e70 __ZNSt3__125__bucket_list_deallocatorINS_9allocatorIPNS_16__hash_node_baseIPNS_11__hash_nodeIiPvEEEEEEEC1Ev:
100003e70: 55                          	pushq	%rbp
100003e71: 48 89 e5                    	movq	%rsp, %rbp
100003e74: 48 83 ec 10                 	subq	$16, %rsp
100003e78: 48 89 7d f8                 	movq	%rdi, -8(%rbp)
100003e7c: 48 8b 7d f8                 	movq	-8(%rbp), %rdi
100003e80: e8 0b 00 00 00              	callq	11 <__ZNSt3__125__bucket_list_deallocatorINS_9allocatorIPNS_16__hash_node_baseIPNS_11__hash_nodeIiPvEEEEEEEC2Ev>
100003e85: 48 83 c4 10                 	addq	$16, %rsp
100003e89: 5d                          	popq	%rbp
100003e8a: c3                          	retq
100003e8b: 0f 1f 44 00 00              	nopl	(%rax,%rax)

0000000100003e90 __ZNSt3__125__bucket_list_deallocatorINS_9allocatorIPNS_16__hash_node_baseIPNS_11__hash_nodeIiPvEEEEEEEC2Ev:
100003e90: 55                          	pushq	%rbp
100003e91: 48 89 e5                    	movq	%rsp, %rbp
100003e94: 48 83 ec 20                 	subq	$32, %rsp
100003e98: 48 89 7d f8                 	movq	%rdi, -8(%rbp)
100003e9c: 48 8b 7d f8                 	movq	-8(%rbp), %rdi
100003ea0: c7 45 f4 00 00 00 00        	movl	$0, -12(%rbp)
100003ea7: 48 8d 75 f4                 	leaq	-12(%rbp), %rsi
100003eab: 48 8d 55 f0                 	leaq	-16(%rbp), %rdx
100003eaf: e8 1c 00 00 00              	callq	28 <__ZNSt3__117__compressed_pairImNS_9allocatorIPNS_16__hash_node_baseIPNS_11__hash_nodeIiPvEEEEEEEC1IiNS_18__default_init_tagEEEOT_OT0_>
100003eb4: e9 00 00 00 00              	jmp	0 <__ZNSt3__125__bucket_list_deallocatorINS_9allocatorIPNS_16__hash_node_baseIPNS_11__hash_nodeIiPvEEEEEEEC2Ev+0x29>
100003eb9: 48 83 c4 20                 	addq	$32, %rsp
100003ebd: 5d                          	popq	%rbp
100003ebe: c3                          	retq
100003ebf: 48 89 c7                    	movq	%rax, %rdi
100003ec2: 48 89 55 e8                 	movq	%rdx, -24(%rbp)
100003ec6: e8 15 fe ff ff              	callq	-491 <___clang_call_terminate>
100003ecb: 0f 1f 44 00 00              	nopl	(%rax,%rax)

0000000100003ed0 __ZNSt3__117__compressed_pairImNS_9allocatorIPNS_16__hash_node_baseIPNS_11__hash_nodeIiPvEEEEEEEC1IiNS_18__default_init_tagEEEOT_OT0_:
100003ed0: 55                          	pushq	%rbp
100003ed1: 48 89 e5                    	movq	%rsp, %rbp
100003ed4: 48 83 ec 20                 	subq	$32, %rsp
100003ed8: 48 89 7d f8                 	movq	%rdi, -8(%rbp)
100003edc: 48 89 75 f0                 	movq	%rsi, -16(%rbp)
100003ee0: 48 89 55 e8                 	movq	%rdx, -24(%rbp)
100003ee4: 48 8b 7d f8                 	movq	-8(%rbp), %rdi
100003ee8: 48 8b 75 f0                 	movq	-16(%rbp), %rsi
100003eec: 48 8b 55 e8                 	movq	-24(%rbp), %rdx
100003ef0: e8 0b 00 00 00              	callq	11 <__ZNSt3__117__compressed_pairImNS_9allocatorIPNS_16__hash_node_baseIPNS_11__hash_nodeIiPvEEEEEEEC2IiNS_18__default_init_tagEEEOT_OT0_>
100003ef5: 48 83 c4 20                 	addq	$32, %rsp
100003ef9: 5d                          	popq	%rbp
100003efa: c3                          	retq
100003efb: 0f 1f 44 00 00              	nopl	(%rax,%rax)

0000000100003f00 __ZNSt3__117__compressed_pairImNS_9allocatorIPNS_16__hash_node_baseIPNS_11__hash_nodeIiPvEEEEEEEC2IiNS_18__default_init_tagEEEOT_OT0_:
100003f00: 55                          	pushq	%rbp
100003f01: 48 89 e5                    	movq	%rsp, %rbp
100003f04: 48 83 ec 40                 	subq	$64, %rsp
100003f08: 48 89 7d f8                 	movq	%rdi, -8(%rbp)
100003f0c: 48 89 75 f0                 	movq	%rsi, -16(%rbp)
100003f10: 48 89 55 e8                 	movq	%rdx, -24(%rbp)
100003f14: 48 8b 45 f8                 	movq	-8(%rbp), %rax
100003f18: 48 89 c1                    	movq	%rax, %rcx
100003f1b: 48 8b 7d f0                 	movq	-16(%rbp), %rdi
100003f1f: 48 89 45 d8                 	movq	%rax, -40(%rbp)
100003f23: 48 89 4d d0                 	movq	%rcx, -48(%rbp)
100003f27: e8 34 00 00 00              	callq	52 <__ZNSt3__1L7forwardIiEEOT_RNS_16remove_referenceIS1_E4typeE>
100003f2c: 48 8b 7d d0                 	movq	-48(%rbp), %rdi
100003f30: 48 89 c6                    	movq	%rax, %rsi
100003f33: e8 38 00 00 00              	callq	56 <__ZNSt3__122__compressed_pair_elemImLi0ELb0EEC2IivEEOT_>
100003f38: 48 8b 45 d8                 	movq	-40(%rbp), %rax
100003f3c: 48 8b 7d e8                 	movq	-24(%rbp), %rdi
100003f40: 48 89 45 c8                 	movq	%rax, -56(%rbp)
100003f44: e8 f7 fe ff ff              	callq	-265 <__ZNSt3__1L7forwardINS_18__default_init_tagEEEOT_RNS_16remove_referenceIS2_E4typeE>
100003f49: 48 8b 7d c8                 	movq	-56(%rbp), %rdi
100003f4d: 48 89 45 c0                 	movq	%rax, -64(%rbp)
100003f51: e8 5a 00 00 00              	callq	90 <__ZNSt3__122__compressed_pair_elemINS_9allocatorIPNS_16__hash_node_baseIPNS_11__hash_nodeIiPvEEEEEELi1ELb1EEC2ENS_18__default_init_tagE>
100003f56: 48 83 c4 40                 	addq	$64, %rsp
100003f5a: 5d                          	popq	%rbp
100003f5b: c3                          	retq
100003f5c: 0f 1f 40 00                 	nopl	(%rax)

0000000100003f60 __ZNSt3__1L7forwardIiEEOT_RNS_16remove_referenceIS1_E4typeE:
100003f60: 55                          	pushq	%rbp
100003f61: 48 89 e5                    	movq	%rsp, %rbp
100003f64: 48 89 7d f8                 	movq	%rdi, -8(%rbp)
100003f68: 48 8b 45 f8                 	movq	-8(%rbp), %rax
100003f6c: 5d                          	popq	%rbp
100003f6d: c3                          	retq
100003f6e: 66 90                       	nop

0000000100003f70 __ZNSt3__122__compressed_pair_elemImLi0ELb0EEC2IivEEOT_:
100003f70: 55                          	pushq	%rbp
100003f71: 48 89 e5                    	movq	%rsp, %rbp
100003f74: 48 83 ec 20                 	subq	$32, %rsp
100003f78: 48 89 7d f8                 	movq	%rdi, -8(%rbp)
100003f7c: 48 89 75 f0                 	movq	%rsi, -16(%rbp)
100003f80: 48 8b 45 f8                 	movq	-8(%rbp), %rax
100003f84: 48 8b 7d f0                 	movq	-16(%rbp), %rdi
100003f88: 48 89 45 e8                 	movq	%rax, -24(%rbp)
100003f8c: e8 cf ff ff ff              	callq	-49 <__ZNSt3__1L7forwardIiEEOT_RNS_16remove_referenceIS1_E4typeE>
100003f91: 48 63 00                    	movslq	(%rax), %rax
100003f94: 48 8b 4d e8                 	movq	-24(%rbp), %rcx
100003f98: 48 89 01                    	movq	%rax, (%rcx)
100003f9b: 48 83 c4 20                 	addq	$32, %rsp
100003f9f: 5d                          	popq	%rbp
100003fa0: c3                          	retq
100003fa1: 66 2e 0f 1f 84 00 00 00 00 00       	nopw	%cs:(%rax,%rax)
100003fab: 0f 1f 44 00 00              	nopl	(%rax,%rax)

0000000100003fb0 __ZNSt3__122__compressed_pair_elemINS_9allocatorIPNS_16__hash_node_baseIPNS_11__hash_nodeIiPvEEEEEELi1ELb1EEC2ENS_18__default_init_tagE:
100003fb0: 55                          	pushq	%rbp
100003fb1: 48 89 e5                    	movq	%rsp, %rbp
100003fb4: 48 83 ec 10                 	subq	$16, %rsp
100003fb8: 48 89 7d f0                 	movq	%rdi, -16(%rbp)
100003fbc: 48 8b 45 f0                 	movq	-16(%rbp), %rax
100003fc0: 48 89 c7                    	movq	%rax, %rdi
100003fc3: e8 08 00 00 00              	callq	8 <__ZNSt3__19allocatorIPNS_16__hash_node_baseIPNS_11__hash_nodeIiPvEEEEEC2Ev>
100003fc8: 48 83 c4 10                 	addq	$16, %rsp
100003fcc: 5d                          	popq	%rbp
100003fcd: c3                          	retq
100003fce: 66 90                       	nop

0000000100003fd0 __ZNSt3__19allocatorIPNS_16__hash_node_baseIPNS_11__hash_nodeIiPvEEEEEC2Ev:
100003fd0: 55                          	pushq	%rbp
100003fd1: 48 89 e5                    	movq	%rsp, %rbp
100003fd4: 48 89 7d f8                 	movq	%rdi, -8(%rbp)
100003fd8: 5d                          	popq	%rbp
100003fd9: c3                          	retq
100003fda: 66 0f 1f 44 00 00           	nopw	(%rax,%rax)

0000000100003fe0 __ZNSt3__117__compressed_pairINS_16__hash_node_baseIPNS_11__hash_nodeIiPvEEEENS_9allocatorIS4_EEEC2ILb1EvEEv:
100003fe0: 55                          	pushq	%rbp
100003fe1: 48 89 e5                    	movq	%rsp, %rbp
100003fe4: 48 83 ec 20                 	subq	$32, %rsp
100003fe8: 48 89 7d f8                 	movq	%rdi, -8(%rbp)
100003fec: 48 8b 45 f8                 	movq	-8(%rbp), %rax
100003ff0: 48 89 c1                    	movq	%rax, %rcx
100003ff3: 48 89 cf                    	movq	%rcx, %rdi
100003ff6: 48 89 45 e0                 	movq	%rax, -32(%rbp)
100003ffa: e8 21 00 00 00              	callq	33 <__ZNSt3__122__compressed_pair_elemINS_16__hash_node_baseIPNS_11__hash_nodeIiPvEEEELi0ELb0EEC2ENS_16__value_init_tagE>
100003fff: 48 8b 45 e0                 	movq	-32(%rbp), %rax
100004003: 48 89 c7                    	movq	%rax, %rdi
100004006: e8 35 00 00 00              	callq	53 <__ZNSt3__122__compressed_pair_elemINS_9allocatorINS_11__hash_nodeIiPvEEEELi1ELb1EEC2ENS_16__value_init_tagE>
10000400b: 48 83 c4 20                 	addq	$32, %rsp
10000400f: 5d                          	popq	%rbp
100004010: c3                          	retq
100004011: 66 2e 0f 1f 84 00 00 00 00 00       	nopw	%cs:(%rax,%rax)
10000401b: 0f 1f 44 00 00              	nopl	(%rax,%rax)

0000000100004020 __ZNSt3__122__compressed_pair_elemINS_16__hash_node_baseIPNS_11__hash_nodeIiPvEEEELi0ELb0EEC2ENS_16__value_init_tagE:
100004020: 55                          	pushq	%rbp
100004021: 48 89 e5                    	movq	%rsp, %rbp
100004024: 48 83 ec 10                 	subq	$16, %rsp
100004028: 48 89 7d f0                 	movq	%rdi, -16(%rbp)
10000402c: 48 8b 7d f0                 	movq	-16(%rbp), %rdi
100004030: e8 2b 00 00 00              	callq	43 <__ZNSt3__116__hash_node_baseIPNS_11__hash_nodeIiPvEEEC1Ev>
100004035: 48 83 c4 10                 	addq	$16, %rsp
100004039: 5d                          	popq	%rbp
10000403a: c3                          	retq
10000403b: 0f 1f 44 00 00              	nopl	(%rax,%rax)

0000000100004040 __ZNSt3__122__compressed_pair_elemINS_9allocatorINS_11__hash_nodeIiPvEEEELi1ELb1EEC2ENS_16__value_init_tagE:
100004040: 55                          	pushq	%rbp
100004041: 48 89 e5                    	movq	%rsp, %rbp
100004044: 48 83 ec 10                 	subq	$16, %rsp
100004048: 48 89 7d f0                 	movq	%rdi, -16(%rbp)
10000404c: 48 8b 45 f0                 	movq	-16(%rbp), %rax
100004050: 48 89 c7                    	movq	%rax, %rdi
100004053: e8 48 00 00 00              	callq	72 <__ZNSt3__19allocatorINS_11__hash_nodeIiPvEEEC2Ev>
100004058: 48 83 c4 10                 	addq	$16, %rsp
10000405c: 5d                          	popq	%rbp
10000405d: c3                          	retq
10000405e: 66 90                       	nop

0000000100004060 __ZNSt3__116__hash_node_baseIPNS_11__hash_nodeIiPvEEEC1Ev:
100004060: 55                          	pushq	%rbp
100004061: 48 89 e5                    	movq	%rsp, %rbp
100004064: 48 83 ec 10                 	subq	$16, %rsp
100004068: 48 89 7d f8                 	movq	%rdi, -8(%rbp)
10000406c: 48 8b 7d f8                 	movq	-8(%rbp), %rdi
100004070: e8 0b 00 00 00              	callq	11 <__ZNSt3__116__hash_node_baseIPNS_11__hash_nodeIiPvEEEC2Ev>
100004075: 48 83 c4 10                 	addq	$16, %rsp
100004079: 5d                          	popq	%rbp
10000407a: c3                          	retq
10000407b: 0f 1f 44 00 00              	nopl	(%rax,%rax)

0000000100004080 __ZNSt3__116__hash_node_baseIPNS_11__hash_nodeIiPvEEEC2Ev:
100004080: 55                          	pushq	%rbp
100004081: 48 89 e5                    	movq	%rsp, %rbp
100004084: 48 89 7d f8                 	movq	%rdi, -8(%rbp)
100004088: 48 8b 45 f8                 	movq	-8(%rbp), %rax
10000408c: 48 c7 00 00 00 00 00        	movq	$0, (%rax)
100004093: 5d                          	popq	%rbp
100004094: c3                          	retq
100004095: 66 2e 0f 1f 84 00 00 00 00 00       	nopw	%cs:(%rax,%rax)
10000409f: 90                          	nop

00000001000040a0 __ZNSt3__19allocatorINS_11__hash_nodeIiPvEEEC2Ev:
1000040a0: 55                          	pushq	%rbp
1000040a1: 48 89 e5                    	movq	%rsp, %rbp
1000040a4: 48 89 7d f8                 	movq	%rdi, -8(%rbp)
1000040a8: 5d                          	popq	%rbp
1000040a9: c3                          	retq
1000040aa: 66 0f 1f 44 00 00           	nopw	(%rax,%rax)

00000001000040b0 __ZNSt3__117__compressed_pairImNS_4hashIiEEEC2IiNS_18__default_init_tagEEEOT_OT0_:
1000040b0: 55                          	pushq	%rbp
1000040b1: 48 89 e5                    	movq	%rsp, %rbp
1000040b4: 48 83 ec 40                 	subq	$64, %rsp
1000040b8: 48 89 7d f8                 	movq	%rdi, -8(%rbp)
1000040bc: 48 89 75 f0                 	movq	%rsi, -16(%rbp)
1000040c0: 48 89 55 e8                 	movq	%rdx, -24(%rbp)
1000040c4: 48 8b 45 f8                 	movq	-8(%rbp), %rax
1000040c8: 48 89 c1                    	movq	%rax, %rcx
1000040cb: 48 8b 7d f0                 	movq	-16(%rbp), %rdi
1000040cf: 48 89 45 d8                 	movq	%rax, -40(%rbp)
1000040d3: 48 89 4d d0                 	movq	%rcx, -48(%rbp)
1000040d7: e8 84 fe ff ff              	callq	-380 <__ZNSt3__1L7forwardIiEEOT_RNS_16remove_referenceIS1_E4typeE>
1000040dc: 48 8b 7d d0                 	movq	-48(%rbp), %rdi
1000040e0: 48 89 c6                    	movq	%rax, %rsi
1000040e3: e8 88 fe ff ff              	callq	-376 <__ZNSt3__122__compressed_pair_elemImLi0ELb0EEC2IivEEOT_>
1000040e8: 48 8b 45 d8                 	movq	-40(%rbp), %rax
1000040ec: 48 8b 7d e8                 	movq	-24(%rbp), %rdi
1000040f0: 48 89 45 c8                 	movq	%rax, -56(%rbp)
1000040f4: e8 47 fd ff ff              	callq	-697 <__ZNSt3__1L7forwardINS_18__default_init_tagEEEOT_RNS_16remove_referenceIS2_E4typeE>
1000040f9: 48 8b 7d c8                 	movq	-56(%rbp), %rdi
1000040fd: 48 89 45 c0                 	movq	%rax, -64(%rbp)
100004101: e8 0a 00 00 00              	callq	10 <__ZNSt3__122__compressed_pair_elemINS_4hashIiEELi1ELb1EEC2ENS_18__default_init_tagE>
100004106: 48 83 c4 40                 	addq	$64, %rsp
10000410a: 5d                          	popq	%rbp
10000410b: c3                          	retq
10000410c: 0f 1f 40 00                 	nopl	(%rax)

0000000100004110 __ZNSt3__122__compressed_pair_elemINS_4hashIiEELi1ELb1EEC2ENS_18__default_init_tagE:
100004110: 55                          	pushq	%rbp
100004111: 48 89 e5                    	movq	%rsp, %rbp
100004114: 48 89 7d f0                 	movq	%rdi, -16(%rbp)
100004118: 5d                          	popq	%rbp
100004119: c3                          	retq
10000411a: 66 0f 1f 44 00 00           	nopw	(%rax,%rax)

0000000100004120 __ZNSt3__117__compressed_pairIfNS_8equal_toIiEEEC2IfNS_18__default_init_tagEEEOT_OT0_:
100004120: 55                          	pushq	%rbp
100004121: 48 89 e5                    	movq	%rsp, %rbp
100004124: 48 83 ec 40                 	subq	$64, %rsp
100004128: 48 89 7d f8                 	movq	%rdi, -8(%rbp)
10000412c: 48 89 75 f0                 	movq	%rsi, -16(%rbp)
100004130: 48 89 55 e8                 	movq	%rdx, -24(%rbp)
100004134: 48 8b 45 f8                 	movq	-8(%rbp), %rax
100004138: 48 89 c1                    	movq	%rax, %rcx
10000413b: 48 8b 7d f0                 	movq	-16(%rbp), %rdi
10000413f: 48 89 45 d8                 	movq	%rax, -40(%rbp)
100004143: 48 89 4d d0                 	movq	%rcx, -48(%rbp)
100004147: e8 34 00 00 00              	callq	52 <__ZNSt3__1L7forwardIfEEOT_RNS_16remove_referenceIS1_E4typeE>
10000414c: 48 8b 7d d0                 	movq	-48(%rbp), %rdi
100004150: 48 89 c6                    	movq	%rax, %rsi
100004153: e8 38 00 00 00              	callq	56 <__ZNSt3__122__compressed_pair_elemIfLi0ELb0EEC2IfvEEOT_>
100004158: 48 8b 45 d8                 	movq	-40(%rbp), %rax
10000415c: 48 8b 7d e8                 	movq	-24(%rbp), %rdi
100004160: 48 89 45 c8                 	movq	%rax, -56(%rbp)
100004164: e8 d7 fc ff ff              	callq	-809 <__ZNSt3__1L7forwardINS_18__default_init_tagEEEOT_RNS_16remove_referenceIS2_E4typeE>
100004169: 48 8b 7d c8                 	movq	-56(%rbp), %rdi
10000416d: 48 89 45 c0                 	movq	%rax, -64(%rbp)
100004171: e8 5a 00 00 00              	callq	90 <__ZNSt3__122__compressed_pair_elemINS_8equal_toIiEELi1ELb1EEC2ENS_18__default_init_tagE>
100004176: 48 83 c4 40                 	addq	$64, %rsp
10000417a: 5d                          	popq	%rbp
10000417b: c3                          	retq
10000417c: 0f 1f 40 00                 	nopl	(%rax)

0000000100004180 __ZNSt3__1L7forwardIfEEOT_RNS_16remove_referenceIS1_E4typeE:
100004180: 55                          	pushq	%rbp
100004181: 48 89 e5                    	movq	%rsp, %rbp
100004184: 48 89 7d f8                 	movq	%rdi, -8(%rbp)
100004188: 48 8b 45 f8                 	movq	-8(%rbp), %rax
10000418c: 5d                          	popq	%rbp
10000418d: c3                          	retq
10000418e: 66 90                       	nop

0000000100004190 __ZNSt3__122__compressed_pair_elemIfLi0ELb0EEC2IfvEEOT_:
100004190: 55                          	pushq	%rbp
100004191: 48 89 e5                    	movq	%rsp, %rbp
100004194: 48 83 ec 20                 	subq	$32, %rsp
100004198: 48 89 7d f8                 	movq	%rdi, -8(%rbp)
10000419c: 48 89 75 f0                 	movq	%rsi, -16(%rbp)
1000041a0: 48 8b 45 f8                 	movq	-8(%rbp), %rax
1000041a4: 48 8b 7d f0                 	movq	-16(%rbp), %rdi
1000041a8: 48 89 45 e8                 	movq	%rax, -24(%rbp)
1000041ac: e8 cf ff ff ff              	callq	-49 <__ZNSt3__1L7forwardIfEEOT_RNS_16remove_referenceIS1_E4typeE>
1000041b1: f3 0f 10 00                 	movss	(%rax), %xmm0
1000041b5: 48 8b 45 e8                 	movq	-24(%rbp), %rax
1000041b9: f3 0f 11 00                 	movss	%xmm0, (%rax)
1000041bd: 48 83 c4 20                 	addq	$32, %rsp
1000041c1: 5d                          	popq	%rbp
1000041c2: c3                          	retq
1000041c3: 66 2e 0f 1f 84 00 00 00 00 00       	nopw	%cs:(%rax,%rax)
1000041cd: 0f 1f 00                    	nopl	(%rax)

00000001000041d0 __ZNSt3__122__compressed_pair_elemINS_8equal_toIiEELi1ELb1EEC2ENS_18__default_init_tagE:
1000041d0: 55                          	pushq	%rbp
1000041d1: 48 89 e5                    	movq	%rsp, %rbp
1000041d4: 48 89 7d f0                 	movq	%rdi, -16(%rbp)
1000041d8: 5d                          	popq	%rbp
1000041d9: c3                          	retq
1000041da: 66 0f 1f 44 00 00           	nopw	(%rax,%rax)

00000001000041e0 __ZNSt3__110unique_ptrIA_PNS_16__hash_node_baseIPNS_11__hash_nodeIiPvEEEENS_25__bucket_list_deallocatorINS_9allocatorIS7_EEEEED2Ev:
1000041e0: 55                          	pushq	%rbp
1000041e1: 48 89 e5                    	movq	%rsp, %rbp
1000041e4: 48 83 ec 10                 	subq	$16, %rsp
1000041e8: 31 c0                       	xorl	%eax, %eax
1000041ea: 89 c6                       	movl	%eax, %esi
1000041ec: 48 89 7d f8                 	movq	%rdi, -8(%rbp)
1000041f0: 48 8b 7d f8                 	movq	-8(%rbp), %rdi
1000041f4: e8 07 00 00 00              	callq	7 <__ZNSt3__110unique_ptrIA_PNS_16__hash_node_baseIPNS_11__hash_nodeIiPvEEEENS_25__bucket_list_deallocatorINS_9allocatorIS7_EEEEE5resetEDn>
1000041f9: 48 83 c4 10                 	addq	$16, %rsp
1000041fd: 5d                          	popq	%rbp
1000041fe: c3                          	retq
1000041ff: 90                          	nop

0000000100004200 __ZNSt3__110unique_ptrIA_PNS_16__hash_node_baseIPNS_11__hash_nodeIiPvEEEENS_25__bucket_list_deallocatorINS_9allocatorIS7_EEEEE5resetEDn:
100004200: 55                          	pushq	%rbp
100004201: 48 89 e5                    	movq	%rsp, %rbp
100004204: 48 83 ec 20                 	subq	$32, %rsp
100004208: 48 89 7d f8                 	movq	%rdi, -8(%rbp)
10000420c: 48 89 75 f0                 	movq	%rsi, -16(%rbp)
100004210: 48 8b 45 f8                 	movq	-8(%rbp), %rax
100004214: 48 89 c7                    	movq	%rax, %rdi
100004217: 48 89 45 e0                 	movq	%rax, -32(%rbp)
10000421b: e8 40 00 00 00              	callq	64 <__ZNSt3__117__compressed_pairIPPNS_16__hash_node_baseIPNS_11__hash_nodeIiPvEEEENS_25__bucket_list_deallocatorINS_9allocatorIS7_EEEEE5firstEv>
100004220: 48 8b 00                    	movq	(%rax), %rax
100004223: 48 89 45 e8                 	movq	%rax, -24(%rbp)
100004227: 48 8b 7d e0                 	movq	-32(%rbp), %rdi
10000422b: e8 30 00 00 00              	callq	48 <__ZNSt3__117__compressed_pairIPPNS_16__hash_node_baseIPNS_11__hash_nodeIiPvEEEENS_25__bucket_list_deallocatorINS_9allocatorIS7_EEEEE5firstEv>
100004230: 48 c7 00 00 00 00 00        	movq	$0, (%rax)
100004237: 48 83 7d e8 00              	cmpq	$0, -24(%rbp)
10000423c: 0f 84 15 00 00 00           	je	21 <__ZNSt3__110unique_ptrIA_PNS_16__hash_node_baseIPNS_11__hash_nodeIiPvEEEENS_25__bucket_list_deallocatorINS_9allocatorIS7_EEEEE5resetEDn+0x57>
100004242: 48 8b 7d e0                 	movq	-32(%rbp), %rdi
100004246: e8 35 00 00 00              	callq	53 <__ZNSt3__117__compressed_pairIPPNS_16__hash_node_baseIPNS_11__hash_nodeIiPvEEEENS_25__bucket_list_deallocatorINS_9allocatorIS7_EEEEE6secondEv>
10000424b: 48 8b 75 e8                 	movq	-24(%rbp), %rsi
10000424f: 48 89 c7                    	movq	%rax, %rdi
100004252: e8 59 00 00 00              	callq	89 <__ZNSt3__125__bucket_list_deallocatorINS_9allocatorIPNS_16__hash_node_baseIPNS_11__hash_nodeIiPvEEEEEEEclEPS8_>
100004257: 48 83 c4 20                 	addq	$32, %rsp
10000425b: 5d                          	popq	%rbp
10000425c: c3                          	retq
10000425d: 0f 1f 00                    	nopl	(%rax)

0000000100004260 __ZNSt3__117__compressed_pairIPPNS_16__hash_node_baseIPNS_11__hash_nodeIiPvEEEENS_25__bucket_list_deallocatorINS_9allocatorIS7_EEEEE5firstEv:
100004260: 55                          	pushq	%rbp
100004261: 48 89 e5                    	movq	%rsp, %rbp
100004264: 48 83 ec 10                 	subq	$16, %rsp
100004268: 48 89 7d f8                 	movq	%rdi, -8(%rbp)
10000426c: 48 8b 45 f8                 	movq	-8(%rbp), %rax
100004270: 48 89 c7                    	movq	%rax, %rdi
100004273: e8 88 00 00 00              	callq	136 <__ZNSt3__122__compressed_pair_elemIPPNS_16__hash_node_baseIPNS_11__hash_nodeIiPvEEEELi0ELb0EE5__getEv>
100004278: 48 83 c4 10                 	addq	$16, %rsp
10000427c: 5d                          	popq	%rbp
10000427d: c3                          	retq
10000427e: 66 90                       	nop

0000000100004280 __ZNSt3__117__compressed_pairIPPNS_16__hash_node_baseIPNS_11__hash_nodeIiPvEEEENS_25__bucket_list_deallocatorINS_9allocatorIS7_EEEEE6secondEv:
100004280: 55                          	pushq	%rbp
100004281: 48 89 e5                    	movq	%rsp, %rbp
100004284: 48 83 ec 10                 	subq	$16, %rsp
100004288: 48 89 7d f8                 	movq	%rdi, -8(%rbp)
10000428c: 48 8b 45 f8                 	movq	-8(%rbp), %rax
100004290: 48 05 08 00 00 00           	addq	$8, %rax
100004296: 48 89 c7                    	movq	%rax, %rdi
100004299: e8 72 00 00 00              	callq	114 <__ZNSt3__122__compressed_pair_elemINS_25__bucket_list_deallocatorINS_9allocatorIPNS_16__hash_node_baseIPNS_11__hash_nodeIiPvEEEEEEEELi1ELb0EE5__getEv>
10000429e: 48 83 c4 10                 	addq	$16, %rsp
1000042a2: 5d                          	popq	%rbp
1000042a3: c3                          	retq
1000042a4: 66 2e 0f 1f 84 00 00 00 00 00       	nopw	%cs:(%rax,%rax)
1000042ae: 66 90                       	nop

00000001000042b0 __ZNSt3__125__bucket_list_deallocatorINS_9allocatorIPNS_16__hash_node_baseIPNS_11__hash_nodeIiPvEEEEEEEclEPS8_:
1000042b0: 55                          	pushq	%rbp
1000042b1: 48 89 e5                    	movq	%rsp, %rbp
1000042b4: 48 83 ec 30                 	subq	$48, %rsp
1000042b8: 48 89 7d f8                 	movq	%rdi, -8(%rbp)
1000042bc: 48 89 75 f0                 	movq	%rsi, -16(%rbp)
1000042c0: 48 8b 45 f8                 	movq	-8(%rbp), %rax
1000042c4: 48 89 c7                    	movq	%rax, %rdi
1000042c7: 48 89 45 e8                 	movq	%rax, -24(%rbp)
1000042cb: e8 80 00 00 00              	callq	128 <__ZNSt3__125__bucket_list_deallocatorINS_9allocatorIPNS_16__hash_node_baseIPNS_11__hash_nodeIiPvEEEEEEE7__allocEv>
1000042d0: 48 8b 75 f0                 	movq	-16(%rbp), %rsi
1000042d4: 48 8b 7d e8                 	movq	-24(%rbp), %rdi
1000042d8: 48 89 45 e0                 	movq	%rax, -32(%rbp)
1000042dc: 48 89 75 d8                 	movq	%rsi, -40(%rbp)
1000042e0: e8 8b 00 00 00              	callq	139 <__ZNSt3__125__bucket_list_deallocatorINS_9allocatorIPNS_16__hash_node_baseIPNS_11__hash_nodeIiPvEEEEEEE4sizeEv>
1000042e5: 48 8b 10                    	movq	(%rax), %rdx
1000042e8: 48 8b 7d e0                 	movq	-32(%rbp), %rdi
1000042ec: 48 8b 75 d8                 	movq	-40(%rbp), %rsi
1000042f0: e8 2b 00 00 00              	callq	43 <__ZNSt3__116allocator_traitsINS_9allocatorIPNS_16__hash_node_baseIPNS_11__hash_nodeIiPvEEEEEEE10deallocateERS9_PS8_m>
1000042f5: 48 83 c4 30                 	addq	$48, %rsp
1000042f9: 5d                          	popq	%rbp
1000042fa: c3                          	retq
1000042fb: 0f 1f 44 00 00              	nopl	(%rax,%rax)

0000000100004300 __ZNSt3__122__compressed_pair_elemIPPNS_16__hash_node_baseIPNS_11__hash_nodeIiPvEEEELi0ELb0EE5__getEv:
100004300: 55                          	pushq	%rbp
100004301: 48 89 e5                    	movq	%rsp, %rbp
100004304: 48 89 7d f8                 	movq	%rdi, -8(%rbp)
100004308: 48 8b 45 f8                 	movq	-8(%rbp), %rax
10000430c: 5d                          	popq	%rbp
10000430d: c3                          	retq
10000430e: 66 90                       	nop

0000000100004310 __ZNSt3__122__compressed_pair_elemINS_25__bucket_list_deallocatorINS_9allocatorIPNS_16__hash_node_baseIPNS_11__hash_nodeIiPvEEEEEEEELi1ELb0EE5__getEv:
100004310: 55                          	pushq	%rbp
100004311: 48 89 e5                    	movq	%rsp, %rbp
100004314: 48 89 7d f8                 	movq	%rdi, -8(%rbp)
100004318: 48 8b 45 f8                 	movq	-8(%rbp), %rax
10000431c: 5d                          	popq	%rbp
10000431d: c3                          	retq
10000431e: 66 90                       	nop

0000000100004320 __ZNSt3__116allocator_traitsINS_9allocatorIPNS_16__hash_node_baseIPNS_11__hash_nodeIiPvEEEEEEE10deallocateERS9_PS8_m:
100004320: 55                          	pushq	%rbp
100004321: 48 89 e5                    	movq	%rsp, %rbp
100004324: 48 83 ec 20                 	subq	$32, %rsp
100004328: 48 89 7d f8                 	movq	%rdi, -8(%rbp)
10000432c: 48 89 75 f0                 	movq	%rsi, -16(%rbp)
100004330: 48 89 55 e8                 	movq	%rdx, -24(%rbp)
100004334: 48 8b 7d f8                 	movq	-8(%rbp), %rdi
100004338: 48 8b 75 f0                 	movq	-16(%rbp), %rsi
10000433c: 48 8b 55 e8                 	movq	-24(%rbp), %rdx
100004340: e8 4b 00 00 00              	callq	75 <__ZNSt3__19allocatorIPNS_16__hash_node_baseIPNS_11__hash_nodeIiPvEEEEE10deallocateEPS7_m>
100004345: 48 83 c4 20                 	addq	$32, %rsp
100004349: 5d                          	popq	%rbp
10000434a: c3                          	retq
10000434b: 0f 1f 44 00 00              	nopl	(%rax,%rax)

0000000100004350 __ZNSt3__125__bucket_list_deallocatorINS_9allocatorIPNS_16__hash_node_baseIPNS_11__hash_nodeIiPvEEEEEEE7__allocEv:
100004350: 55                          	pushq	%rbp
100004351: 48 89 e5                    	movq	%rsp, %rbp
100004354: 48 83 ec 10                 	subq	$16, %rsp
100004358: 48 89 7d f8                 	movq	%rdi, -8(%rbp)
10000435c: 48 8b 7d f8                 	movq	-8(%rbp), %rdi
100004360: e8 1b 01 00 00              	callq	283 <__ZNSt3__117__compressed_pairImNS_9allocatorIPNS_16__hash_node_baseIPNS_11__hash_nodeIiPvEEEEEEE6secondEv>
100004365: 48 83 c4 10                 	addq	$16, %rsp
100004369: 5d                          	popq	%rbp
10000436a: c3                          	retq
10000436b: 0f 1f 44 00 00              	nopl	(%rax,%rax)

0000000100004370 __ZNSt3__125__bucket_list_deallocatorINS_9allocatorIPNS_16__hash_node_baseIPNS_11__hash_nodeIiPvEEEEEEE4sizeEv:
100004370: 55                          	pushq	%rbp
100004371: 48 89 e5                    	movq	%rsp, %rbp
100004374: 48 83 ec 10                 	subq	$16, %rsp
100004378: 48 89 7d f8                 	movq	%rdi, -8(%rbp)
10000437c: 48 8b 7d f8                 	movq	-8(%rbp), %rdi
100004380: e8 2b 01 00 00              	callq	299 <__ZNSt3__117__compressed_pairImNS_9allocatorIPNS_16__hash_node_baseIPNS_11__hash_nodeIiPvEEEEEEE5firstEv>
100004385: 48 83 c4 10                 	addq	$16, %rsp
100004389: 5d                          	popq	%rbp
10000438a: c3                          	retq
10000438b: 0f 1f 44 00 00              	nopl	(%rax,%rax)

0000000100004390 __ZNSt3__19allocatorIPNS_16__hash_node_baseIPNS_11__hash_nodeIiPvEEEEE10deallocateEPS7_m:
100004390: 55                          	pushq	%rbp
100004391: 48 89 e5                    	movq	%rsp, %rbp
100004394: 48 83 ec 20                 	subq	$32, %rsp
100004398: 48 89 7d f8                 	movq	%rdi, -8(%rbp)
10000439c: 48 89 75 f0                 	movq	%rsi, -16(%rbp)
1000043a0: 48 89 55 e8                 	movq	%rdx, -24(%rbp)
1000043a4: 48 8b 7d f0                 	movq	-16(%rbp), %rdi
1000043a8: 48 8b 45 e8                 	movq	-24(%rbp), %rax
1000043ac: 48 c1 e0 03                 	shlq	$3, %rax
1000043b0: ba 08 00 00 00              	movl	$8, %edx
1000043b5: 48 89 c6                    	movq	%rax, %rsi
1000043b8: e8 23 00 00 00              	callq	35 <__ZNSt3__1L19__libcpp_deallocateEPvmm>
1000043bd: e9 00 00 00 00              	jmp	0 <__ZNSt3__19allocatorIPNS_16__hash_node_baseIPNS_11__hash_nodeIiPvEEEEE10deallocateEPS7_m+0x32>
1000043c2: 48 83 c4 20                 	addq	$32, %rsp
1000043c6: 5d                          	popq	%rbp
1000043c7: c3                          	retq
1000043c8: 48 89 c7                    	movq	%rax, %rdi
1000043cb: 48 89 55 e0                 	movq	%rdx, -32(%rbp)
1000043cf: e8 0c f9 ff ff              	callq	-1780 <___clang_call_terminate>
1000043d4: 66 2e 0f 1f 84 00 00 00 00 00       	nopw	%cs:(%rax,%rax)
1000043de: 66 90                       	nop

00000001000043e0 __ZNSt3__1L19__libcpp_deallocateEPvmm:
1000043e0: 55                          	pushq	%rbp
1000043e1: 48 89 e5                    	movq	%rsp, %rbp
1000043e4: 48 83 ec 20                 	subq	$32, %rsp
1000043e8: 48 89 7d f8                 	movq	%rdi, -8(%rbp)
1000043ec: 48 89 75 f0                 	movq	%rsi, -16(%rbp)
1000043f0: 48 89 55 e8                 	movq	%rdx, -24(%rbp)
1000043f4: 48 8b 7d f8                 	movq	-8(%rbp), %rdi
1000043f8: 48 8b 75 f0                 	movq	-16(%rbp), %rsi
1000043fc: 48 8b 55 e8                 	movq	-24(%rbp), %rdx
100004400: e8 0b 00 00 00              	callq	11 <__ZNSt3__117_DeallocateCaller33__do_deallocate_handle_size_alignEPvmm>
100004405: 48 83 c4 20                 	addq	$32, %rsp
100004409: 5d                          	popq	%rbp
10000440a: c3                          	retq
10000440b: 0f 1f 44 00 00              	nopl	(%rax,%rax)

0000000100004410 __ZNSt3__117_DeallocateCaller33__do_deallocate_handle_size_alignEPvmm:
100004410: 55                          	pushq	%rbp
100004411: 48 89 e5                    	movq	%rsp, %rbp
100004414: 48 83 ec 20                 	subq	$32, %rsp
100004418: 48 89 7d f8                 	movq	%rdi, -8(%rbp)
10000441c: 48 89 75 f0                 	movq	%rsi, -16(%rbp)
100004420: 48 89 55 e8                 	movq	%rdx, -24(%rbp)
100004424: 48 8b 7d f8                 	movq	-8(%rbp), %rdi
100004428: 48 8b 75 f0                 	movq	-16(%rbp), %rsi
10000442c: e8 65 37 00 00              	callq	14181 <dyld_stub_binder+0x100007b96>
100004431: 48 83 c4 20                 	addq	$32, %rsp
100004435: 5d                          	popq	%rbp
100004436: c3                          	retq
100004437: 66 0f 1f 84 00 00 00 00 00  	nopw	(%rax,%rax)

0000000100004440 __ZNSt3__117_DeallocateCaller27__do_deallocate_handle_sizeEPvm:
100004440: 55                          	pushq	%rbp
100004441: 48 89 e5                    	movq	%rsp, %rbp
100004444: 48 83 ec 10                 	subq	$16, %rsp
100004448: 48 89 7d f8                 	movq	%rdi, -8(%rbp)
10000444c: 48 89 75 f0                 	movq	%rsi, -16(%rbp)
100004450: 48 8b 7d f8                 	movq	-8(%rbp), %rdi
100004454: e8 43 37 00 00              	callq	14147 <dyld_stub_binder+0x100007b9c>
100004459: 48 83 c4 10                 	addq	$16, %rsp
10000445d: 5d                          	popq	%rbp
10000445e: c3                          	retq
10000445f: 90                          	nop

0000000100004460 __ZNSt3__117_DeallocateCaller9__do_callEPv:
100004460: 55                          	pushq	%rbp
100004461: 48 89 e5                    	movq	%rsp, %rbp
100004464: 48 83 ec 10                 	subq	$16, %rsp
100004468: 48 89 7d f8                 	movq	%rdi, -8(%rbp)
10000446c: 48 8b 7d f8                 	movq	-8(%rbp), %rdi
100004470: e8 3f 37 00 00              	callq	14143 <dyld_stub_binder+0x100007bb4>
100004475: 48 83 c4 10                 	addq	$16, %rsp
100004479: 5d                          	popq	%rbp
10000447a: c3                          	retq
10000447b: 0f 1f 44 00 00              	nopl	(%rax,%rax)

0000000100004480 __ZNSt3__117__compressed_pairImNS_9allocatorIPNS_16__hash_node_baseIPNS_11__hash_nodeIiPvEEEEEEE6secondEv:
100004480: 55                          	pushq	%rbp
100004481: 48 89 e5                    	movq	%rsp, %rbp
100004484: 48 83 ec 10                 	subq	$16, %rsp
100004488: 48 89 7d f8                 	movq	%rdi, -8(%rbp)
10000448c: 48 8b 45 f8                 	movq	-8(%rbp), %rax
100004490: 48 89 c7                    	movq	%rax, %rdi
100004493: e8 08 00 00 00              	callq	8 <__ZNSt3__122__compressed_pair_elemINS_9allocatorIPNS_16__hash_node_baseIPNS_11__hash_nodeIiPvEEEEEELi1ELb1EE5__getEv>
100004498: 48 83 c4 10                 	addq	$16, %rsp
10000449c: 5d                          	popq	%rbp
10000449d: c3                          	retq
10000449e: 66 90                       	nop

00000001000044a0 __ZNSt3__122__compressed_pair_elemINS_9allocatorIPNS_16__hash_node_baseIPNS_11__hash_nodeIiPvEEEEEELi1ELb1EE5__getEv:
1000044a0: 55                          	pushq	%rbp
1000044a1: 48 89 e5                    	movq	%rsp, %rbp
1000044a4: 48 89 7d f8                 	movq	%rdi, -8(%rbp)
1000044a8: 48 8b 45 f8                 	movq	-8(%rbp), %rax
1000044ac: 5d                          	popq	%rbp
1000044ad: c3                          	retq
1000044ae: 66 90                       	nop

00000001000044b0 __ZNSt3__117__compressed_pairImNS_9allocatorIPNS_16__hash_node_baseIPNS_11__hash_nodeIiPvEEEEEEE5firstEv:
1000044b0: 55                          	pushq	%rbp
1000044b1: 48 89 e5                    	movq	%rsp, %rbp
1000044b4: 48 83 ec 10                 	subq	$16, %rsp
1000044b8: 48 89 7d f8                 	movq	%rdi, -8(%rbp)
1000044bc: 48 8b 45 f8                 	movq	-8(%rbp), %rax
1000044c0: 48 89 c7                    	movq	%rax, %rdi
1000044c3: e8 08 00 00 00              	callq	8 <__ZNSt3__122__compressed_pair_elemImLi0ELb0EE5__getEv>
1000044c8: 48 83 c4 10                 	addq	$16, %rsp
1000044cc: 5d                          	popq	%rbp
1000044cd: c3                          	retq
1000044ce: 66 90                       	nop

00000001000044d0 __ZNSt3__122__compressed_pair_elemImLi0ELb0EE5__getEv:
1000044d0: 55                          	pushq	%rbp
1000044d1: 48 89 e5                    	movq	%rsp, %rbp
1000044d4: 48 89 7d f8                 	movq	%rdi, -8(%rbp)
1000044d8: 48 8b 45 f8                 	movq	-8(%rbp), %rax
1000044dc: 5d                          	popq	%rbp
1000044dd: c3                          	retq
1000044de: 66 90                       	nop

00000001000044e0 __ZNSt3__113unordered_setIiNS_4hashIiEENS_8equal_toIiEENS_9allocatorIiEEED2Ev:
1000044e0: 55                          	pushq	%rbp
1000044e1: 48 89 e5                    	movq	%rsp, %rbp
1000044e4: 48 83 ec 10                 	subq	$16, %rsp
1000044e8: 48 89 7d f8                 	movq	%rdi, -8(%rbp)
1000044ec: 48 8b 7d f8                 	movq	-8(%rbp), %rdi
1000044f0: e8 0b 00 00 00              	callq	11 <__ZNSt3__112__hash_tableIiNS_4hashIiEENS_8equal_toIiEENS_9allocatorIiEEED1Ev>
1000044f5: 48 83 c4 10                 	addq	$16, %rsp
1000044f9: 5d                          	popq	%rbp
1000044fa: c3                          	retq
1000044fb: 0f 1f 44 00 00              	nopl	(%rax,%rax)

0000000100004500 __ZNSt3__112__hash_tableIiNS_4hashIiEENS_8equal_toIiEENS_9allocatorIiEEED1Ev:
100004500: 55                          	pushq	%rbp
100004501: 48 89 e5                    	movq	%rsp, %rbp
100004504: 48 83 ec 10                 	subq	$16, %rsp
100004508: 48 89 7d f8                 	movq	%rdi, -8(%rbp)
10000450c: 48 8b 7d f8                 	movq	-8(%rbp), %rdi
100004510: e8 0b 00 00 00              	callq	11 <__ZNSt3__112__hash_tableIiNS_4hashIiEENS_8equal_toIiEENS_9allocatorIiEEED2Ev>
100004515: 48 83 c4 10                 	addq	$16, %rsp
100004519: 5d                          	popq	%rbp
10000451a: c3                          	retq
10000451b: 0f 1f 44 00 00              	nopl	(%rax,%rax)

0000000100004520 __ZNSt3__112__hash_tableIiNS_4hashIiEENS_8equal_toIiEENS_9allocatorIiEEED2Ev:
100004520: 55                          	pushq	%rbp
100004521: 48 89 e5                    	movq	%rsp, %rbp
100004524: 48 83 ec 10                 	subq	$16, %rsp
100004528: 48 89 7d f8                 	movq	%rdi, -8(%rbp)
10000452c: 48 8b 45 f8                 	movq	-8(%rbp), %rax
100004530: 48 89 c1                    	movq	%rax, %rcx
100004533: 48 81 c1 10 00 00 00        	addq	$16, %rcx
10000453a: 48 89 cf                    	movq	%rcx, %rdi
10000453d: 48 89 45 f0                 	movq	%rax, -16(%rbp)
100004541: e8 da 00 00 00              	callq	218 <__ZNSt3__117__compressed_pairINS_16__hash_node_baseIPNS_11__hash_nodeIiPvEEEENS_9allocatorIS4_EEE5firstEv>
100004546: 48 8b 30                    	movq	(%rax), %rsi
100004549: 48 8b 7d f0                 	movq	-16(%rbp), %rdi
10000454d: e8 14 36 00 00              	callq	13844 <dyld_stub_binder+0x100007b66>
100004552: 48 8b 7d f0                 	movq	-16(%rbp), %rdi
100004556: e8 95 f7 ff ff              	callq	-2155 <__ZNSt3__110unique_ptrIA_PNS_16__hash_node_baseIPNS_11__hash_nodeIiPvEEEENS_25__bucket_list_deallocatorINS_9allocatorIS7_EEEEED1Ev>
10000455b: 48 83 c4 10                 	addq	$16, %rsp
10000455f: 5d                          	popq	%rbp
100004560: c3                          	retq
100004561: 66 2e 0f 1f 84 00 00 00 00 00       	nopw	%cs:(%rax,%rax)
10000456b: 0f 1f 44 00 00              	nopl	(%rax,%rax)

0000000100004570 __ZNSt3__112__hash_tableIiNS_4hashIiEENS_8equal_toIiEENS_9allocatorIiEEE17__deallocate_nodeEPNS_16__hash_node_baseIPNS_11__hash_nodeIiPvEEEE:
100004570: 55                          	pushq	%rbp
100004571: 48 89 e5                    	movq	%rsp, %rbp
100004574: 48 83 ec 40                 	subq	$64, %rsp
100004578: 48 89 7d f8                 	movq	%rdi, -8(%rbp)
10000457c: 48 89 75 f0                 	movq	%rsi, -16(%rbp)
100004580: 48 8b 7d f8                 	movq	-8(%rbp), %rdi
100004584: e8 b7 00 00 00              	callq	183 <__ZNSt3__112__hash_tableIiNS_4hashIiEENS_8equal_toIiEENS_9allocatorIiEEE12__node_allocEv>
100004589: 48 89 45 e8                 	movq	%rax, -24(%rbp)
10000458d: 48 83 7d f0 00              	cmpq	$0, -16(%rbp)
100004592: 0f 84 6a 00 00 00           	je	106 <__ZNSt3__112__hash_tableIiNS_4hashIiEENS_8equal_toIiEENS_9allocatorIiEEE17__deallocate_nodeEPNS_16__hash_node_baseIPNS_11__hash_nodeIiPvEEEE+0x92>
100004598: 48 8b 45 f0                 	movq	-16(%rbp), %rax
10000459c: 48 8b 00                    	movq	(%rax), %rax
10000459f: 48 89 45 e0                 	movq	%rax, -32(%rbp)
1000045a3: 48 8b 7d f0                 	movq	-16(%rbp), %rdi
1000045a7: e8 c4 00 00 00              	callq	196 <__ZNSt3__116__hash_node_baseIPNS_11__hash_nodeIiPvEEE8__upcastEv>
1000045ac: 48 89 45 d8                 	movq	%rax, -40(%rbp)
1000045b0: 48 8b 7d e8                 	movq	-24(%rbp), %rdi
1000045b4: 48 8b 45 d8                 	movq	-40(%rbp), %rax
1000045b8: 48 83 c0 10                 	addq	$16, %rax
1000045bc: 48 89 7d d0                 	movq	%rdi, -48(%rbp)
1000045c0: 48 89 c7                    	movq	%rax, %rdi
1000045c3: e8 f8 00 00 00              	callq	248 <__ZNSt3__122__hash_key_value_typesIiE9__get_ptrERi>
1000045c8: 48 89 45 c8                 	movq	%rax, -56(%rbp)
1000045cc: e9 00 00 00 00              	jmp	0 <__ZNSt3__112__hash_tableIiNS_4hashIiEENS_8equal_toIiEENS_9allocatorIiEEE17__deallocate_nodeEPNS_16__hash_node_baseIPNS_11__hash_nodeIiPvEEEE+0x61>
1000045d1: 48 8b 7d d0                 	movq	-48(%rbp), %rdi
1000045d5: 48 8b 75 c8                 	movq	-56(%rbp), %rsi
1000045d9: e8 b2 00 00 00              	callq	178 <__ZNSt3__116allocator_traitsINS_9allocatorINS_11__hash_nodeIiPvEEEEE7destroyIiEEvRS5_PT_>
1000045de: e9 00 00 00 00              	jmp	0 <__ZNSt3__112__hash_tableIiNS_4hashIiEENS_8equal_toIiEENS_9allocatorIiEEE17__deallocate_nodeEPNS_16__hash_node_baseIPNS_11__hash_nodeIiPvEEEE+0x73>
1000045e3: 48 8b 7d e8                 	movq	-24(%rbp), %rdi
1000045e7: 48 8b 75 d8                 	movq	-40(%rbp), %rsi
1000045eb: ba 01 00 00 00              	movl	$1, %edx
1000045f0: e8 eb 00 00 00              	callq	235 <__ZNSt3__116allocator_traitsINS_9allocatorINS_11__hash_nodeIiPvEEEEE10deallocateERS5_PS4_m>
1000045f5: 48 8b 45 e0                 	movq	-32(%rbp), %rax
1000045f9: 48 89 45 f0                 	movq	%rax, -16(%rbp)
1000045fd: e9 8b ff ff ff              	jmp	-117 <__ZNSt3__112__hash_tableIiNS_4hashIiEENS_8equal_toIiEENS_9allocatorIiEEE17__deallocate_nodeEPNS_16__hash_node_baseIPNS_11__hash_nodeIiPvEEEE+0x1d>
100004602: 48 83 c4 40                 	addq	$64, %rsp
100004606: 5d                          	popq	%rbp
100004607: c3                          	retq
100004608: 48 89 c7                    	movq	%rax, %rdi
10000460b: 48 89 55 c0                 	movq	%rdx, -64(%rbp)
10000460f: e8 cc f6 ff ff              	callq	-2356 <___clang_call_terminate>
100004614: 66 2e 0f 1f 84 00 00 00 00 00       	nopw	%cs:(%rax,%rax)
10000461e: 66 90                       	nop

0000000100004620 __ZNSt3__117__compressed_pairINS_16__hash_node_baseIPNS_11__hash_nodeIiPvEEEENS_9allocatorIS4_EEE5firstEv:
100004620: 55                          	pushq	%rbp
100004621: 48 89 e5                    	movq	%rsp, %rbp
100004624: 48 83 ec 10                 	subq	$16, %rsp
100004628: 48 89 7d f8                 	movq	%rdi, -8(%rbp)
10000462c: 48 8b 45 f8                 	movq	-8(%rbp), %rax
100004630: 48 89 c7                    	movq	%rax, %rdi
100004633: e8 a8 01 00 00              	callq	424 <__ZNSt3__122__compressed_pair_elemINS_16__hash_node_baseIPNS_11__hash_nodeIiPvEEEELi0ELb0EE5__getEv>
100004638: 48 83 c4 10                 	addq	$16, %rsp
10000463c: 5d                          	popq	%rbp
10000463d: c3                          	retq
10000463e: 66 90                       	nop

0000000100004640 __ZNSt3__112__hash_tableIiNS_4hashIiEENS_8equal_toIiEENS_9allocatorIiEEE12__node_allocEv:
100004640: 55                          	pushq	%rbp
100004641: 48 89 e5                    	movq	%rsp, %rbp
100004644: 48 83 ec 10                 	subq	$16, %rsp
100004648: 48 89 7d f8                 	movq	%rdi, -8(%rbp)
10000464c: 48 8b 45 f8                 	movq	-8(%rbp), %rax
100004650: 48 05 10 00 00 00           	addq	$16, %rax
100004656: 48 89 c7                    	movq	%rax, %rdi
100004659: e8 b2 00 00 00              	callq	178 <__ZNSt3__117__compressed_pairINS_16__hash_node_baseIPNS_11__hash_nodeIiPvEEEENS_9allocatorIS4_EEE6secondEv>
10000465e: 48 83 c4 10                 	addq	$16, %rsp
100004662: 5d                          	popq	%rbp
100004663: c3                          	retq
100004664: 66 2e 0f 1f 84 00 00 00 00 00       	nopw	%cs:(%rax,%rax)
10000466e: 66 90                       	nop

0000000100004670 __ZNSt3__116__hash_node_baseIPNS_11__hash_nodeIiPvEEE8__upcastEv:
100004670: 55                          	pushq	%rbp
100004671: 48 89 e5                    	movq	%rsp, %rbp
100004674: 48 83 ec 10                 	subq	$16, %rsp
100004678: 48 89 7d f8                 	movq	%rdi, -8(%rbp)
10000467c: 48 8b 7d f8                 	movq	-8(%rbp), %rdi
100004680: e8 bb 00 00 00              	callq	187 <__ZNSt3__114pointer_traitsIPNS_16__hash_node_baseIPNS_11__hash_nodeIiPvEEEEE10pointer_toERS6_>
100004685: 48 83 c4 10                 	addq	$16, %rsp
100004689: 5d                          	popq	%rbp
10000468a: c3                          	retq
10000468b: 0f 1f 44 00 00              	nopl	(%rax,%rax)

0000000100004690 __ZNSt3__116allocator_traitsINS_9allocatorINS_11__hash_nodeIiPvEEEEE7destroyIiEEvRS5_PT_:
100004690: 55                          	pushq	%rbp
100004691: 48 89 e5                    	movq	%rsp, %rbp
100004694: 48 83 ec 20                 	subq	$32, %rsp
100004698: 48 89 7d f8                 	movq	%rdi, -8(%rbp)
10000469c: 48 89 75 f0                 	movq	%rsi, -16(%rbp)
1000046a0: 48 8b 7d f8                 	movq	-8(%rbp), %rdi
1000046a4: 48 8b 75 f0                 	movq	-16(%rbp), %rsi
1000046a8: e8 c3 00 00 00              	callq	195 <__ZNSt3__116allocator_traitsINS_9allocatorINS_11__hash_nodeIiPvEEEEE9__destroyIiEEvNS_17integral_constantIbLb0EEERS5_PT_>
1000046ad: 48 83 c4 20                 	addq	$32, %rsp
1000046b1: 5d                          	popq	%rbp
1000046b2: c3                          	retq
1000046b3: 66 2e 0f 1f 84 00 00 00 00 00       	nopw	%cs:(%rax,%rax)
1000046bd: 0f 1f 00                    	nopl	(%rax)

00000001000046c0 __ZNSt3__122__hash_key_value_typesIiE9__get_ptrERi:
1000046c0: 55                          	pushq	%rbp
1000046c1: 48 89 e5                    	movq	%rsp, %rbp
1000046c4: 48 83 ec 10                 	subq	$16, %rsp
1000046c8: 48 89 7d f8                 	movq	%rdi, -8(%rbp)
1000046cc: 48 8b 7d f8                 	movq	-8(%rbp), %rdi
1000046d0: e8 ab 00 00 00              	callq	171 <__ZNSt3__1L9addressofIiEEPT_RS1_>
1000046d5: 48 83 c4 10                 	addq	$16, %rsp
1000046d9: 5d                          	popq	%rbp
1000046da: c3                          	retq
1000046db: 0f 1f 44 00 00              	nopl	(%rax,%rax)

00000001000046e0 __ZNSt3__116allocator_traitsINS_9allocatorINS_11__hash_nodeIiPvEEEEE10deallocateERS5_PS4_m:
1000046e0: 55                          	pushq	%rbp
1000046e1: 48 89 e5                    	movq	%rsp, %rbp
1000046e4: 48 83 ec 20                 	subq	$32, %rsp
1000046e8: 48 89 7d f8                 	movq	%rdi, -8(%rbp)
1000046ec: 48 89 75 f0                 	movq	%rsi, -16(%rbp)
1000046f0: 48 89 55 e8                 	movq	%rdx, -24(%rbp)
1000046f4: 48 8b 7d f8                 	movq	-8(%rbp), %rdi
1000046f8: 48 8b 75 f0                 	movq	-16(%rbp), %rsi
1000046fc: 48 8b 55 e8                 	movq	-24(%rbp), %rdx
100004700: e8 8b 00 00 00              	callq	139 <__ZNSt3__19allocatorINS_11__hash_nodeIiPvEEE10deallocateEPS3_m>
100004705: 48 83 c4 20                 	addq	$32, %rsp
100004709: 5d                          	popq	%rbp
10000470a: c3                          	retq
10000470b: 0f 1f 44 00 00              	nopl	(%rax,%rax)

0000000100004710 __ZNSt3__117__compressed_pairINS_16__hash_node_baseIPNS_11__hash_nodeIiPvEEEENS_9allocatorIS4_EEE6secondEv:
100004710: 55                          	pushq	%rbp
100004711: 48 89 e5                    	movq	%rsp, %rbp
100004714: 48 83 ec 10                 	subq	$16, %rsp
100004718: 48 89 7d f8                 	movq	%rdi, -8(%rbp)
10000471c: 48 8b 45 f8                 	movq	-8(%rbp), %rax
100004720: 48 89 c7                    	movq	%rax, %rdi
100004723: e8 08 00 00 00              	callq	8 <__ZNSt3__122__compressed_pair_elemINS_9allocatorINS_11__hash_nodeIiPvEEEELi1ELb1EE5__getEv>
100004728: 48 83 c4 10                 	addq	$16, %rsp
10000472c: 5d                          	popq	%rbp
10000472d: c3                          	retq
10000472e: 66 90                       	nop

0000000100004730 __ZNSt3__122__compressed_pair_elemINS_9allocatorINS_11__hash_nodeIiPvEEEELi1ELb1EE5__getEv:
100004730: 55                          	pushq	%rbp
100004731: 48 89 e5                    	movq	%rsp, %rbp
100004734: 48 89 7d f8                 	movq	%rdi, -8(%rbp)
100004738: 48 8b 45 f8                 	movq	-8(%rbp), %rax
10000473c: 5d                          	popq	%rbp
10000473d: c3                          	retq
10000473e: 66 90                       	nop

0000000100004740 __ZNSt3__114pointer_traitsIPNS_16__hash_node_baseIPNS_11__hash_nodeIiPvEEEEE10pointer_toERS6_:
100004740: 55                          	pushq	%rbp
100004741: 48 89 e5                    	movq	%rsp, %rbp
100004744: 48 83 ec 10                 	subq	$16, %rsp
100004748: 48 89 7d f8                 	movq	%rdi, -8(%rbp)
10000474c: 48 8b 7d f8                 	movq	-8(%rbp), %rdi
100004750: e8 0b 00 00 00              	callq	11 <__ZNSt3__1L9addressofINS_16__hash_node_baseIPNS_11__hash_nodeIiPvEEEEEEPT_RS7_>
100004755: 48 83 c4 10                 	addq	$16, %rsp
100004759: 5d                          	popq	%rbp
10000475a: c3                          	retq
10000475b: 0f 1f 44 00 00              	nopl	(%rax,%rax)

0000000100004760 __ZNSt3__1L9addressofINS_16__hash_node_baseIPNS_11__hash_nodeIiPvEEEEEEPT_RS7_:
100004760: 55                          	pushq	%rbp
100004761: 48 89 e5                    	movq	%rsp, %rbp
100004764: 48 89 7d f8                 	movq	%rdi, -8(%rbp)
100004768: 48 8b 45 f8                 	movq	-8(%rbp), %rax
10000476c: 5d                          	popq	%rbp
10000476d: c3                          	retq
10000476e: 66 90                       	nop

0000000100004770 __ZNSt3__116allocator_traitsINS_9allocatorINS_11__hash_nodeIiPvEEEEE9__destroyIiEEvNS_17integral_constantIbLb0EEERS5_PT_:
100004770: 55                          	pushq	%rbp
100004771: 48 89 e5                    	movq	%rsp, %rbp
100004774: 48 89 7d f0                 	movq	%rdi, -16(%rbp)
100004778: 48 89 75 e8                 	movq	%rsi, -24(%rbp)
10000477c: 5d                          	popq	%rbp
10000477d: c3                          	retq
10000477e: 66 90                       	nop

0000000100004780 __ZNSt3__1L9addressofIiEEPT_RS1_:
100004780: 55                          	pushq	%rbp
100004781: 48 89 e5                    	movq	%rsp, %rbp
100004784: 48 89 7d f8                 	movq	%rdi, -8(%rbp)
100004788: 48 8b 45 f8                 	movq	-8(%rbp), %rax
10000478c: 5d                          	popq	%rbp
10000478d: c3                          	retq
10000478e: 66 90                       	nop

0000000100004790 __ZNSt3__19allocatorINS_11__hash_nodeIiPvEEE10deallocateEPS3_m:
100004790: 55                          	pushq	%rbp
100004791: 48 89 e5                    	movq	%rsp, %rbp
100004794: 48 83 ec 20                 	subq	$32, %rsp
100004798: 48 89 7d f8                 	movq	%rdi, -8(%rbp)
10000479c: 48 89 75 f0                 	movq	%rsi, -16(%rbp)
1000047a0: 48 89 55 e8                 	movq	%rdx, -24(%rbp)
1000047a4: 48 8b 7d f0                 	movq	-16(%rbp), %rdi
1000047a8: 48 8b 45 e8                 	movq	-24(%rbp), %rax
1000047ac: 48 c1 e0 03                 	shlq	$3, %rax
1000047b0: 48 8d 34 40                 	leaq	(%rax,%rax,2), %rsi
1000047b4: ba 08 00 00 00              	movl	$8, %edx
1000047b9: e8 22 fc ff ff              	callq	-990 <__ZNSt3__1L19__libcpp_deallocateEPvmm>
1000047be: e9 00 00 00 00              	jmp	0 <__ZNSt3__19allocatorINS_11__hash_nodeIiPvEEE10deallocateEPS3_m+0x33>
1000047c3: 48 83 c4 20                 	addq	$32, %rsp
1000047c7: 5d                          	popq	%rbp
1000047c8: c3                          	retq
1000047c9: 48 89 c7                    	movq	%rax, %rdi
1000047cc: 48 89 55 e0                 	movq	%rdx, -32(%rbp)
1000047d0: e8 0b f5 ff ff              	callq	-2805 <___clang_call_terminate>
1000047d5: 66 2e 0f 1f 84 00 00 00 00 00       	nopw	%cs:(%rax,%rax)
1000047df: 90                          	nop

00000001000047e0 __ZNSt3__122__compressed_pair_elemINS_16__hash_node_baseIPNS_11__hash_nodeIiPvEEEELi0ELb0EE5__getEv:
1000047e0: 55                          	pushq	%rbp
1000047e1: 48 89 e5                    	movq	%rsp, %rbp
1000047e4: 48 89 7d f8                 	movq	%rdi, -8(%rbp)
1000047e8: 48 8b 45 f8                 	movq	-8(%rbp), %rax
1000047ec: 5d                          	popq	%rbp
1000047ed: c3                          	retq
1000047ee: 66 90                       	nop

00000001000047f0 __ZNSt3__16vectorIiNS_9allocatorIiEEEC2Ev:
1000047f0: 55                          	pushq	%rbp
1000047f1: 48 89 e5                    	movq	%rsp, %rbp
1000047f4: 48 83 ec 10                 	subq	$16, %rsp
1000047f8: 48 89 7d f8                 	movq	%rdi, -8(%rbp)
1000047fc: 48 8b 45 f8                 	movq	-8(%rbp), %rax
100004800: 48 89 c7                    	movq	%rax, %rdi
100004803: e8 08 00 00 00              	callq	8 <__ZNSt3__113__vector_baseIiNS_9allocatorIiEEEC2Ev>
100004808: 48 83 c4 10                 	addq	$16, %rsp
10000480c: 5d                          	popq	%rbp
10000480d: c3                          	retq
10000480e: 66 90                       	nop

0000000100004810 __ZNSt3__113__vector_baseIiNS_9allocatorIiEEEC2Ev:
100004810: 55                          	pushq	%rbp
100004811: 48 89 e5                    	movq	%rsp, %rbp
100004814: 48 83 ec 30                 	subq	$48, %rsp
100004818: 48 89 7d f8                 	movq	%rdi, -8(%rbp)
10000481c: 48 8b 45 f8                 	movq	-8(%rbp), %rax
100004820: 48 89 c7                    	movq	%rax, %rdi
100004823: 48 89 45 e0                 	movq	%rax, -32(%rbp)
100004827: e8 54 00 00 00              	callq	84 <__ZNSt3__120__vector_base_commonILb1EEC2Ev>
10000482c: e9 00 00 00 00              	jmp	0 <__ZNSt3__113__vector_baseIiNS_9allocatorIiEEEC2Ev+0x21>
100004831: 48 8b 45 e0                 	movq	-32(%rbp), %rax
100004835: 48 c7 00 00 00 00 00        	movq	$0, (%rax)
10000483c: 48 c7 40 08 00 00 00 00     	movq	$0, 8(%rax)
100004844: 48 83 c0 10                 	addq	$16, %rax
100004848: 48 c7 45 f0 00 00 00 00     	movq	$0, -16(%rbp)
100004850: 48 8d 75 f0                 	leaq	-16(%rbp), %rsi
100004854: 48 8d 55 e8                 	leaq	-24(%rbp), %rdx
100004858: 48 89 c7                    	movq	%rax, %rdi
10000485b: e8 30 00 00 00              	callq	48 <__ZNSt3__117__compressed_pairIPiNS_9allocatorIiEEEC1IDnNS_18__default_init_tagEEEOT_OT0_>
100004860: e9 00 00 00 00              	jmp	0 <__ZNSt3__113__vector_baseIiNS_9allocatorIiEEEC2Ev+0x55>
100004865: 48 83 c4 30                 	addq	$48, %rsp
100004869: 5d                          	popq	%rbp
10000486a: c3                          	retq
10000486b: 48 89 c7                    	movq	%rax, %rdi
10000486e: 48 89 55 d8                 	movq	%rdx, -40(%rbp)
100004872: e8 69 f4 ff ff              	callq	-2967 <___clang_call_terminate>
100004877: 66 0f 1f 84 00 00 00 00 00  	nopw	(%rax,%rax)

0000000100004880 __ZNSt3__120__vector_base_commonILb1EEC2Ev:
100004880: 55                          	pushq	%rbp
100004881: 48 89 e5                    	movq	%rsp, %rbp
100004884: 48 89 7d f8                 	movq	%rdi, -8(%rbp)
100004888: 5d                          	popq	%rbp
100004889: c3                          	retq
10000488a: 66 0f 1f 44 00 00           	nopw	(%rax,%rax)

0000000100004890 __ZNSt3__117__compressed_pairIPiNS_9allocatorIiEEEC1IDnNS_18__default_init_tagEEEOT_OT0_:
100004890: 55                          	pushq	%rbp
100004891: 48 89 e5                    	movq	%rsp, %rbp
100004894: 48 83 ec 20                 	subq	$32, %rsp
100004898: 48 89 7d f8                 	movq	%rdi, -8(%rbp)
10000489c: 48 89 75 f0                 	movq	%rsi, -16(%rbp)
1000048a0: 48 89 55 e8                 	movq	%rdx, -24(%rbp)
1000048a4: 48 8b 7d f8                 	movq	-8(%rbp), %rdi
1000048a8: 48 8b 75 f0                 	movq	-16(%rbp), %rsi
1000048ac: 48 8b 55 e8                 	movq	-24(%rbp), %rdx
1000048b0: e8 0b 00 00 00              	callq	11 <__ZNSt3__117__compressed_pairIPiNS_9allocatorIiEEEC2IDnNS_18__default_init_tagEEEOT_OT0_>
1000048b5: 48 83 c4 20                 	addq	$32, %rsp
1000048b9: 5d                          	popq	%rbp
1000048ba: c3                          	retq
1000048bb: 0f 1f 44 00 00              	nopl	(%rax,%rax)

00000001000048c0 __ZNSt3__117__compressed_pairIPiNS_9allocatorIiEEEC2IDnNS_18__default_init_tagEEEOT_OT0_:
1000048c0: 55                          	pushq	%rbp
1000048c1: 48 89 e5                    	movq	%rsp, %rbp
1000048c4: 48 83 ec 40                 	subq	$64, %rsp
1000048c8: 48 89 7d f8                 	movq	%rdi, -8(%rbp)
1000048cc: 48 89 75 f0                 	movq	%rsi, -16(%rbp)
1000048d0: 48 89 55 e8                 	movq	%rdx, -24(%rbp)
1000048d4: 48 8b 45 f8                 	movq	-8(%rbp), %rax
1000048d8: 48 89 c1                    	movq	%rax, %rcx
1000048db: 48 8b 7d f0                 	movq	-16(%rbp), %rdi
1000048df: 48 89 45 d8                 	movq	%rax, -40(%rbp)
1000048e3: 48 89 4d d0                 	movq	%rcx, -48(%rbp)
1000048e7: e8 34 00 00 00              	callq	52 <__ZNSt3__1L7forwardIDnEEOT_RNS_16remove_referenceIS1_E4typeE>
1000048ec: 48 8b 7d d0                 	movq	-48(%rbp), %rdi
1000048f0: 48 89 c6                    	movq	%rax, %rsi
1000048f3: e8 38 00 00 00              	callq	56 <__ZNSt3__122__compressed_pair_elemIPiLi0ELb0EEC2IDnvEEOT_>
1000048f8: 48 8b 45 d8                 	movq	-40(%rbp), %rax
1000048fc: 48 8b 7d e8                 	movq	-24(%rbp), %rdi
100004900: 48 89 45 c8                 	movq	%rax, -56(%rbp)
100004904: e8 37 f5 ff ff              	callq	-2761 <__ZNSt3__1L7forwardINS_18__default_init_tagEEEOT_RNS_16remove_referenceIS2_E4typeE>
100004909: 48 8b 7d c8                 	movq	-56(%rbp), %rdi
10000490d: 48 89 45 c0                 	movq	%rax, -64(%rbp)
100004911: e8 5a 00 00 00              	callq	90 <__ZNSt3__122__compressed_pair_elemINS_9allocatorIiEELi1ELb1EEC2ENS_18__default_init_tagE>
100004916: 48 83 c4 40                 	addq	$64, %rsp
10000491a: 5d                          	popq	%rbp
10000491b: c3                          	retq
10000491c: 0f 1f 40 00                 	nopl	(%rax)

0000000100004920 __ZNSt3__1L7forwardIDnEEOT_RNS_16remove_referenceIS1_E4typeE:
100004920: 55                          	pushq	%rbp
100004921: 48 89 e5                    	movq	%rsp, %rbp
100004924: 48 89 7d f8                 	movq	%rdi, -8(%rbp)
100004928: 48 8b 45 f8                 	movq	-8(%rbp), %rax
10000492c: 5d                          	popq	%rbp
10000492d: c3                          	retq
10000492e: 66 90                       	nop

0000000100004930 __ZNSt3__122__compressed_pair_elemIPiLi0ELb0EEC2IDnvEEOT_:
100004930: 55                          	pushq	%rbp
100004931: 48 89 e5                    	movq	%rsp, %rbp
100004934: 48 83 ec 20                 	subq	$32, %rsp
100004938: 48 89 7d f8                 	movq	%rdi, -8(%rbp)
10000493c: 48 89 75 f0                 	movq	%rsi, -16(%rbp)
100004940: 48 8b 45 f8                 	movq	-8(%rbp), %rax
100004944: 48 8b 7d f0                 	movq	-16(%rbp), %rdi
100004948: 48 89 45 e8                 	movq	%rax, -24(%rbp)
10000494c: e8 cf ff ff ff              	callq	-49 <__ZNSt3__1L7forwardIDnEEOT_RNS_16remove_referenceIS1_E4typeE>
100004951: 48 8b 4d e8                 	movq	-24(%rbp), %rcx
100004955: 48 c7 01 00 00 00 00        	movq	$0, (%rcx)
10000495c: 48 83 c4 20                 	addq	$32, %rsp
100004960: 5d                          	popq	%rbp
100004961: c3                          	retq
100004962: 66 2e 0f 1f 84 00 00 00 00 00       	nopw	%cs:(%rax,%rax)
10000496c: 0f 1f 40 00                 	nopl	(%rax)

0000000100004970 __ZNSt3__122__compressed_pair_elemINS_9allocatorIiEELi1ELb1EEC2ENS_18__default_init_tagE:
100004970: 55                          	pushq	%rbp
100004971: 48 89 e5                    	movq	%rsp, %rbp
100004974: 48 83 ec 10                 	subq	$16, %rsp
100004978: 48 89 7d f0                 	movq	%rdi, -16(%rbp)
10000497c: 48 8b 45 f0                 	movq	-16(%rbp), %rax
100004980: 48 89 c7                    	movq	%rax, %rdi
100004983: e8 08 00 00 00              	callq	8 <__ZNSt3__19allocatorIiEC2Ev>
100004988: 48 83 c4 10                 	addq	$16, %rsp
10000498c: 5d                          	popq	%rbp
10000498d: c3                          	retq
10000498e: 66 90                       	nop

0000000100004990 __ZNSt3__19allocatorIiEC2Ev:
100004990: 55                          	pushq	%rbp
100004991: 48 89 e5                    	movq	%rsp, %rbp
100004994: 48 89 7d f8                 	movq	%rdi, -8(%rbp)
100004998: 5d                          	popq	%rbp
100004999: c3                          	retq
10000499a: 66 0f 1f 44 00 00           	nopw	(%rax,%rax)

00000001000049a0 __ZNSt3__16vectorIiNS_9allocatorIiEEED2Ev:
1000049a0: 55                          	pushq	%rbp
1000049a1: 48 89 e5                    	movq	%rsp, %rbp
1000049a4: 48 83 ec 10                 	subq	$16, %rsp
1000049a8: 48 89 7d f8                 	movq	%rdi, -8(%rbp)
1000049ac: 48 8b 45 f8                 	movq	-8(%rbp), %rax
1000049b0: 48 89 c7                    	movq	%rax, %rdi
1000049b3: 48 89 45 f0                 	movq	%rax, -16(%rbp)
1000049b7: e8 14 00 00 00              	callq	20 <__ZNKSt3__16vectorIiNS_9allocatorIiEEE17__annotate_deleteEv>
1000049bc: 48 8b 45 f0                 	movq	-16(%rbp), %rax
1000049c0: 48 89 c7                    	movq	%rax, %rdi
1000049c3: e8 c8 00 00 00              	callq	200 <__ZNSt3__113__vector_baseIiNS_9allocatorIiEEED2Ev>
1000049c8: 48 83 c4 10                 	addq	$16, %rsp
1000049cc: 5d                          	popq	%rbp
1000049cd: c3                          	retq
1000049ce: 66 90                       	nop

00000001000049d0 __ZNKSt3__16vectorIiNS_9allocatorIiEEE17__annotate_deleteEv:
1000049d0: 55                          	pushq	%rbp
1000049d1: 48 89 e5                    	movq	%rsp, %rbp
1000049d4: 48 83 ec 50                 	subq	$80, %rsp
1000049d8: 48 89 7d f8                 	movq	%rdi, -8(%rbp)
1000049dc: 48 8b 45 f8                 	movq	-8(%rbp), %rax
1000049e0: 48 89 c7                    	movq	%rax, %rdi
1000049e3: 48 89 45 f0                 	movq	%rax, -16(%rbp)
1000049e7: e8 24 01 00 00              	callq	292 <__ZNKSt3__16vectorIiNS_9allocatorIiEEE4dataEv>
1000049ec: 48 8b 7d f0                 	movq	-16(%rbp), %rdi
1000049f0: 48 89 45 e8                 	movq	%rax, -24(%rbp)
1000049f4: e8 17 01 00 00              	callq	279 <__ZNKSt3__16vectorIiNS_9allocatorIiEEE4dataEv>
1000049f9: 48 8b 7d f0                 	movq	-16(%rbp), %rdi
1000049fd: 48 89 45 e0                 	movq	%rax, -32(%rbp)
100004a01: e8 2a 01 00 00              	callq	298 <__ZNKSt3__16vectorIiNS_9allocatorIiEEE8capacityEv>
100004a06: 48 c1 e0 02                 	shlq	$2, %rax
100004a0a: 48 8b 4d e0                 	movq	-32(%rbp), %rcx
100004a0e: 48 01 c1                    	addq	%rax, %rcx
100004a11: 48 8b 7d f0                 	movq	-16(%rbp), %rdi
100004a15: 48 89 4d d8                 	movq	%rcx, -40(%rbp)
100004a19: e8 f2 00 00 00              	callq	242 <__ZNKSt3__16vectorIiNS_9allocatorIiEEE4dataEv>
100004a1e: 48 8b 7d f0                 	movq	-16(%rbp), %rdi
100004a22: 48 89 45 d0                 	movq	%rax, -48(%rbp)
100004a26: e8 25 01 00 00              	callq	293 <__ZNKSt3__16vectorIiNS_9allocatorIiEEE4sizeEv>
100004a2b: 48 c1 e0 02                 	shlq	$2, %rax
100004a2f: 48 8b 4d d0                 	movq	-48(%rbp), %rcx
100004a33: 48 01 c1                    	addq	%rax, %rcx
100004a36: 48 8b 7d f0                 	movq	-16(%rbp), %rdi
100004a3a: 48 89 4d c8                 	movq	%rcx, -56(%rbp)
100004a3e: e8 cd 00 00 00              	callq	205 <__ZNKSt3__16vectorIiNS_9allocatorIiEEE4dataEv>
100004a43: 48 8b 7d f0                 	movq	-16(%rbp), %rdi
100004a47: 48 89 45 c0                 	movq	%rax, -64(%rbp)
100004a4b: e8 e0 00 00 00              	callq	224 <__ZNKSt3__16vectorIiNS_9allocatorIiEEE8capacityEv>
100004a50: 48 c1 e0 02                 	shlq	$2, %rax
100004a54: 48 8b 4d c0                 	movq	-64(%rbp), %rcx
100004a58: 48 01 c1                    	addq	%rax, %rcx
100004a5b: 48 8b 7d f0                 	movq	-16(%rbp), %rdi
100004a5f: 48 8b 75 e8                 	movq	-24(%rbp), %rsi
100004a63: 48 8b 55 d8                 	movq	-40(%rbp), %rdx
100004a67: 48 8b 45 c8                 	movq	-56(%rbp), %rax
100004a6b: 48 89 4d b8                 	movq	%rcx, -72(%rbp)
100004a6f: 48 89 c1                    	movq	%rax, %rcx
100004a72: 4c 8b 45 b8                 	movq	-72(%rbp), %r8
100004a76: e8 75 00 00 00              	callq	117 <__ZNKSt3__16vectorIiNS_9allocatorIiEEE31__annotate_contiguous_containerEPKvS5_S5_S5_>
100004a7b: 48 83 c4 50                 	addq	$80, %rsp
100004a7f: 5d                          	popq	%rbp
100004a80: c3                          	retq
100004a81: 66 2e 0f 1f 84 00 00 00 00 00       	nopw	%cs:(%rax,%rax)
100004a8b: 0f 1f 44 00 00              	nopl	(%rax,%rax)

0000000100004a90 __ZNSt3__113__vector_baseIiNS_9allocatorIiEEED2Ev:
100004a90: 55                          	pushq	%rbp
100004a91: 48 89 e5                    	movq	%rsp, %rbp
100004a94: 48 83 ec 20                 	subq	$32, %rsp
100004a98: 48 89 7d f8                 	movq	%rdi, -8(%rbp)
100004a9c: 48 8b 45 f8                 	movq	-8(%rbp), %rax
100004aa0: 48 83 38 00                 	cmpq	$0, (%rax)
100004aa4: 48 89 45 f0                 	movq	%rax, -16(%rbp)
100004aa8: 0f 84 39 00 00 00           	je	57 <__ZNSt3__113__vector_baseIiNS_9allocatorIiEEED2Ev+0x57>
100004aae: 48 8b 7d f0                 	movq	-16(%rbp), %rdi
100004ab2: e8 69 01 00 00              	callq	361 <__ZNSt3__113__vector_baseIiNS_9allocatorIiEEE5clearEv>
100004ab7: 48 8b 7d f0                 	movq	-16(%rbp), %rdi
100004abb: e8 c0 01 00 00              	callq	448 <__ZNSt3__113__vector_baseIiNS_9allocatorIiEEE7__allocEv>
100004ac0: 48 8b 4d f0                 	movq	-16(%rbp), %rcx
100004ac4: 48 8b 31                    	movq	(%rcx), %rsi
100004ac7: 48 89 cf                    	movq	%rcx, %rdi
100004aca: 48 89 45 e8                 	movq	%rax, -24(%rbp)
100004ace: 48 89 75 e0                 	movq	%rsi, -32(%rbp)
100004ad2: e8 a9 00 00 00              	callq	169 <__ZNKSt3__113__vector_baseIiNS_9allocatorIiEEE8capacityEv>
100004ad7: 48 8b 7d e8                 	movq	-24(%rbp), %rdi
100004adb: 48 8b 75 e0                 	movq	-32(%rbp), %rsi
100004adf: 48 89 c2                    	movq	%rax, %rdx
100004ae2: e8 69 01 00 00              	callq	361 <__ZNSt3__116allocator_traitsINS_9allocatorIiEEE10deallocateERS2_Pim>
100004ae7: 48 83 c4 20                 	addq	$32, %rsp
100004aeb: 5d                          	popq	%rbp
100004aec: c3                          	retq
100004aed: 0f 1f 00                    	nopl	(%rax)

0000000100004af0 __ZNKSt3__16vectorIiNS_9allocatorIiEEE31__annotate_contiguous_containerEPKvS5_S5_S5_:
100004af0: 55                          	pushq	%rbp
100004af1: 48 89 e5                    	movq	%rsp, %rbp
100004af4: 48 89 7d f8                 	movq	%rdi, -8(%rbp)
100004af8: 48 89 75 f0                 	movq	%rsi, -16(%rbp)
100004afc: 48 89 55 e8                 	movq	%rdx, -24(%rbp)
100004b00: 48 89 4d e0                 	movq	%rcx, -32(%rbp)
100004b04: 4c 89 45 d8                 	movq	%r8, -40(%rbp)
100004b08: 5d                          	popq	%rbp
100004b09: c3                          	retq
100004b0a: 66 0f 1f 44 00 00           	nopw	(%rax,%rax)

0000000100004b10 __ZNKSt3__16vectorIiNS_9allocatorIiEEE4dataEv:
100004b10: 55                          	pushq	%rbp
100004b11: 48 89 e5                    	movq	%rsp, %rbp
100004b14: 48 83 ec 10                 	subq	$16, %rsp
100004b18: 48 89 7d f8                 	movq	%rdi, -8(%rbp)
100004b1c: 48 8b 45 f8                 	movq	-8(%rbp), %rax
100004b20: 48 8b 38                    	movq	(%rax), %rdi
100004b23: e8 48 00 00 00              	callq	72 <__ZNSt3__1L12__to_addressIiEEPT_S2_>
100004b28: 48 83 c4 10                 	addq	$16, %rsp
100004b2c: 5d                          	popq	%rbp
100004b2d: c3                          	retq
100004b2e: 66 90                       	nop

0000000100004b30 __ZNKSt3__16vectorIiNS_9allocatorIiEEE8capacityEv:
100004b30: 55                          	pushq	%rbp
100004b31: 48 89 e5                    	movq	%rsp, %rbp
100004b34: 48 83 ec 10                 	subq	$16, %rsp
100004b38: 48 89 7d f8                 	movq	%rdi, -8(%rbp)
100004b3c: 48 8b 45 f8                 	movq	-8(%rbp), %rax
100004b40: 48 89 c7                    	movq	%rax, %rdi
100004b43: e8 38 00 00 00              	callq	56 <__ZNKSt3__113__vector_baseIiNS_9allocatorIiEEE8capacityEv>
100004b48: 48 83 c4 10                 	addq	$16, %rsp
100004b4c: 5d                          	popq	%rbp
100004b4d: c3                          	retq
100004b4e: 66 90                       	nop

0000000100004b50 __ZNKSt3__16vectorIiNS_9allocatorIiEEE4sizeEv:
100004b50: 55                          	pushq	%rbp
100004b51: 48 89 e5                    	movq	%rsp, %rbp
100004b54: 48 89 7d f8                 	movq	%rdi, -8(%rbp)
100004b58: 48 8b 45 f8                 	movq	-8(%rbp), %rax
100004b5c: 48 8b 48 08                 	movq	8(%rax), %rcx
100004b60: 48 8b 00                    	movq	(%rax), %rax
100004b63: 48 29 c1                    	subq	%rax, %rcx
100004b66: 48 c1 f9 02                 	sarq	$2, %rcx
100004b6a: 48 89 c8                    	movq	%rcx, %rax
100004b6d: 5d                          	popq	%rbp
100004b6e: c3                          	retq
100004b6f: 90                          	nop

0000000100004b70 __ZNSt3__1L12__to_addressIiEEPT_S2_:
100004b70: 55                          	pushq	%rbp
100004b71: 48 89 e5                    	movq	%rsp, %rbp
100004b74: 48 89 7d f8                 	movq	%rdi, -8(%rbp)
100004b78: 48 8b 45 f8                 	movq	-8(%rbp), %rax
100004b7c: 5d                          	popq	%rbp
100004b7d: c3                          	retq
100004b7e: 66 90                       	nop

0000000100004b80 __ZNKSt3__113__vector_baseIiNS_9allocatorIiEEE8capacityEv:
100004b80: 55                          	pushq	%rbp
100004b81: 48 89 e5                    	movq	%rsp, %rbp
100004b84: 48 83 ec 10                 	subq	$16, %rsp
100004b88: 48 89 7d f8                 	movq	%rdi, -8(%rbp)
100004b8c: 48 8b 45 f8                 	movq	-8(%rbp), %rax
100004b90: 48 89 c7                    	movq	%rax, %rdi
100004b93: 48 89 45 f0                 	movq	%rax, -16(%rbp)
100004b97: e8 24 00 00 00              	callq	36 <__ZNKSt3__113__vector_baseIiNS_9allocatorIiEEE9__end_capEv>
100004b9c: 48 8b 00                    	movq	(%rax), %rax
100004b9f: 48 8b 4d f0                 	movq	-16(%rbp), %rcx
100004ba3: 48 8b 11                    	movq	(%rcx), %rdx
100004ba6: 48 29 d0                    	subq	%rdx, %rax
100004ba9: 48 c1 f8 02                 	sarq	$2, %rax
100004bad: 48 83 c4 10                 	addq	$16, %rsp
100004bb1: 5d                          	popq	%rbp
100004bb2: c3                          	retq
100004bb3: 66 2e 0f 1f 84 00 00 00 00 00       	nopw	%cs:(%rax,%rax)
100004bbd: 0f 1f 00                    	nopl	(%rax)

0000000100004bc0 __ZNKSt3__113__vector_baseIiNS_9allocatorIiEEE9__end_capEv:
100004bc0: 55                          	pushq	%rbp
100004bc1: 48 89 e5                    	movq	%rsp, %rbp
100004bc4: 48 83 ec 10                 	subq	$16, %rsp
100004bc8: 48 89 7d f8                 	movq	%rdi, -8(%rbp)
100004bcc: 48 8b 45 f8                 	movq	-8(%rbp), %rax
100004bd0: 48 05 10 00 00 00           	addq	$16, %rax
100004bd6: 48 89 c7                    	movq	%rax, %rdi
100004bd9: e8 12 00 00 00              	callq	18 <__ZNKSt3__117__compressed_pairIPiNS_9allocatorIiEEE5firstEv>
100004bde: 48 83 c4 10                 	addq	$16, %rsp
100004be2: 5d                          	popq	%rbp
100004be3: c3                          	retq
100004be4: 66 2e 0f 1f 84 00 00 00 00 00       	nopw	%cs:(%rax,%rax)
100004bee: 66 90                       	nop

0000000100004bf0 __ZNKSt3__117__compressed_pairIPiNS_9allocatorIiEEE5firstEv:
100004bf0: 55                          	pushq	%rbp
100004bf1: 48 89 e5                    	movq	%rsp, %rbp
100004bf4: 48 83 ec 10                 	subq	$16, %rsp
100004bf8: 48 89 7d f8                 	movq	%rdi, -8(%rbp)
100004bfc: 48 8b 45 f8                 	movq	-8(%rbp), %rax
100004c00: 48 89 c7                    	movq	%rax, %rdi
100004c03: e8 08 00 00 00              	callq	8 <__ZNKSt3__122__compressed_pair_elemIPiLi0ELb0EE5__getEv>
100004c08: 48 83 c4 10                 	addq	$16, %rsp
100004c0c: 5d                          	popq	%rbp
100004c0d: c3                          	retq
100004c0e: 66 90                       	nop

0000000100004c10 __ZNKSt3__122__compressed_pair_elemIPiLi0ELb0EE5__getEv:
100004c10: 55                          	pushq	%rbp
100004c11: 48 89 e5                    	movq	%rsp, %rbp
100004c14: 48 89 7d f8                 	movq	%rdi, -8(%rbp)
100004c18: 48 8b 45 f8                 	movq	-8(%rbp), %rax
100004c1c: 5d                          	popq	%rbp
100004c1d: c3                          	retq
100004c1e: 66 90                       	nop

0000000100004c20 __ZNSt3__113__vector_baseIiNS_9allocatorIiEEE5clearEv:
100004c20: 55                          	pushq	%rbp
100004c21: 48 89 e5                    	movq	%rsp, %rbp
100004c24: 48 83 ec 10                 	subq	$16, %rsp
100004c28: 48 89 7d f8                 	movq	%rdi, -8(%rbp)
100004c2c: 48 8b 45 f8                 	movq	-8(%rbp), %rax
100004c30: 48 8b 30                    	movq	(%rax), %rsi
100004c33: 48 89 c7                    	movq	%rax, %rdi
100004c36: e8 75 00 00 00              	callq	117 <__ZNSt3__113__vector_baseIiNS_9allocatorIiEEE17__destruct_at_endEPi>
100004c3b: 48 83 c4 10                 	addq	$16, %rsp
100004c3f: 5d                          	popq	%rbp
100004c40: c3                          	retq
100004c41: 66 2e 0f 1f 84 00 00 00 00 00       	nopw	%cs:(%rax,%rax)
100004c4b: 0f 1f 44 00 00              	nopl	(%rax,%rax)

0000000100004c50 __ZNSt3__116allocator_traitsINS_9allocatorIiEEE10deallocateERS2_Pim:
100004c50: 55                          	pushq	%rbp
100004c51: 48 89 e5                    	movq	%rsp, %rbp
100004c54: 48 83 ec 20                 	subq	$32, %rsp
100004c58: 48 89 7d f8                 	movq	%rdi, -8(%rbp)
100004c5c: 48 89 75 f0                 	movq	%rsi, -16(%rbp)
100004c60: 48 89 55 e8                 	movq	%rdx, -24(%rbp)
100004c64: 48 8b 7d f8                 	movq	-8(%rbp), %rdi
100004c68: 48 8b 75 f0                 	movq	-16(%rbp), %rsi
100004c6c: 48 8b 55 e8                 	movq	-24(%rbp), %rdx
100004c70: e8 3b 01 00 00              	callq	315 <__ZNSt3__19allocatorIiE10deallocateEPim>
100004c75: 48 83 c4 20                 	addq	$32, %rsp
100004c79: 5d                          	popq	%rbp
100004c7a: c3                          	retq
100004c7b: 0f 1f 44 00 00              	nopl	(%rax,%rax)

0000000100004c80 __ZNSt3__113__vector_baseIiNS_9allocatorIiEEE7__allocEv:
100004c80: 55                          	pushq	%rbp
100004c81: 48 89 e5                    	movq	%rsp, %rbp
100004c84: 48 83 ec 10                 	subq	$16, %rsp
100004c88: 48 89 7d f8                 	movq	%rdi, -8(%rbp)
100004c8c: 48 8b 45 f8                 	movq	-8(%rbp), %rax
100004c90: 48 05 10 00 00 00           	addq	$16, %rax
100004c96: 48 89 c7                    	movq	%rax, %rdi
100004c99: e8 62 01 00 00              	callq	354 <__ZNSt3__117__compressed_pairIPiNS_9allocatorIiEEE6secondEv>
100004c9e: 48 83 c4 10                 	addq	$16, %rsp
100004ca2: 5d                          	popq	%rbp
100004ca3: c3                          	retq
100004ca4: 66 2e 0f 1f 84 00 00 00 00 00       	nopw	%cs:(%rax,%rax)
100004cae: 66 90                       	nop

0000000100004cb0 __ZNSt3__113__vector_baseIiNS_9allocatorIiEEE17__destruct_at_endEPi:
100004cb0: 55                          	pushq	%rbp
100004cb1: 48 89 e5                    	movq	%rsp, %rbp
100004cb4: 48 83 ec 30                 	subq	$48, %rsp
100004cb8: 48 89 7d f8                 	movq	%rdi, -8(%rbp)
100004cbc: 48 89 75 f0                 	movq	%rsi, -16(%rbp)
100004cc0: 48 8b 45 f8                 	movq	-8(%rbp), %rax
100004cc4: 48 8b 48 08                 	movq	8(%rax), %rcx
100004cc8: 48 89 4d e8                 	movq	%rcx, -24(%rbp)
100004ccc: 48 89 45 e0                 	movq	%rax, -32(%rbp)
100004cd0: 48 8b 45 f0                 	movq	-16(%rbp), %rax
100004cd4: 48 3b 45 e8                 	cmpq	-24(%rbp), %rax
100004cd8: 0f 84 37 00 00 00           	je	55 <__ZNSt3__113__vector_baseIiNS_9allocatorIiEEE17__destruct_at_endEPi+0x65>
100004cde: 48 8b 7d e0                 	movq	-32(%rbp), %rdi
100004ce2: e8 99 ff ff ff              	callq	-103 <__ZNSt3__113__vector_baseIiNS_9allocatorIiEEE7__allocEv>
100004ce7: 48 8b 4d e8                 	movq	-24(%rbp), %rcx
100004ceb: 48 83 c1 fc                 	addq	$-4, %rcx
100004cef: 48 89 4d e8                 	movq	%rcx, -24(%rbp)
100004cf3: 48 89 cf                    	movq	%rcx, %rdi
100004cf6: 48 89 45 d8                 	movq	%rax, -40(%rbp)
100004cfa: e8 71 fe ff ff              	callq	-399 <__ZNSt3__1L12__to_addressIiEEPT_S2_>
100004cff: 48 8b 7d d8                 	movq	-40(%rbp), %rdi
100004d03: 48 89 c6                    	movq	%rax, %rsi
100004d06: e8 35 00 00 00              	callq	53 <__ZNSt3__116allocator_traitsINS_9allocatorIiEEE7destroyIiEEvRS2_PT_>
100004d0b: e9 00 00 00 00              	jmp	0 <__ZNSt3__113__vector_baseIiNS_9allocatorIiEEE17__destruct_at_endEPi+0x60>
100004d10: e9 bb ff ff ff              	jmp	-69 <__ZNSt3__113__vector_baseIiNS_9allocatorIiEEE17__destruct_at_endEPi+0x20>
100004d15: 48 8b 45 f0                 	movq	-16(%rbp), %rax
100004d19: 48 8b 4d e0                 	movq	-32(%rbp), %rcx
100004d1d: 48 89 41 08                 	movq	%rax, 8(%rcx)
100004d21: 48 83 c4 30                 	addq	$48, %rsp
100004d25: 5d                          	popq	%rbp
100004d26: c3                          	retq
100004d27: 48 89 c7                    	movq	%rax, %rdi
100004d2a: 48 89 55 d0                 	movq	%rdx, -48(%rbp)
100004d2e: e8 ad ef ff ff              	callq	-4179 <___clang_call_terminate>
100004d33: 66 2e 0f 1f 84 00 00 00 00 00       	nopw	%cs:(%rax,%rax)
100004d3d: 0f 1f 00                    	nopl	(%rax)

0000000100004d40 __ZNSt3__116allocator_traitsINS_9allocatorIiEEE7destroyIiEEvRS2_PT_:
100004d40: 55                          	pushq	%rbp
100004d41: 48 89 e5                    	movq	%rsp, %rbp
100004d44: 48 83 ec 20                 	subq	$32, %rsp
100004d48: 48 89 7d f8                 	movq	%rdi, -8(%rbp)
100004d4c: 48 89 75 f0                 	movq	%rsi, -16(%rbp)
100004d50: 48 8b 7d f8                 	movq	-8(%rbp), %rdi
100004d54: 48 8b 75 f0                 	movq	-16(%rbp), %rsi
100004d58: e8 13 00 00 00              	callq	19 <__ZNSt3__116allocator_traitsINS_9allocatorIiEEE9__destroyIiEEvNS_17integral_constantIbLb1EEERS2_PT_>
100004d5d: 48 83 c4 20                 	addq	$32, %rsp
100004d61: 5d                          	popq	%rbp
100004d62: c3                          	retq
100004d63: 66 2e 0f 1f 84 00 00 00 00 00       	nopw	%cs:(%rax,%rax)
100004d6d: 0f 1f 00                    	nopl	(%rax)

0000000100004d70 __ZNSt3__116allocator_traitsINS_9allocatorIiEEE9__destroyIiEEvNS_17integral_constantIbLb1EEERS2_PT_:
100004d70: 55                          	pushq	%rbp
100004d71: 48 89 e5                    	movq	%rsp, %rbp
100004d74: 48 83 ec 20                 	subq	$32, %rsp
100004d78: 48 89 7d f0                 	movq	%rdi, -16(%rbp)
100004d7c: 48 89 75 e8                 	movq	%rsi, -24(%rbp)
100004d80: 48 8b 7d f0                 	movq	-16(%rbp), %rdi
100004d84: 48 8b 75 e8                 	movq	-24(%rbp), %rsi
100004d88: e8 13 00 00 00              	callq	19 <__ZNSt3__19allocatorIiE7destroyEPi>
100004d8d: 48 83 c4 20                 	addq	$32, %rsp
100004d91: 5d                          	popq	%rbp
100004d92: c3                          	retq
100004d93: 66 2e 0f 1f 84 00 00 00 00 00       	nopw	%cs:(%rax,%rax)
100004d9d: 0f 1f 00                    	nopl	(%rax)

0000000100004da0 __ZNSt3__19allocatorIiE7destroyEPi:
100004da0: 55                          	pushq	%rbp
100004da1: 48 89 e5                    	movq	%rsp, %rbp
100004da4: 48 89 7d f8                 	movq	%rdi, -8(%rbp)
100004da8: 48 89 75 f0                 	movq	%rsi, -16(%rbp)
100004dac: 5d                          	popq	%rbp
100004dad: c3                          	retq
100004dae: 66 90                       	nop

0000000100004db0 __ZNSt3__19allocatorIiE10deallocateEPim:
100004db0: 55                          	pushq	%rbp
100004db1: 48 89 e5                    	movq	%rsp, %rbp
100004db4: 48 83 ec 20                 	subq	$32, %rsp
100004db8: 48 89 7d f8                 	movq	%rdi, -8(%rbp)
100004dbc: 48 89 75 f0                 	movq	%rsi, -16(%rbp)
100004dc0: 48 89 55 e8                 	movq	%rdx, -24(%rbp)
100004dc4: 48 8b 7d f0                 	movq	-16(%rbp), %rdi
100004dc8: 48 8b 45 e8                 	movq	-24(%rbp), %rax
100004dcc: 48 c1 e0 02                 	shlq	$2, %rax
100004dd0: ba 04 00 00 00              	movl	$4, %edx
100004dd5: 48 89 c6                    	movq	%rax, %rsi
100004dd8: e8 03 f6 ff ff              	callq	-2557 <__ZNSt3__1L19__libcpp_deallocateEPvmm>
100004ddd: e9 00 00 00 00              	jmp	0 <__ZNSt3__19allocatorIiE10deallocateEPim+0x32>
100004de2: 48 83 c4 20                 	addq	$32, %rsp
100004de6: 5d                          	popq	%rbp
100004de7: c3                          	retq
100004de8: 48 89 c7                    	movq	%rax, %rdi
100004deb: 48 89 55 e0                 	movq	%rdx, -32(%rbp)
100004def: e8 ec ee ff ff              	callq	-4372 <___clang_call_terminate>
100004df4: 66 2e 0f 1f 84 00 00 00 00 00       	nopw	%cs:(%rax,%rax)
100004dfe: 66 90                       	nop

0000000100004e00 __ZNSt3__117__compressed_pairIPiNS_9allocatorIiEEE6secondEv:
100004e00: 55                          	pushq	%rbp
100004e01: 48 89 e5                    	movq	%rsp, %rbp
100004e04: 48 83 ec 10                 	subq	$16, %rsp
100004e08: 48 89 7d f8                 	movq	%rdi, -8(%rbp)
100004e0c: 48 8b 45 f8                 	movq	-8(%rbp), %rax
100004e10: 48 89 c7                    	movq	%rax, %rdi
100004e13: e8 08 00 00 00              	callq	8 <__ZNSt3__122__compressed_pair_elemINS_9allocatorIiEELi1ELb1EE5__getEv>
100004e18: 48 83 c4 10                 	addq	$16, %rsp
100004e1c: 5d                          	popq	%rbp
100004e1d: c3                          	retq
100004e1e: 66 90                       	nop

0000000100004e20 __ZNSt3__122__compressed_pair_elemINS_9allocatorIiEELi1ELb1EE5__getEv:
100004e20: 55                          	pushq	%rbp
100004e21: 48 89 e5                    	movq	%rsp, %rbp
100004e24: 48 89 7d f8                 	movq	%rdi, -8(%rbp)
100004e28: 48 8b 45 f8                 	movq	-8(%rbp), %rax
100004e2c: 5d                          	popq	%rbp
100004e2d: c3                          	retq
100004e2e: 66 90                       	nop

0000000100004e30 __ZNSt3__112__hash_tableIiNS_4hashIiEENS_8equal_toIiEENS_9allocatorIiEEE15__insert_uniqueERKi:
100004e30: 55                          	pushq	%rbp
100004e31: 48 89 e5                    	movq	%rsp, %rbp
100004e34: 48 83 ec 30                 	subq	$48, %rsp
100004e38: 48 89 7d e8                 	movq	%rdi, -24(%rbp)
100004e3c: 48 89 75 e0                 	movq	%rsi, -32(%rbp)
100004e40: 48 8b 7d e8                 	movq	-24(%rbp), %rdi
100004e44: 48 8b 45 e0                 	movq	-32(%rbp), %rax
100004e48: 48 89 7d d8                 	movq	%rdi, -40(%rbp)
100004e4c: 48 89 c7                    	movq	%rax, %rdi
100004e4f: e8 bc 06 00 00              	callq	1724 <__ZNSt3__122__hash_key_value_typesIiE9__get_keyERKi>
100004e54: 48 8b 55 e0                 	movq	-32(%rbp), %rdx
100004e58: 48 8b 7d d8                 	movq	-40(%rbp), %rdi
100004e5c: 48 89 c6                    	movq	%rax, %rsi
100004e5f: e8 4c 00 00 00              	callq	76 <__ZNSt3__112__hash_tableIiNS_4hashIiEENS_8equal_toIiEENS_9allocatorIiEEE25__emplace_unique_key_argsIiJRKiEEENS_4pairINS_15__hash_iteratorIPNS_11__hash_nodeIiPvEEEEbEERKT_DpOT0_>
100004e64: 48 89 45 f0                 	movq	%rax, -16(%rbp)
100004e68: 88 55 f8                    	movb	%dl, -8(%rbp)
100004e6b: 48 8b 45 f0                 	movq	-16(%rbp), %rax
100004e6f: 8a 55 f8                    	movb	-8(%rbp), %dl
100004e72: 48 83 c4 30                 	addq	$48, %rsp
100004e76: 5d                          	popq	%rbp
100004e77: c3                          	retq
100004e78: 0f 1f 84 00 00 00 00 00     	nopl	(%rax,%rax)

0000000100004e80 __ZNSt3__14pairINS_21__hash_const_iteratorIPNS_11__hash_nodeIiPvEEEEbEC1INS_15__hash_iteratorIS5_EEbLb0EEEONS0_IT_T0_EE:
100004e80: 55                          	pushq	%rbp
100004e81: 48 89 e5                    	movq	%rsp, %rbp
100004e84: 48 83 ec 10                 	subq	$16, %rsp
100004e88: 48 89 7d f8                 	movq	%rdi, -8(%rbp)
100004e8c: 48 89 75 f0                 	movq	%rsi, -16(%rbp)
100004e90: 48 8b 7d f8                 	movq	-8(%rbp), %rdi
100004e94: 48 8b 75 f0                 	movq	-16(%rbp), %rsi
100004e98: e8 f3 1b 00 00              	callq	7155 <__ZNSt3__14pairINS_21__hash_const_iteratorIPNS_11__hash_nodeIiPvEEEEbEC2INS_15__hash_iteratorIS5_EEbLb0EEEONS0_IT_T0_EE>
100004e9d: 48 83 c4 10                 	addq	$16, %rsp
100004ea1: 5d                          	popq	%rbp
100004ea2: c3                          	retq
100004ea3: 66 2e 0f 1f 84 00 00 00 00 00       	nopw	%cs:(%rax,%rax)
100004ead: 0f 1f 00                    	nopl	(%rax)

0000000100004eb0 __ZNSt3__112__hash_tableIiNS_4hashIiEENS_8equal_toIiEENS_9allocatorIiEEE25__emplace_unique_key_argsIiJRKiEEENS_4pairINS_15__hash_iteratorIPNS_11__hash_nodeIiPvEEEEbEERKT_DpOT0_:
100004eb0: 55                          	pushq	%rbp
100004eb1: 48 89 e5                    	movq	%rsp, %rbp
100004eb4: 48 81 ec 60 01 00 00        	subq	$352, %rsp
100004ebb: 48 89 7d e8                 	movq	%rdi, -24(%rbp)
100004ebf: 48 89 75 e0                 	movq	%rsi, -32(%rbp)
100004ec3: 48 89 55 d8                 	movq	%rdx, -40(%rbp)
100004ec7: 48 8b 45 e8                 	movq	-24(%rbp), %rax
100004ecb: 48 89 c7                    	movq	%rax, %rdi
100004ece: 48 89 85 60 ff ff ff        	movq	%rax, -160(%rbp)
100004ed5: e8 46 06 00 00              	callq	1606 <__ZNSt3__112__hash_tableIiNS_4hashIiEENS_8equal_toIiEENS_9allocatorIiEEE13hash_functionEv>
100004eda: 48 8b 4d e0                 	movq	-32(%rbp), %rcx
100004ede: 8b 31                       	movl	(%rcx), %esi
100004ee0: 48 89 c7                    	movq	%rax, %rdi
100004ee3: e8 68 06 00 00              	callq	1640 <__ZNKSt3__14hashIiEclEi>
100004ee8: 48 89 45 d0                 	movq	%rax, -48(%rbp)
100004eec: 48 8b bd 60 ff ff ff        	movq	-160(%rbp), %rdi
100004ef3: e8 78 06 00 00              	callq	1656 <__ZNKSt3__112__hash_tableIiNS_4hashIiEENS_8equal_toIiEENS_9allocatorIiEEE12bucket_countEv>
100004ef8: 48 89 45 c8                 	movq	%rax, -56(%rbp)
100004efc: c6 45 c7 00                 	movb	$0, -57(%rbp)
100004f00: 48 83 7d c8 00              	cmpq	$0, -56(%rbp)
100004f05: 0f 84 13 01 00 00           	je	275 <__ZNSt3__112__hash_tableIiNS_4hashIiEENS_8equal_toIiEENS_9allocatorIiEEE25__emplace_unique_key_argsIiJRKiEEENS_4pairINS_15__hash_iteratorIPNS_11__hash_nodeIiPvEEEEbEERKT_DpOT0_+0x16e>
100004f0b: 48 8b 7d d0                 	movq	-48(%rbp), %rdi
100004f0f: 48 8b 75 c8                 	movq	-56(%rbp), %rsi
100004f13: e8 88 06 00 00              	callq	1672 <__ZNSt3__1L16__constrain_hashEmm>
100004f18: 48 89 45 b0                 	movq	%rax, -80(%rbp)
100004f1c: 48 8b 75 b0                 	movq	-80(%rbp), %rsi
100004f20: 48 8b bd 60 ff ff ff        	movq	-160(%rbp), %rdi
100004f27: e8 f4 06 00 00              	callq	1780 <__ZNKSt3__110unique_ptrIA_PNS_16__hash_node_baseIPNS_11__hash_nodeIiPvEEEENS_25__bucket_list_deallocatorINS_9allocatorIS7_EEEEEixEm>
100004f2c: 48 8b 00                    	movq	(%rax), %rax
100004f2f: 48 89 45 b8                 	movq	%rax, -72(%rbp)
100004f33: 48 83 7d b8 00              	cmpq	$0, -72(%rbp)
100004f38: 0f 84 db 00 00 00           	je	219 <__ZNSt3__112__hash_tableIiNS_4hashIiEENS_8equal_toIiEENS_9allocatorIiEEE25__emplace_unique_key_argsIiJRKiEEENS_4pairINS_15__hash_iteratorIPNS_11__hash_nodeIiPvEEEEbEERKT_DpOT0_+0x169>
100004f3e: 48 8b 45 b8                 	movq	-72(%rbp), %rax
100004f42: 48 8b 00                    	movq	(%rax), %rax
100004f45: 48 89 45 b8                 	movq	%rax, -72(%rbp)
100004f49: 31 c0                       	xorl	%eax, %eax
100004f4b: 48 83 7d b8 00              	cmpq	$0, -72(%rbp)
100004f50: 88 85 5f ff ff ff           	movb	%al, -161(%rbp)
100004f56: 0f 84 49 00 00 00           	je	73 <__ZNSt3__112__hash_tableIiNS_4hashIiEENS_8equal_toIiEENS_9allocatorIiEEE25__emplace_unique_key_argsIiJRKiEEENS_4pairINS_15__hash_iteratorIPNS_11__hash_nodeIiPvEEEEbEERKT_DpOT0_+0xf5>
100004f5c: 48 8b 7d b8                 	movq	-72(%rbp), %rdi
100004f60: e8 eb 06 00 00              	callq	1771 <__ZNKSt3__116__hash_node_baseIPNS_11__hash_nodeIiPvEEE6__hashEv>
100004f65: 48 3b 45 d0                 	cmpq	-48(%rbp), %rax
100004f69: b1 01                       	movb	$1, %cl
100004f6b: 88 8d 5e ff ff ff           	movb	%cl, -162(%rbp)
100004f71: 0f 84 22 00 00 00           	je	34 <__ZNSt3__112__hash_tableIiNS_4hashIiEENS_8equal_toIiEENS_9allocatorIiEEE25__emplace_unique_key_argsIiJRKiEEENS_4pairINS_15__hash_iteratorIPNS_11__hash_nodeIiPvEEEEbEERKT_DpOT0_+0xe9>
100004f77: 48 8b 7d b8                 	movq	-72(%rbp), %rdi
100004f7b: e8 d0 06 00 00              	callq	1744 <__ZNKSt3__116__hash_node_baseIPNS_11__hash_nodeIiPvEEE6__hashEv>
100004f80: 48 8b 75 c8                 	movq	-56(%rbp), %rsi
100004f84: 48 89 c7                    	movq	%rax, %rdi
100004f87: e8 14 06 00 00              	callq	1556 <__ZNSt3__1L16__constrain_hashEmm>
100004f8c: 48 3b 45 b0                 	cmpq	-80(%rbp), %rax
100004f90: 0f 94 c1                    	sete	%cl
100004f93: 88 8d 5e ff ff ff           	movb	%cl, -162(%rbp)
100004f99: 8a 85 5e ff ff ff           	movb	-162(%rbp), %al
100004f9f: 88 85 5f ff ff ff           	movb	%al, -161(%rbp)
100004fa5: 8a 85 5f ff ff ff           	movb	-161(%rbp), %al
100004fab: a8 01                       	testb	$1, %al
100004fad: 0f 85 05 00 00 00           	jne	5 <__ZNSt3__112__hash_tableIiNS_4hashIiEENS_8equal_toIiEENS_9allocatorIiEEE25__emplace_unique_key_argsIiJRKiEEENS_4pairINS_15__hash_iteratorIPNS_11__hash_nodeIiPvEEEEbEERKT_DpOT0_+0x108>
100004fb3: e9 5c 00 00 00              	jmp	92 <__ZNSt3__112__hash_tableIiNS_4hashIiEENS_8equal_toIiEENS_9allocatorIiEEE25__emplace_unique_key_argsIiJRKiEEENS_4pairINS_15__hash_iteratorIPNS_11__hash_nodeIiPvEEEEbEERKT_DpOT0_+0x164>
100004fb8: 48 8b bd 60 ff ff ff        	movq	-160(%rbp), %rdi
100004fbf: e8 ac 06 00 00              	callq	1708 <__ZNSt3__112__hash_tableIiNS_4hashIiEENS_8equal_toIiEENS_9allocatorIiEEE6key_eqEv>
100004fc4: 48 8b 7d b8                 	movq	-72(%rbp), %rdi
100004fc8: 48 89 85 50 ff ff ff        	movq	%rax, -176(%rbp)
100004fcf: e8 9c f6 ff ff              	callq	-2404 <__ZNSt3__116__hash_node_baseIPNS_11__hash_nodeIiPvEEE8__upcastEv>
100004fd4: 48 05 10 00 00 00           	addq	$16, %rax
100004fda: 48 8b 55 e0                 	movq	-32(%rbp), %rdx
100004fde: 48 8b bd 50 ff ff ff        	movq	-176(%rbp), %rdi
100004fe5: 48 89 c6                    	movq	%rax, %rsi
100004fe8: e8 b3 06 00 00              	callq	1715 <__ZNKSt3__18equal_toIiEclERKiS3_>
100004fed: a8 01                       	testb	$1, %al
100004fef: 0f 85 05 00 00 00           	jne	5 <__ZNSt3__112__hash_tableIiNS_4hashIiEENS_8equal_toIiEENS_9allocatorIiEEE25__emplace_unique_key_argsIiJRKiEEENS_4pairINS_15__hash_iteratorIPNS_11__hash_nodeIiPvEEEEbEERKT_DpOT0_+0x14a>
100004ff5: e9 05 00 00 00              	jmp	5 <__ZNSt3__112__hash_tableIiNS_4hashIiEENS_8equal_toIiEENS_9allocatorIiEEE25__emplace_unique_key_argsIiJRKiEEENS_4pairINS_15__hash_iteratorIPNS_11__hash_nodeIiPvEEEEbEERKT_DpOT0_+0x14f>
100004ffa: e9 c4 04 00 00              	jmp	1220 <__ZNSt3__112__hash_tableIiNS_4hashIiEENS_8equal_toIiEENS_9allocatorIiEEE25__emplace_unique_key_argsIiJRKiEEENS_4pairINS_15__hash_iteratorIPNS_11__hash_nodeIiPvEEEEbEERKT_DpOT0_+0x613>
100004fff: e9 00 00 00 00              	jmp	0 <__ZNSt3__112__hash_tableIiNS_4hashIiEENS_8equal_toIiEENS_9allocatorIiEEE25__emplace_unique_key_argsIiJRKiEEENS_4pairINS_15__hash_iteratorIPNS_11__hash_nodeIiPvEEEEbEERKT_DpOT0_+0x154>
100005004: 48 8b 45 b8                 	movq	-72(%rbp), %rax
100005008: 48 8b 00                    	movq	(%rax), %rax
10000500b: 48 89 45 b8                 	movq	%rax, -72(%rbp)
10000500f: e9 35 ff ff ff              	jmp	-203 <__ZNSt3__112__hash_tableIiNS_4hashIiEENS_8equal_toIiEENS_9allocatorIiEEE25__emplace_unique_key_argsIiJRKiEEENS_4pairINS_15__hash_iteratorIPNS_11__hash_nodeIiPvEEEEbEERKT_DpOT0_+0x99>
100005014: e9 00 00 00 00              	jmp	0 <__ZNSt3__112__hash_tableIiNS_4hashIiEENS_8equal_toIiEENS_9allocatorIiEEE25__emplace_unique_key_argsIiJRKiEEENS_4pairINS_15__hash_iteratorIPNS_11__hash_nodeIiPvEEEEbEERKT_DpOT0_+0x169>
100005019: e9 00 00 00 00              	jmp	0 <__ZNSt3__112__hash_tableIiNS_4hashIiEENS_8equal_toIiEENS_9allocatorIiEEE25__emplace_unique_key_argsIiJRKiEEENS_4pairINS_15__hash_iteratorIPNS_11__hash_nodeIiPvEEEEbEERKT_DpOT0_+0x16e>
10000501e: 48 8b 55 d0                 	movq	-48(%rbp), %rdx
100005022: 48 8b 7d d8                 	movq	-40(%rbp), %rdi
100005026: 48 89 95 48 ff ff ff        	movq	%rdx, -184(%rbp)
10000502d: e8 de 07 00 00              	callq	2014 <__ZNSt3__1L7forwardIRKiEEOT_RNS_16remove_referenceIS3_E4typeE>
100005032: 48 8d 7d 98                 	leaq	-104(%rbp), %rdi
100005036: 48 8b b5 60 ff ff ff        	movq	-160(%rbp), %rsi
10000503d: 48 8b 95 48 ff ff ff        	movq	-184(%rbp), %rdx
100005044: 48 89 c1                    	movq	%rax, %rcx
100005047: e8 20 2b 00 00              	callq	11040 <dyld_stub_binder+0x100007b6c>
10000504c: 48 8b bd 60 ff ff ff        	movq	-160(%rbp), %rdi
100005053: e8 c8 07 00 00              	callq	1992 <__ZNSt3__112__hash_tableIiNS_4hashIiEENS_8equal_toIiEENS_9allocatorIiEEE4sizeEv>
100005058: 48 8b 00                    	movq	(%rax), %rax
10000505b: 48 ff c0                    	incq	%rax
10000505e: 48 89 c1                    	movq	%rax, %rcx
100005061: 48 d1 e9                    	shrq	%rcx
100005064: 41 89 c0                    	movl	%eax, %r8d
100005067: 41 83 e0 01                 	andl	$1, %r8d
10000506b: 44 89 c2                    	movl	%r8d, %edx
10000506e: 48 09 ca                    	orq	%rcx, %rdx
100005071: f3 48 0f 2a c2              	cvtsi2ss	%rdx, %xmm0
100005076: f3 0f 58 c0                 	addss	%xmm0, %xmm0
10000507a: f3 48 0f 2a c8              	cvtsi2ss	%rax, %xmm1
10000507f: 48 85 c0                    	testq	%rax, %rax
100005082: f3 0f 11 8d 44 ff ff ff     	movss	%xmm1, -188(%rbp)
10000508a: f3 0f 11 85 40 ff ff ff     	movss	%xmm0, -192(%rbp)
100005092: 0f 88 10 00 00 00           	js	16 <__ZNSt3__112__hash_tableIiNS_4hashIiEENS_8equal_toIiEENS_9allocatorIiEEE25__emplace_unique_key_argsIiJRKiEEENS_4pairINS_15__hash_iteratorIPNS_11__hash_nodeIiPvEEEEbEERKT_DpOT0_+0x1f8>
100005098: f3 0f 10 85 44 ff ff ff     	movss	-188(%rbp), %xmm0
1000050a0: f3 0f 11 85 40 ff ff ff     	movss	%xmm0, -192(%rbp)
1000050a8: f3 0f 10 85 40 ff ff ff     	movss	-192(%rbp), %xmm0
1000050b0: 48 8b 45 c8                 	movq	-56(%rbp), %rax
1000050b4: 48 89 c1                    	movq	%rax, %rcx
1000050b7: 48 d1 e9                    	shrq	%rcx
1000050ba: 89 c2                       	movl	%eax, %edx
1000050bc: 83 e2 01                    	andl	$1, %edx
1000050bf: 89 d6                       	movl	%edx, %esi
1000050c1: 48 09 ce                    	orq	%rcx, %rsi
1000050c4: f3 48 0f 2a ce              	cvtsi2ss	%rsi, %xmm1
1000050c9: f3 0f 58 c9                 	addss	%xmm1, %xmm1
1000050cd: f3 48 0f 2a d0              	cvtsi2ss	%rax, %xmm2
1000050d2: 48 85 c0                    	testq	%rax, %rax
1000050d5: f3 0f 11 85 3c ff ff ff     	movss	%xmm0, -196(%rbp)
1000050dd: f3 0f 11 95 38 ff ff ff     	movss	%xmm2, -200(%rbp)
1000050e5: f3 0f 11 8d 34 ff ff ff     	movss	%xmm1, -204(%rbp)
1000050ed: 0f 88 10 00 00 00           	js	16 <__ZNSt3__112__hash_tableIiNS_4hashIiEENS_8equal_toIiEENS_9allocatorIiEEE25__emplace_unique_key_argsIiJRKiEEENS_4pairINS_15__hash_iteratorIPNS_11__hash_nodeIiPvEEEEbEERKT_DpOT0_+0x253>
1000050f3: f3 0f 10 85 38 ff ff ff     	movss	-200(%rbp), %xmm0
1000050fb: f3 0f 11 85 34 ff ff ff     	movss	%xmm0, -204(%rbp)
100005103: f3 0f 10 85 34 ff ff ff     	movss	-204(%rbp), %xmm0
10000510b: 48 8b bd 60 ff ff ff        	movq	-160(%rbp), %rdi
100005112: f3 0f 11 85 30 ff ff ff     	movss	%xmm0, -208(%rbp)
10000511a: e8 31 07 00 00              	callq	1841 <__ZNSt3__112__hash_tableIiNS_4hashIiEENS_8equal_toIiEENS_9allocatorIiEEE15max_load_factorEv>
10000511f: f3 0f 10 85 30 ff ff ff     	movss	-208(%rbp), %xmm0
100005127: f3 0f 59 00                 	mulss	(%rax), %xmm0
10000512b: f3 0f 10 8d 3c ff ff ff     	movss	-196(%rbp), %xmm1
100005133: 0f 2e c8                    	ucomiss	%xmm0, %xmm1
100005136: 0f 87 0b 00 00 00           	ja	11 <__ZNSt3__112__hash_tableIiNS_4hashIiEENS_8equal_toIiEENS_9allocatorIiEEE25__emplace_unique_key_argsIiJRKiEEENS_4pairINS_15__hash_iteratorIPNS_11__hash_nodeIiPvEEEEbEERKT_DpOT0_+0x297>
10000513c: 48 83 7d c8 00              	cmpq	$0, -56(%rbp)
100005141: 0f 85 8a 01 00 00           	jne	394 <__ZNSt3__112__hash_tableIiNS_4hashIiEENS_8equal_toIiEENS_9allocatorIiEEE25__emplace_unique_key_argsIiJRKiEEENS_4pairINS_15__hash_iteratorIPNS_11__hash_nodeIiPvEEEEbEERKT_DpOT0_+0x421>
100005147: 48 8b 45 c8                 	movq	-56(%rbp), %rax
10000514b: 48 89 c1                    	movq	%rax, %rcx
10000514e: 48 01 c9                    	addq	%rcx, %rcx
100005151: 48 89 c7                    	movq	%rax, %rdi
100005154: 48 89 8d 28 ff ff ff        	movq	%rcx, -216(%rbp)
10000515b: e8 a0 09 00 00              	callq	2464 <__ZNSt3__1L16__is_hash_power2Em>
100005160: 88 85 27 ff ff ff           	movb	%al, -217(%rbp)
100005166: e9 00 00 00 00              	jmp	0 <__ZNSt3__112__hash_tableIiNS_4hashIiEENS_8equal_toIiEENS_9allocatorIiEEE25__emplace_unique_key_argsIiJRKiEEENS_4pairINS_15__hash_iteratorIPNS_11__hash_nodeIiPvEEEEbEERKT_DpOT0_+0x2bb>
10000516b: 8a 85 27 ff ff ff           	movb	-217(%rbp), %al
100005171: f6 d0                       	notb	%al
100005173: 0f b6 c8                    	movzbl	%al, %ecx
100005176: 89 ca                       	movl	%ecx, %edx
100005178: 83 e2 01                    	andl	$1, %edx
10000517b: 89 d6                       	movl	%edx, %esi
10000517d: 48 8b bd 28 ff ff ff        	movq	-216(%rbp), %rdi
100005184: 48 01 f7                    	addq	%rsi, %rdi
100005187: 48 89 7d 90                 	movq	%rdi, -112(%rbp)
10000518b: 48 8b bd 60 ff ff ff        	movq	-160(%rbp), %rdi
100005192: e8 89 06 00 00              	callq	1673 <__ZNSt3__112__hash_tableIiNS_4hashIiEENS_8equal_toIiEENS_9allocatorIiEEE4sizeEv>
100005197: 48 8b 00                    	movq	(%rax), %rax
10000519a: 48 ff c0                    	incq	%rax
10000519d: 48 89 c6                    	movq	%rax, %rsi
1000051a0: 48 d1 ee                    	shrq	%rsi
1000051a3: 89 c1                       	movl	%eax, %ecx
1000051a5: 83 e1 01                    	andl	$1, %ecx
1000051a8: 89 cf                       	movl	%ecx, %edi
1000051aa: 48 09 f7                    	orq	%rsi, %rdi
1000051ad: f3 48 0f 2a c7              	cvtsi2ss	%rdi, %xmm0
1000051b2: f3 0f 58 c0                 	addss	%xmm0, %xmm0
1000051b6: f3 48 0f 2a c8              	cvtsi2ss	%rax, %xmm1
1000051bb: 48 85 c0                    	testq	%rax, %rax
1000051be: f3 0f 11 8d 20 ff ff ff     	movss	%xmm1, -224(%rbp)
1000051c6: f3 0f 11 85 1c ff ff ff     	movss	%xmm0, -228(%rbp)
1000051ce: 0f 88 10 00 00 00           	js	16 <__ZNSt3__112__hash_tableIiNS_4hashIiEENS_8equal_toIiEENS_9allocatorIiEEE25__emplace_unique_key_argsIiJRKiEEENS_4pairINS_15__hash_iteratorIPNS_11__hash_nodeIiPvEEEEbEERKT_DpOT0_+0x334>
1000051d4: f3 0f 10 85 20 ff ff ff     	movss	-224(%rbp), %xmm0
1000051dc: f3 0f 11 85 1c ff ff ff     	movss	%xmm0, -228(%rbp)
1000051e4: f3 0f 10 85 1c ff ff ff     	movss	-228(%rbp), %xmm0
1000051ec: 48 8b bd 60 ff ff ff        	movq	-160(%rbp), %rdi
1000051f3: f3 0f 11 85 18 ff ff ff     	movss	%xmm0, -232(%rbp)
1000051fb: e8 50 06 00 00              	callq	1616 <__ZNSt3__112__hash_tableIiNS_4hashIiEENS_8equal_toIiEENS_9allocatorIiEEE15max_load_factorEv>
100005200: f3 0f 10 00                 	movss	(%rax), %xmm0
100005204: f3 0f 10 8d 18 ff ff ff     	movss	-232(%rbp), %xmm1
10000520c: f3 0f 5e c8                 	divss	%xmm0, %xmm1
100005210: 0f 28 c1                    	movaps	%xmm1, %xmm0
100005213: e8 38 09 00 00              	callq	2360 <__ZL4ceilf>
100005218: f3 0f 10 0d 84 2a 00 00     	movss	10884(%rip), %xmm1
100005220: 0f 28 d0                    	movaps	%xmm0, %xmm2
100005223: f3 0f 5c d1                 	subss	%xmm1, %xmm2
100005227: f3 48 0f 2c c2              	cvttss2si	%xmm2, %rax
10000522c: 48 b9 00 00 00 00 00 00 00 80       	movabsq	$-9223372036854775808, %rcx
100005236: 48 31 c8                    	xorq	%rcx, %rax
100005239: f3 48 0f 2c c8              	cvttss2si	%xmm0, %rcx
10000523e: 0f 2e c1                    	ucomiss	%xmm1, %xmm0
100005241: 48 0f 42 c1                 	cmovbq	%rcx, %rax
100005245: 48 89 85 78 ff ff ff        	movq	%rax, -136(%rbp)
10000524c: 48 8d 7d 90                 	leaq	-112(%rbp), %rdi
100005250: 48 8d b5 78 ff ff ff        	leaq	-136(%rbp), %rsi
100005257: e8 74 08 00 00              	callq	2164 <__ZNSt3__1L3maxImEERKT_S3_S3_>
10000525c: 48 89 85 10 ff ff ff        	movq	%rax, -240(%rbp)
100005263: e9 00 00 00 00              	jmp	0 <__ZNSt3__112__hash_tableIiNS_4hashIiEENS_8equal_toIiEENS_9allocatorIiEEE25__emplace_unique_key_argsIiJRKiEEENS_4pairINS_15__hash_iteratorIPNS_11__hash_nodeIiPvEEEEbEERKT_DpOT0_+0x3b8>
100005268: 48 8b 85 10 ff ff ff        	movq	-240(%rbp), %rax
10000526f: 48 8b 30                    	movq	(%rax), %rsi
100005272: 48 8b bd 60 ff ff ff        	movq	-160(%rbp), %rdi
100005279: e8 f4 28 00 00              	callq	10484 <dyld_stub_binder+0x100007b72>
10000527e: e9 00 00 00 00              	jmp	0 <__ZNSt3__112__hash_tableIiNS_4hashIiEENS_8equal_toIiEENS_9allocatorIiEEE25__emplace_unique_key_argsIiJRKiEEENS_4pairINS_15__hash_iteratorIPNS_11__hash_nodeIiPvEEEEbEERKT_DpOT0_+0x3d3>
100005283: 48 8b bd 60 ff ff ff        	movq	-160(%rbp), %rdi
10000528a: e8 e1 02 00 00              	callq	737 <__ZNKSt3__112__hash_tableIiNS_4hashIiEENS_8equal_toIiEENS_9allocatorIiEEE12bucket_countEv>
10000528f: 48 89 45 c8                 	movq	%rax, -56(%rbp)
100005293: 48 8b 7d d0                 	movq	-48(%rbp), %rdi
100005297: 48 8b 75 c8                 	movq	-56(%rbp), %rsi
10000529b: e8 00 03 00 00              	callq	768 <__ZNSt3__1L16__constrain_hashEmm>
1000052a0: 48 89 85 08 ff ff ff        	movq	%rax, -248(%rbp)
1000052a7: e9 00 00 00 00              	jmp	0 <__ZNSt3__112__hash_tableIiNS_4hashIiEENS_8equal_toIiEENS_9allocatorIiEEE25__emplace_unique_key_argsIiJRKiEEENS_4pairINS_15__hash_iteratorIPNS_11__hash_nodeIiPvEEEEbEERKT_DpOT0_+0x3fc>
1000052ac: 48 8b 85 08 ff ff ff        	movq	-248(%rbp), %rax
1000052b3: 48 89 45 b0                 	movq	%rax, -80(%rbp)
1000052b7: e9 15 00 00 00              	jmp	21 <__ZNSt3__112__hash_tableIiNS_4hashIiEENS_8equal_toIiEENS_9allocatorIiEEE25__emplace_unique_key_argsIiJRKiEEENS_4pairINS_15__hash_iteratorIPNS_11__hash_nodeIiPvEEEEbEERKT_DpOT0_+0x421>
1000052bc: 48 89 45 88                 	movq	%rax, -120(%rbp)
1000052c0: 89 55 84                    	movl	%edx, -124(%rbp)
1000052c3: 48 8d 7d 98                 	leaq	-104(%rbp), %rdi
1000052c7: e8 44 09 00 00              	callq	2372 <__ZNSt3__110unique_ptrINS_11__hash_nodeIiPvEENS_22__hash_node_destructorINS_9allocatorIS3_EEEEED1Ev>
1000052cc: e9 30 02 00 00              	jmp	560 <__ZNSt3__112__hash_tableIiNS_4hashIiEENS_8equal_toIiEENS_9allocatorIiEEE25__emplace_unique_key_argsIiJRKiEEENS_4pairINS_15__hash_iteratorIPNS_11__hash_nodeIiPvEEEEbEERKT_DpOT0_+0x651>
1000052d1: 48 8b 75 b0                 	movq	-80(%rbp), %rsi
1000052d5: 48 8b bd 60 ff ff ff        	movq	-160(%rbp), %rdi
1000052dc: e8 3f 03 00 00              	callq	831 <__ZNKSt3__110unique_ptrIA_PNS_16__hash_node_baseIPNS_11__hash_nodeIiPvEEEENS_25__bucket_list_deallocatorINS_9allocatorIS7_EEEEEixEm>
1000052e1: 48 89 85 00 ff ff ff        	movq	%rax, -256(%rbp)
1000052e8: e9 00 00 00 00              	jmp	0 <__ZNSt3__112__hash_tableIiNS_4hashIiEENS_8equal_toIiEENS_9allocatorIiEEE25__emplace_unique_key_argsIiJRKiEEENS_4pairINS_15__hash_iteratorIPNS_11__hash_nodeIiPvEEEEbEERKT_DpOT0_+0x43d>
1000052ed: 48 8b 85 00 ff ff ff        	movq	-256(%rbp), %rax
1000052f4: 48 8b 08                    	movq	(%rax), %rcx
1000052f7: 48 89 8d 70 ff ff ff        	movq	%rcx, -144(%rbp)
1000052fe: 48 83 bd 70 ff ff ff 00     	cmpq	$0, -144(%rbp)
100005306: 0f 85 4d 01 00 00           	jne	333 <__ZNSt3__112__hash_tableIiNS_4hashIiEENS_8equal_toIiEENS_9allocatorIiEEE25__emplace_unique_key_argsIiJRKiEEENS_4pairINS_15__hash_iteratorIPNS_11__hash_nodeIiPvEEEEbEERKT_DpOT0_+0x5a9>
10000530c: 48 8b 85 60 ff ff ff        	movq	-160(%rbp), %rax
100005313: 48 83 c0 10                 	addq	$16, %rax
100005317: 48 89 c7                    	movq	%rax, %rdi
10000531a: e8 01 f3 ff ff              	callq	-3327 <__ZNSt3__117__compressed_pairINS_16__hash_node_baseIPNS_11__hash_nodeIiPvEEEENS_9allocatorIS4_EEE5firstEv>
10000531f: 48 89 c7                    	movq	%rax, %rdi
100005322: e8 49 08 00 00              	callq	2121 <__ZNSt3__116__hash_node_baseIPNS_11__hash_nodeIiPvEEE5__ptrEv>
100005327: 48 89 85 70 ff ff ff        	movq	%rax, -144(%rbp)
10000532e: 48 8b 85 70 ff ff ff        	movq	-144(%rbp), %rax
100005335: 48 8b 00                    	movq	(%rax), %rax
100005338: 48 8d 4d 98                 	leaq	-104(%rbp), %rcx
10000533c: 48 89 cf                    	movq	%rcx, %rdi
10000533f: 48 89 85 f8 fe ff ff        	movq	%rax, -264(%rbp)
100005346: 48 89 8d f0 fe ff ff        	movq	%rcx, -272(%rbp)
10000534d: e8 3e 08 00 00              	callq	2110 <__ZNKSt3__110unique_ptrINS_11__hash_nodeIiPvEENS_22__hash_node_destructorINS_9allocatorIS3_EEEEEptEv>
100005352: 48 8b 8d f8 fe ff ff        	movq	-264(%rbp), %rcx
100005359: 48 89 08                    	movq	%rcx, (%rax)
10000535c: 48 8b bd f0 fe ff ff        	movq	-272(%rbp), %rdi
100005363: e8 48 08 00 00              	callq	2120 <__ZNKSt3__110unique_ptrINS_11__hash_nodeIiPvEENS_22__hash_node_destructorINS_9allocatorIS3_EEEEE3getEv>
100005368: 48 89 c7                    	movq	%rax, %rdi
10000536b: e8 00 08 00 00              	callq	2048 <__ZNSt3__116__hash_node_baseIPNS_11__hash_nodeIiPvEEE5__ptrEv>
100005370: 48 8b 8d 70 ff ff ff        	movq	-144(%rbp), %rcx
100005377: 48 89 01                    	movq	%rax, (%rcx)
10000537a: 48 8b 85 70 ff ff ff        	movq	-144(%rbp), %rax
100005381: 48 8b 75 b0                 	movq	-80(%rbp), %rsi
100005385: 48 8b bd 60 ff ff ff        	movq	-160(%rbp), %rdi
10000538c: 48 89 85 e8 fe ff ff        	movq	%rax, -280(%rbp)
100005393: e8 88 02 00 00              	callq	648 <__ZNKSt3__110unique_ptrIA_PNS_16__hash_node_baseIPNS_11__hash_nodeIiPvEEEENS_25__bucket_list_deallocatorINS_9allocatorIS7_EEEEEixEm>
100005398: 48 89 85 e0 fe ff ff        	movq	%rax, -288(%rbp)
10000539f: e9 00 00 00 00              	jmp	0 <__ZNSt3__112__hash_tableIiNS_4hashIiEENS_8equal_toIiEENS_9allocatorIiEEE25__emplace_unique_key_argsIiJRKiEEENS_4pairINS_15__hash_iteratorIPNS_11__hash_nodeIiPvEEEEbEERKT_DpOT0_+0x4f4>
1000053a4: 48 8b 85 e0 fe ff ff        	movq	-288(%rbp), %rax
1000053ab: 48 8b 8d e8 fe ff ff        	movq	-280(%rbp), %rcx
1000053b2: 48 89 08                    	movq	%rcx, (%rax)
1000053b5: 48 8d 7d 98                 	leaq	-104(%rbp), %rdi
1000053b9: e8 d2 07 00 00              	callq	2002 <__ZNKSt3__110unique_ptrINS_11__hash_nodeIiPvEENS_22__hash_node_destructorINS_9allocatorIS3_EEEEEptEv>
1000053be: 48 83 38 00                 	cmpq	$0, (%rax)
1000053c2: 0f 84 8c 00 00 00           	je	140 <__ZNSt3__112__hash_tableIiNS_4hashIiEENS_8equal_toIiEENS_9allocatorIiEEE25__emplace_unique_key_argsIiJRKiEEENS_4pairINS_15__hash_iteratorIPNS_11__hash_nodeIiPvEEEEbEERKT_DpOT0_+0x5a4>
1000053c8: 48 8d 45 98                 	leaq	-104(%rbp), %rax
1000053cc: 48 89 c7                    	movq	%rax, %rdi
1000053cf: 48 89 85 d8 fe ff ff        	movq	%rax, -296(%rbp)
1000053d6: e8 d5 07 00 00              	callq	2005 <__ZNKSt3__110unique_ptrINS_11__hash_nodeIiPvEENS_22__hash_node_destructorINS_9allocatorIS3_EEEEE3getEv>
1000053db: 48 89 c7                    	movq	%rax, %rdi
1000053de: e8 8d 07 00 00              	callq	1933 <__ZNSt3__116__hash_node_baseIPNS_11__hash_nodeIiPvEEE5__ptrEv>
1000053e3: 48 8b 8d 60 ff ff ff        	movq	-160(%rbp), %rcx
1000053ea: 48 8b bd d8 fe ff ff        	movq	-296(%rbp), %rdi
1000053f1: 48 89 85 d0 fe ff ff        	movq	%rax, -304(%rbp)
1000053f8: 48 89 8d c8 fe ff ff        	movq	%rcx, -312(%rbp)
1000053ff: e8 8c 07 00 00              	callq	1932 <__ZNKSt3__110unique_ptrINS_11__hash_nodeIiPvEENS_22__hash_node_destructorINS_9allocatorIS3_EEEEEptEv>
100005404: 48 8b 38                    	movq	(%rax), %rdi
100005407: e8 44 02 00 00              	callq	580 <__ZNKSt3__116__hash_node_baseIPNS_11__hash_nodeIiPvEEE6__hashEv>
10000540c: 48 8b 75 c8                 	movq	-56(%rbp), %rsi
100005410: 48 89 c7                    	movq	%rax, %rdi
100005413: e8 88 01 00 00              	callq	392 <__ZNSt3__1L16__constrain_hashEmm>
100005418: 48 89 85 c0 fe ff ff        	movq	%rax, -320(%rbp)
10000541f: e9 00 00 00 00              	jmp	0 <__ZNSt3__112__hash_tableIiNS_4hashIiEENS_8equal_toIiEENS_9allocatorIiEEE25__emplace_unique_key_argsIiJRKiEEENS_4pairINS_15__hash_iteratorIPNS_11__hash_nodeIiPvEEEEbEERKT_DpOT0_+0x574>
100005424: 48 8b bd c8 fe ff ff        	movq	-312(%rbp), %rdi
10000542b: 48 8b b5 c0 fe ff ff        	movq	-320(%rbp), %rsi
100005432: e8 e9 01 00 00              	callq	489 <__ZNKSt3__110unique_ptrIA_PNS_16__hash_node_baseIPNS_11__hash_nodeIiPvEEEENS_25__bucket_list_deallocatorINS_9allocatorIS7_EEEEEixEm>
100005437: 48 89 85 b8 fe ff ff        	movq	%rax, -328(%rbp)
10000543e: e9 00 00 00 00              	jmp	0 <__ZNSt3__112__hash_tableIiNS_4hashIiEENS_8equal_toIiEENS_9allocatorIiEEE25__emplace_unique_key_argsIiJRKiEEENS_4pairINS_15__hash_iteratorIPNS_11__hash_nodeIiPvEEEEbEERKT_DpOT0_+0x593>
100005443: 48 8b 85 b8 fe ff ff        	movq	-328(%rbp), %rax
10000544a: 48 8b 8d d0 fe ff ff        	movq	-304(%rbp), %rcx
100005451: 48 89 08                    	movq	%rcx, (%rax)
100005454: e9 37 00 00 00              	jmp	55 <__ZNSt3__112__hash_tableIiNS_4hashIiEENS_8equal_toIiEENS_9allocatorIiEEE25__emplace_unique_key_argsIiJRKiEEENS_4pairINS_15__hash_iteratorIPNS_11__hash_nodeIiPvEEEEbEERKT_DpOT0_+0x5e0>
100005459: 48 8b 85 70 ff ff ff        	movq	-144(%rbp), %rax
100005460: 48 8b 00                    	movq	(%rax), %rax
100005463: 48 8d 7d 98                 	leaq	-104(%rbp), %rdi
100005467: 48 89 85 b0 fe ff ff        	movq	%rax, -336(%rbp)
10000546e: e8 1d 07 00 00              	callq	1821 <__ZNKSt3__110unique_ptrINS_11__hash_nodeIiPvEENS_22__hash_node_destructorINS_9allocatorIS3_EEEEEptEv>
100005473: 48 8b 8d b0 fe ff ff        	movq	-336(%rbp), %rcx
10000547a: 48 89 08                    	movq	%rcx, (%rax)
10000547d: 48 8d 7d 98                 	leaq	-104(%rbp), %rdi
100005481: e8 2a 07 00 00              	callq	1834 <__ZNKSt3__110unique_ptrINS_11__hash_nodeIiPvEENS_22__hash_node_destructorINS_9allocatorIS3_EEEEE3getEv>
100005486: 48 8b 8d 70 ff ff ff        	movq	-144(%rbp), %rcx
10000548d: 48 89 01                    	movq	%rax, (%rcx)
100005490: 48 8d 7d 98                 	leaq	-104(%rbp), %rdi
100005494: e8 37 07 00 00              	callq	1847 <__ZNSt3__110unique_ptrINS_11__hash_nodeIiPvEENS_22__hash_node_destructorINS_9allocatorIS3_EEEEE7releaseEv>
100005499: 48 89 45 b8                 	movq	%rax, -72(%rbp)
10000549d: 48 8b bd 60 ff ff ff        	movq	-160(%rbp), %rdi
1000054a4: e8 77 03 00 00              	callq	887 <__ZNSt3__112__hash_tableIiNS_4hashIiEENS_8equal_toIiEENS_9allocatorIiEEE4sizeEv>
1000054a9: 48 8b 08                    	movq	(%rax), %rcx
1000054ac: 48 81 c1 01 00 00 00        	addq	$1, %rcx
1000054b3: 48 89 08                    	movq	%rcx, (%rax)
1000054b6: c6 45 c7 01                 	movb	$1, -57(%rbp)
1000054ba: 48 8d 7d 98                 	leaq	-104(%rbp), %rdi
1000054be: e8 4d 07 00 00              	callq	1869 <__ZNSt3__110unique_ptrINS_11__hash_nodeIiPvEENS_22__hash_node_destructorINS_9allocatorIS3_EEEEED1Ev>
1000054c3: 48 8b 75 b8                 	movq	-72(%rbp), %rsi
1000054c7: 48 8d 85 68 ff ff ff        	leaq	-152(%rbp), %rax
1000054ce: 48 89 c7                    	movq	%rax, %rdi
1000054d1: 48 89 85 a8 fe ff ff        	movq	%rax, -344(%rbp)
1000054d8: e8 53 07 00 00              	callq	1875 <__ZNSt3__115__hash_iteratorIPNS_11__hash_nodeIiPvEEEC1EPNS_16__hash_node_baseIS4_EE>
1000054dd: 48 8d 7d f0                 	leaq	-16(%rbp), %rdi
1000054e1: 48 8d 55 c7                 	leaq	-57(%rbp), %rdx
1000054e5: 48 8b b5 a8 fe ff ff        	movq	-344(%rbp), %rsi
1000054ec: e8 6f 07 00 00              	callq	1903 <__ZNSt3__14pairINS_15__hash_iteratorIPNS_11__hash_nodeIiPvEEEEbEC1IS6_RbLb0EEEOT_OT0_>
1000054f1: 48 8b 45 f0                 	movq	-16(%rbp), %rax
1000054f5: 8a 55 f8                    	movb	-8(%rbp), %dl
1000054f8: 48 81 c4 60 01 00 00        	addq	$352, %rsp
1000054ff: 5d                          	popq	%rbp
100005500: c3                          	retq
100005501: 48 8b 7d 88                 	movq	-120(%rbp), %rdi
100005505: e8 38 26 00 00              	callq	9784 <dyld_stub_binder+0x100007b42>
10000550a: 0f 0b                       	ud2
10000550c: 0f 1f 40 00                 	nopl	(%rax)

0000000100005510 __ZNSt3__122__hash_key_value_typesIiE9__get_keyERKi:
100005510: 55                          	pushq	%rbp
100005511: 48 89 e5                    	movq	%rsp, %rbp
100005514: 48 89 7d f8                 	movq	%rdi, -8(%rbp)
100005518: 48 8b 45 f8                 	movq	-8(%rbp), %rax
10000551c: 5d                          	popq	%rbp
10000551d: c3                          	retq
10000551e: 66 90                       	nop

0000000100005520 __ZNSt3__112__hash_tableIiNS_4hashIiEENS_8equal_toIiEENS_9allocatorIiEEE13hash_functionEv:
100005520: 55                          	pushq	%rbp
100005521: 48 89 e5                    	movq	%rsp, %rbp
100005524: 48 83 ec 10                 	subq	$16, %rsp
100005528: 48 89 7d f8                 	movq	%rdi, -8(%rbp)
10000552c: 48 8b 45 f8                 	movq	-8(%rbp), %rax
100005530: 48 05 18 00 00 00           	addq	$24, %rax
100005536: 48 89 c7                    	movq	%rax, %rdi
100005539: e8 52 07 00 00              	callq	1874 <__ZNSt3__117__compressed_pairImNS_4hashIiEEE6secondEv>
10000553e: 48 83 c4 10                 	addq	$16, %rsp
100005542: 5d                          	popq	%rbp
100005543: c3                          	retq
100005544: 66 2e 0f 1f 84 00 00 00 00 00       	nopw	%cs:(%rax,%rax)
10000554e: 66 90                       	nop

0000000100005550 __ZNKSt3__14hashIiEclEi:
100005550: 55                          	pushq	%rbp
100005551: 48 89 e5                    	movq	%rsp, %rbp
100005554: 48 89 7d f8                 	movq	%rdi, -8(%rbp)
100005558: 89 75 f4                    	movl	%esi, -12(%rbp)
10000555b: 48 63 45 f4                 	movslq	-12(%rbp), %rax
10000555f: 5d                          	popq	%rbp
100005560: c3                          	retq
100005561: 66 2e 0f 1f 84 00 00 00 00 00       	nopw	%cs:(%rax,%rax)
10000556b: 0f 1f 44 00 00              	nopl	(%rax,%rax)

0000000100005570 __ZNKSt3__112__hash_tableIiNS_4hashIiEENS_8equal_toIiEENS_9allocatorIiEEE12bucket_countEv:
100005570: 55                          	pushq	%rbp
100005571: 48 89 e5                    	movq	%rsp, %rbp
100005574: 48 83 ec 10                 	subq	$16, %rsp
100005578: 48 89 7d f8                 	movq	%rdi, -8(%rbp)
10000557c: 48 8b 7d f8                 	movq	-8(%rbp), %rdi
100005580: e8 3b 07 00 00              	callq	1851 <__ZNKSt3__110unique_ptrIA_PNS_16__hash_node_baseIPNS_11__hash_nodeIiPvEEEENS_25__bucket_list_deallocatorINS_9allocatorIS7_EEEEE11get_deleterEv>
100005585: 48 89 c7                    	movq	%rax, %rdi
100005588: e8 53 07 00 00              	callq	1875 <__ZNKSt3__125__bucket_list_deallocatorINS_9allocatorIPNS_16__hash_node_baseIPNS_11__hash_nodeIiPvEEEEEEE4sizeEv>
10000558d: 48 83 c4 10                 	addq	$16, %rsp
100005591: 5d                          	popq	%rbp
100005592: c3                          	retq
100005593: 66 2e 0f 1f 84 00 00 00 00 00       	nopw	%cs:(%rax,%rax)
10000559d: 0f 1f 00                    	nopl	(%rax)

00000001000055a0 __ZNSt3__1L16__constrain_hashEmm:
1000055a0: 55                          	pushq	%rbp
1000055a1: 48 89 e5                    	movq	%rsp, %rbp
1000055a4: 48 89 7d f8                 	movq	%rdi, -8(%rbp)
1000055a8: 48 89 75 f0                 	movq	%rsi, -16(%rbp)
1000055ac: 48 8b 45 f0                 	movq	-16(%rbp), %rax
1000055b0: 48 8b 4d f0                 	movq	-16(%rbp), %rcx
1000055b4: 48 81 e9 01 00 00 00        	subq	$1, %rcx
1000055bb: 48 21 c8                    	andq	%rcx, %rax
1000055be: 48 83 f8 00                 	cmpq	$0, %rax
1000055c2: 0f 85 1b 00 00 00           	jne	27 <__ZNSt3__1L16__constrain_hashEmm+0x43>
1000055c8: 48 8b 45 f8                 	movq	-8(%rbp), %rax
1000055cc: 48 8b 4d f0                 	movq	-16(%rbp), %rcx
1000055d0: 48 81 e9 01 00 00 00        	subq	$1, %rcx
1000055d7: 48 21 c8                    	andq	%rcx, %rax
1000055da: 48 89 45 e8                 	movq	%rax, -24(%rbp)
1000055de: e9 33 00 00 00              	jmp	51 <__ZNSt3__1L16__constrain_hashEmm+0x76>
1000055e3: 48 8b 45 f8                 	movq	-8(%rbp), %rax
1000055e7: 48 3b 45 f0                 	cmpq	-16(%rbp), %rax
1000055eb: 0f 83 0d 00 00 00           	jae	13 <__ZNSt3__1L16__constrain_hashEmm+0x5e>
1000055f1: 48 8b 45 f8                 	movq	-8(%rbp), %rax
1000055f5: 48 89 45 e0                 	movq	%rax, -32(%rbp)
1000055f9: e9 10 00 00 00              	jmp	16 <__ZNSt3__1L16__constrain_hashEmm+0x6e>
1000055fe: 48 8b 45 f8                 	movq	-8(%rbp), %rax
100005602: 31 c9                       	xorl	%ecx, %ecx
100005604: 89 ca                       	movl	%ecx, %edx
100005606: 48 f7 75 f0                 	divq	-16(%rbp)
10000560a: 48 89 55 e0                 	movq	%rdx, -32(%rbp)
10000560e: 48 8b 45 e0                 	movq	-32(%rbp), %rax
100005612: 48 89 45 e8                 	movq	%rax, -24(%rbp)
100005616: 48 8b 45 e8                 	movq	-24(%rbp), %rax
10000561a: 5d                          	popq	%rbp
10000561b: c3                          	retq
10000561c: 0f 1f 40 00                 	nopl	(%rax)

0000000100005620 __ZNKSt3__110unique_ptrIA_PNS_16__hash_node_baseIPNS_11__hash_nodeIiPvEEEENS_25__bucket_list_deallocatorINS_9allocatorIS7_EEEEEixEm:
100005620: 55                          	pushq	%rbp
100005621: 48 89 e5                    	movq	%rsp, %rbp
100005624: 48 83 ec 10                 	subq	$16, %rsp
100005628: 48 89 7d f8                 	movq	%rdi, -8(%rbp)
10000562c: 48 89 75 f0                 	movq	%rsi, -16(%rbp)
100005630: 48 8b 7d f8                 	movq	-8(%rbp), %rdi
100005634: e8 37 07 00 00              	callq	1847 <__ZNKSt3__117__compressed_pairIPPNS_16__hash_node_baseIPNS_11__hash_nodeIiPvEEEENS_25__bucket_list_deallocatorINS_9allocatorIS7_EEEEE5firstEv>
100005639: 48 8b 00                    	movq	(%rax), %rax
10000563c: 48 8b 4d f0                 	movq	-16(%rbp), %rcx
100005640: 48 c1 e1 03                 	shlq	$3, %rcx
100005644: 48 01 c8                    	addq	%rcx, %rax
100005647: 48 83 c4 10                 	addq	$16, %rsp
10000564b: 5d                          	popq	%rbp
10000564c: c3                          	retq
10000564d: 0f 1f 00                    	nopl	(%rax)

0000000100005650 __ZNKSt3__116__hash_node_baseIPNS_11__hash_nodeIiPvEEE6__hashEv:
100005650: 55                          	pushq	%rbp
100005651: 48 89 e5                    	movq	%rsp, %rbp
100005654: 48 89 7d f8                 	movq	%rdi, -8(%rbp)
100005658: 48 8b 45 f8                 	movq	-8(%rbp), %rax
10000565c: 48 8b 40 08                 	movq	8(%rax), %rax
100005660: 5d                          	popq	%rbp
100005661: c3                          	retq
100005662: 66 2e 0f 1f 84 00 00 00 00 00       	nopw	%cs:(%rax,%rax)
10000566c: 0f 1f 40 00                 	nopl	(%rax)

0000000100005670 __ZNSt3__112__hash_tableIiNS_4hashIiEENS_8equal_toIiEENS_9allocatorIiEEE6key_eqEv:
100005670: 55                          	pushq	%rbp
100005671: 48 89 e5                    	movq	%rsp, %rbp
100005674: 48 83 ec 10                 	subq	$16, %rsp
100005678: 48 89 7d f8                 	movq	%rdi, -8(%rbp)
10000567c: 48 8b 45 f8                 	movq	-8(%rbp), %rax
100005680: 48 05 20 00 00 00           	addq	$32, %rax
100005686: 48 89 c7                    	movq	%rax, %rdi
100005689: e8 12 07 00 00              	callq	1810 <__ZNSt3__117__compressed_pairIfNS_8equal_toIiEEE6secondEv>
10000568e: 48 83 c4 10                 	addq	$16, %rsp
100005692: 5d                          	popq	%rbp
100005693: c3                          	retq
100005694: 66 2e 0f 1f 84 00 00 00 00 00       	nopw	%cs:(%rax,%rax)
10000569e: 66 90                       	nop

00000001000056a0 __ZNKSt3__18equal_toIiEclERKiS3_:
1000056a0: 55                          	pushq	%rbp
1000056a1: 48 89 e5                    	movq	%rsp, %rbp
1000056a4: 48 89 7d f8                 	movq	%rdi, -8(%rbp)
1000056a8: 48 89 75 f0                 	movq	%rsi, -16(%rbp)
1000056ac: 48 89 55 e8                 	movq	%rdx, -24(%rbp)
1000056b0: 48 8b 45 f0                 	movq	-16(%rbp), %rax
1000056b4: 8b 08                       	movl	(%rax), %ecx
1000056b6: 48 8b 45 e8                 	movq	-24(%rbp), %rax
1000056ba: 3b 08                       	cmpl	(%rax), %ecx
1000056bc: 41 0f 94 c0                 	sete	%r8b
1000056c0: 41 80 e0 01                 	andb	$1, %r8b
1000056c4: 41 0f b6 c0                 	movzbl	%r8b, %eax
1000056c8: 5d                          	popq	%rbp
1000056c9: c3                          	retq
1000056ca: 66 0f 1f 44 00 00           	nopw	(%rax,%rax)

00000001000056d0 __ZNSt3__112__hash_tableIiNS_4hashIiEENS_8equal_toIiEENS_9allocatorIiEEE21__construct_node_hashIRKiJEEENS_10unique_ptrINS_11__hash_nodeIiPvEENS_22__hash_node_destructorINS5_ISE_EEEEEEmOT_DpOT0_:
1000056d0: 55                          	pushq	%rbp
1000056d1: 48 89 e5                    	movq	%rsp, %rbp
1000056d4: 48 81 ec 90 00 00 00        	subq	$144, %rsp
1000056db: 48 89 f8                    	movq	%rdi, %rax
1000056de: 48 89 7d f8                 	movq	%rdi, -8(%rbp)
1000056e2: 48 89 75 f0                 	movq	%rsi, -16(%rbp)
1000056e6: 48 89 55 e8                 	movq	%rdx, -24(%rbp)
1000056ea: 48 89 4d e0                 	movq	%rcx, -32(%rbp)
1000056ee: 48 8b 4d f0                 	movq	-16(%rbp), %rcx
1000056f2: 48 89 7d a8                 	movq	%rdi, -88(%rbp)
1000056f6: 48 89 cf                    	movq	%rcx, %rdi
1000056f9: 48 89 45 a0                 	movq	%rax, -96(%rbp)
1000056fd: e8 3e ef ff ff              	callq	-4290 <__ZNSt3__112__hash_tableIiNS_4hashIiEENS_8equal_toIiEENS_9allocatorIiEEE12__node_allocEv>
100005702: 48 89 45 d8                 	movq	%rax, -40(%rbp)
100005706: c6 45 d7 00                 	movb	$0, -41(%rbp)
10000570a: 48 8b 7d d8                 	movq	-40(%rbp), %rdi
10000570e: be 01 00 00 00              	movl	$1, %esi
100005713: e8 b8 06 00 00              	callq	1720 <__ZNSt3__116allocator_traitsINS_9allocatorINS_11__hash_nodeIiPvEEEEE8allocateERS5_m>
100005718: 48 8b 75 d8                 	movq	-40(%rbp), %rsi
10000571c: 48 8d 4d c0                 	leaq	-64(%rbp), %rcx
100005720: 31 d2                       	xorl	%edx, %edx
100005722: 48 89 cf                    	movq	%rcx, %rdi
100005725: 48 89 45 98                 	movq	%rax, -104(%rbp)
100005729: 48 89 4d 90                 	movq	%rcx, -112(%rbp)
10000572d: e8 ce 06 00 00              	callq	1742 <__ZNSt3__122__hash_node_destructorINS_9allocatorINS_11__hash_nodeIiPvEEEEEC1ERS5_b>
100005732: 48 8b 7d a8                 	movq	-88(%rbp), %rdi
100005736: 48 8b 75 98                 	movq	-104(%rbp), %rsi
10000573a: 48 8b 55 90                 	movq	-112(%rbp), %rdx
10000573e: e8 fd 06 00 00              	callq	1789 <__ZNSt3__110unique_ptrINS_11__hash_nodeIiPvEENS_22__hash_node_destructorINS_9allocatorIS3_EEEEEC1ILb1EvEEPS3_NS_16__dependent_typeINS_27__unique_ptr_deleter_sfinaeIS7_EEXT_EE20__good_rval_ref_typeE>
100005743: 48 8b 7d d8                 	movq	-40(%rbp), %rdi
100005747: 48 8b 45 a8                 	movq	-88(%rbp), %rax
10000574b: 48 89 7d 88                 	movq	%rdi, -120(%rbp)
10000574f: 48 89 c7                    	movq	%rax, %rdi
100005752: e8 39 04 00 00              	callq	1081 <__ZNKSt3__110unique_ptrINS_11__hash_nodeIiPvEENS_22__hash_node_destructorINS_9allocatorIS3_EEEEEptEv>
100005757: 48 83 c0 10                 	addq	$16, %rax
10000575b: 48 89 c7                    	movq	%rax, %rdi
10000575e: e8 5d ef ff ff              	callq	-4259 <__ZNSt3__122__hash_key_value_typesIiE9__get_ptrERi>
100005763: 48 89 45 80                 	movq	%rax, -128(%rbp)
100005767: e9 00 00 00 00              	jmp	0 <__ZNSt3__112__hash_tableIiNS_4hashIiEENS_8equal_toIiEENS_9allocatorIiEEE21__construct_node_hashIRKiJEEENS_10unique_ptrINS_11__hash_nodeIiPvEENS_22__hash_node_destructorINS5_ISE_EEEEEEmOT_DpOT0_+0x9c>
10000576c: 48 8b 7d e0                 	movq	-32(%rbp), %rdi
100005770: e8 9b 00 00 00              	callq	155 <__ZNSt3__1L7forwardIRKiEEOT_RNS_16remove_referenceIS3_E4typeE>
100005775: 48 8b 7d 88                 	movq	-120(%rbp), %rdi
100005779: 48 8b 75 80                 	movq	-128(%rbp), %rsi
10000577d: 48 89 c2                    	movq	%rax, %rdx
100005780: e8 eb 06 00 00              	callq	1771 <__ZNSt3__116allocator_traitsINS_9allocatorINS_11__hash_nodeIiPvEEEEE9constructIiJRKiEEEvRS5_PT_DpOT0_>
100005785: e9 00 00 00 00              	jmp	0 <__ZNSt3__112__hash_tableIiNS_4hashIiEENS_8equal_toIiEENS_9allocatorIiEEE21__construct_node_hashIRKiJEEENS_10unique_ptrINS_11__hash_nodeIiPvEENS_22__hash_node_destructorINS5_ISE_EEEEEEmOT_DpOT0_+0xba>
10000578a: 48 8b 7d a8                 	movq	-88(%rbp), %rdi
10000578e: e8 2d 07 00 00              	callq	1837 <__ZNSt3__110unique_ptrINS_11__hash_nodeIiPvEENS_22__hash_node_destructorINS_9allocatorIS3_EEEEE11get_deleterEv>
100005793: c6 40 08 01                 	movb	$1, 8(%rax)
100005797: 48 8b 45 e8                 	movq	-24(%rbp), %rax
10000579b: 48 8b 7d a8                 	movq	-88(%rbp), %rdi
10000579f: 48 89 85 78 ff ff ff        	movq	%rax, -136(%rbp)
1000057a6: e8 e5 03 00 00              	callq	997 <__ZNKSt3__110unique_ptrINS_11__hash_nodeIiPvEENS_22__hash_node_destructorINS_9allocatorIS3_EEEEEptEv>
1000057ab: 48 8b 8d 78 ff ff ff        	movq	-136(%rbp), %rcx
1000057b2: 48 89 48 08                 	movq	%rcx, 8(%rax)
1000057b6: 48 8b 7d a8                 	movq	-88(%rbp), %rdi
1000057ba: e8 d1 03 00 00              	callq	977 <__ZNKSt3__110unique_ptrINS_11__hash_nodeIiPvEENS_22__hash_node_destructorINS_9allocatorIS3_EEEEEptEv>
1000057bf: 48 c7 00 00 00 00 00        	movq	$0, (%rax)
1000057c6: c6 45 d7 01                 	movb	$1, -41(%rbp)
1000057ca: f6 45 d7 01                 	testb	$1, -41(%rbp)
1000057ce: 0f 85 23 00 00 00           	jne	35 <__ZNSt3__112__hash_tableIiNS_4hashIiEENS_8equal_toIiEENS_9allocatorIiEEE21__construct_node_hashIRKiJEEENS_10unique_ptrINS_11__hash_nodeIiPvEENS_22__hash_node_destructorINS5_ISE_EEEEEEmOT_DpOT0_+0x127>
1000057d4: e9 15 00 00 00              	jmp	21 <__ZNSt3__112__hash_tableIiNS_4hashIiEENS_8equal_toIiEENS_9allocatorIiEEE21__construct_node_hashIRKiJEEENS_10unique_ptrINS_11__hash_nodeIiPvEENS_22__hash_node_destructorINS5_ISE_EEEEEEmOT_DpOT0_+0x11e>
1000057d9: 48 89 45 b8                 	movq	%rax, -72(%rbp)
1000057dd: 89 55 b4                    	movl	%edx, -76(%rbp)
1000057e0: 48 8b 7d a8                 	movq	-88(%rbp), %rdi
1000057e4: e8 27 04 00 00              	callq	1063 <__ZNSt3__110unique_ptrINS_11__hash_nodeIiPvEENS_22__hash_node_destructorINS_9allocatorIS3_EEEEED1Ev>
1000057e9: e9 16 00 00 00              	jmp	22 <__ZNSt3__112__hash_tableIiNS_4hashIiEENS_8equal_toIiEENS_9allocatorIiEEE21__construct_node_hashIRKiJEEENS_10unique_ptrINS_11__hash_nodeIiPvEENS_22__hash_node_destructorINS5_ISE_EEEEEEmOT_DpOT0_+0x134>
1000057ee: 48 8b 7d a8                 	movq	-88(%rbp), %rdi
1000057f2: e8 19 04 00 00              	callq	1049 <__ZNSt3__110unique_ptrINS_11__hash_nodeIiPvEENS_22__hash_node_destructorINS_9allocatorIS3_EEEEED1Ev>
1000057f7: 48 8b 45 a0                 	movq	-96(%rbp), %rax
1000057fb: 48 81 c4 90 00 00 00        	addq	$144, %rsp
100005802: 5d                          	popq	%rbp
100005803: c3                          	retq
100005804: 48 8b 7d b8                 	movq	-72(%rbp), %rdi
100005808: e8 35 23 00 00              	callq	9013 <dyld_stub_binder+0x100007b42>
10000580d: 0f 0b                       	ud2
10000580f: 90                          	nop

0000000100005810 __ZNSt3__1L7forwardIRKiEEOT_RNS_16remove_referenceIS3_E4typeE:
100005810: 55                          	pushq	%rbp
100005811: 48 89 e5                    	movq	%rsp, %rbp
100005814: 48 89 7d f8                 	movq	%rdi, -8(%rbp)
100005818: 48 8b 45 f8                 	movq	-8(%rbp), %rax
10000581c: 5d                          	popq	%rbp
10000581d: c3                          	retq
10000581e: 66 90                       	nop

0000000100005820 __ZNSt3__112__hash_tableIiNS_4hashIiEENS_8equal_toIiEENS_9allocatorIiEEE4sizeEv:
100005820: 55                          	pushq	%rbp
100005821: 48 89 e5                    	movq	%rsp, %rbp
100005824: 48 83 ec 10                 	subq	$16, %rsp
100005828: 48 89 7d f8                 	movq	%rdi, -8(%rbp)
10000582c: 48 8b 45 f8                 	movq	-8(%rbp), %rax
100005830: 48 05 18 00 00 00           	addq	$24, %rax
100005836: 48 89 c7                    	movq	%rax, %rdi
100005839: e8 c2 0a 00 00              	callq	2754 <__ZNSt3__117__compressed_pairImNS_4hashIiEEE5firstEv>
10000583e: 48 83 c4 10                 	addq	$16, %rsp
100005842: 5d                          	popq	%rbp
100005843: c3                          	retq
100005844: 66 2e 0f 1f 84 00 00 00 00 00       	nopw	%cs:(%rax,%rax)
10000584e: 66 90                       	nop

0000000100005850 __ZNSt3__112__hash_tableIiNS_4hashIiEENS_8equal_toIiEENS_9allocatorIiEEE15max_load_factorEv:
100005850: 55                          	pushq	%rbp
100005851: 48 89 e5                    	movq	%rsp, %rbp
100005854: 48 83 ec 10                 	subq	$16, %rsp
100005858: 48 89 7d f8                 	movq	%rdi, -8(%rbp)
10000585c: 48 8b 45 f8                 	movq	-8(%rbp), %rax
100005860: 48 05 20 00 00 00           	addq	$32, %rax
100005866: 48 89 c7                    	movq	%rax, %rdi
100005869: e8 b2 0a 00 00              	callq	2738 <__ZNSt3__117__compressed_pairIfNS_8equal_toIiEEE5firstEv>
10000586e: 48 83 c4 10                 	addq	$16, %rsp
100005872: 5d                          	popq	%rbp
100005873: c3                          	retq
100005874: 66 2e 0f 1f 84 00 00 00 00 00       	nopw	%cs:(%rax,%rax)
10000587e: 66 90                       	nop

0000000100005880 __ZNSt3__112__hash_tableIiNS_4hashIiEENS_8equal_toIiEENS_9allocatorIiEEE6rehashEm:
100005880: 55                          	pushq	%rbp
100005881: 48 89 e5                    	movq	%rsp, %rbp
100005884: 48 83 ec 50                 	subq	$80, %rsp
100005888: 48 89 7d f8                 	movq	%rdi, -8(%rbp)
10000588c: 48 89 75 f0                 	movq	%rsi, -16(%rbp)
100005890: 48 8b 45 f8                 	movq	-8(%rbp), %rax
100005894: 48 83 7d f0 01              	cmpq	$1, -16(%rbp)
100005899: 48 89 45 d8                 	movq	%rax, -40(%rbp)
10000589d: 0f 85 0d 00 00 00           	jne	13 <__ZNSt3__112__hash_tableIiNS_4hashIiEENS_8equal_toIiEENS_9allocatorIiEEE6rehashEm+0x30>
1000058a3: 48 c7 45 f0 02 00 00 00     	movq	$2, -16(%rbp)
1000058ab: e9 2e 00 00 00              	jmp	46 <__ZNSt3__112__hash_tableIiNS_4hashIiEENS_8equal_toIiEENS_9allocatorIiEEE6rehashEm+0x5e>
1000058b0: 48 8b 45 f0                 	movq	-16(%rbp), %rax
1000058b4: 48 8b 4d f0                 	movq	-16(%rbp), %rcx
1000058b8: 48 81 e9 01 00 00 00        	subq	$1, %rcx
1000058bf: 48 21 c8                    	andq	%rcx, %rax
1000058c2: 48 83 f8 00                 	cmpq	$0, %rax
1000058c6: 0f 84 0d 00 00 00           	je	13 <__ZNSt3__112__hash_tableIiNS_4hashIiEENS_8equal_toIiEENS_9allocatorIiEEE6rehashEm+0x59>
1000058cc: 48 8b 7d f0                 	movq	-16(%rbp), %rdi
1000058d0: e8 a9 22 00 00              	callq	8873 <dyld_stub_binder+0x100007b7e>
1000058d5: 48 89 45 f0                 	movq	%rax, -16(%rbp)
1000058d9: e9 00 00 00 00              	jmp	0 <__ZNSt3__112__hash_tableIiNS_4hashIiEENS_8equal_toIiEENS_9allocatorIiEEE6rehashEm+0x5e>
1000058de: 48 8b 7d d8                 	movq	-40(%rbp), %rdi
1000058e2: e8 89 fc ff ff              	callq	-887 <__ZNKSt3__112__hash_tableIiNS_4hashIiEENS_8equal_toIiEENS_9allocatorIiEEE12bucket_countEv>
1000058e7: 48 89 45 e8                 	movq	%rax, -24(%rbp)
1000058eb: 48 8b 45 f0                 	movq	-16(%rbp), %rax
1000058ef: 48 3b 45 e8                 	cmpq	-24(%rbp), %rax
1000058f3: 0f 86 12 00 00 00           	jbe	18 <__ZNSt3__112__hash_tableIiNS_4hashIiEENS_8equal_toIiEENS_9allocatorIiEEE6rehashEm+0x8b>
1000058f9: 48 8b 75 f0                 	movq	-16(%rbp), %rsi
1000058fd: 48 8b 7d d8                 	movq	-40(%rbp), %rdi
100005901: e8 72 22 00 00              	callq	8818 <dyld_stub_binder+0x100007b78>
100005906: e9 ba 01 00 00              	jmp	442 <__ZNSt3__112__hash_tableIiNS_4hashIiEENS_8equal_toIiEENS_9allocatorIiEEE6rehashEm+0x245>
10000590b: 48 8b 45 f0                 	movq	-16(%rbp), %rax
10000590f: 48 3b 45 e8                 	cmpq	-24(%rbp), %rax
100005913: 0f 83 a7 01 00 00           	jae	423 <__ZNSt3__112__hash_tableIiNS_4hashIiEENS_8equal_toIiEENS_9allocatorIiEEE6rehashEm+0x240>
100005919: 48 8b 7d e8                 	movq	-24(%rbp), %rdi
10000591d: e8 de 01 00 00              	callq	478 <__ZNSt3__1L16__is_hash_power2Em>
100005922: a8 01                       	testb	$1, %al
100005924: 0f 85 05 00 00 00           	jne	5 <__ZNSt3__112__hash_tableIiNS_4hashIiEENS_8equal_toIiEENS_9allocatorIiEEE6rehashEm+0xaf>
10000592a: e9 ad 00 00 00              	jmp	173 <__ZNSt3__112__hash_tableIiNS_4hashIiEENS_8equal_toIiEENS_9allocatorIiEEE6rehashEm+0x15c>
10000592f: 48 8b 7d d8                 	movq	-40(%rbp), %rdi
100005933: e8 e8 fe ff ff              	callq	-280 <__ZNSt3__112__hash_tableIiNS_4hashIiEENS_8equal_toIiEENS_9allocatorIiEEE4sizeEv>
100005938: 48 8b 00                    	movq	(%rax), %rax
10000593b: 48 89 c1                    	movq	%rax, %rcx
10000593e: 48 d1 e9                    	shrq	%rcx
100005941: 89 c2                       	movl	%eax, %edx
100005943: 83 e2 01                    	andl	$1, %edx
100005946: 89 d6                       	movl	%edx, %esi
100005948: 48 09 ce                    	orq	%rcx, %rsi
10000594b: f3 48 0f 2a c6              	cvtsi2ss	%rsi, %xmm0
100005950: f3 0f 58 c0                 	addss	%xmm0, %xmm0
100005954: f3 48 0f 2a c8              	cvtsi2ss	%rax, %xmm1
100005959: 48 85 c0                    	testq	%rax, %rax
10000595c: f3 0f 11 4d d4              	movss	%xmm1, -44(%rbp)
100005961: f3 0f 11 45 d0              	movss	%xmm0, -48(%rbp)
100005966: 0f 88 0a 00 00 00           	js	10 <__ZNSt3__112__hash_tableIiNS_4hashIiEENS_8equal_toIiEENS_9allocatorIiEEE6rehashEm+0xf6>
10000596c: f3 0f 10 45 d4              	movss	-44(%rbp), %xmm0
100005971: f3 0f 11 45 d0              	movss	%xmm0, -48(%rbp)
100005976: f3 0f 10 45 d0              	movss	-48(%rbp), %xmm0
10000597b: 48 8b 7d d8                 	movq	-40(%rbp), %rdi
10000597f: f3 0f 11 45 cc              	movss	%xmm0, -52(%rbp)
100005984: e8 c7 fe ff ff              	callq	-313 <__ZNSt3__112__hash_tableIiNS_4hashIiEENS_8equal_toIiEENS_9allocatorIiEEE15max_load_factorEv>
100005989: f3 0f 10 00                 	movss	(%rax), %xmm0
10000598d: f3 0f 10 4d cc              	movss	-52(%rbp), %xmm1
100005992: f3 0f 5e c8                 	divss	%xmm0, %xmm1
100005996: 0f 28 c1                    	movaps	%xmm1, %xmm0
100005999: e8 b2 01 00 00              	callq	434 <__ZL4ceilf>
10000599e: f3 0f 10 0d fe 22 00 00     	movss	8958(%rip), %xmm1
1000059a6: 0f 28 d0                    	movaps	%xmm0, %xmm2
1000059a9: f3 0f 5c d1                 	subss	%xmm1, %xmm2
1000059ad: f3 48 0f 2c c2              	cvttss2si	%xmm2, %rax
1000059b2: 48 b9 00 00 00 00 00 00 00 80       	movabsq	$-9223372036854775808, %rcx
1000059bc: 48 31 c8                    	xorq	%rcx, %rax
1000059bf: f3 48 0f 2c c8              	cvttss2si	%xmm0, %rcx
1000059c4: 0f 2e c1                    	ucomiss	%xmm1, %xmm0
1000059c7: 48 0f 42 c1                 	cmovbq	%rcx, %rax
1000059cb: 48 89 c7                    	movq	%rax, %rdi
1000059ce: e8 6d 0c 00 00              	callq	3181 <__ZNSt3__1L16__next_hash_pow2Em>
1000059d3: 48 89 45 c0                 	movq	%rax, -64(%rbp)
1000059d7: e9 a8 00 00 00              	jmp	168 <__ZNSt3__112__hash_tableIiNS_4hashIiEENS_8equal_toIiEENS_9allocatorIiEEE6rehashEm+0x204>
1000059dc: 48 8b 7d d8                 	movq	-40(%rbp), %rdi
1000059e0: e8 3b fe ff ff              	callq	-453 <__ZNSt3__112__hash_tableIiNS_4hashIiEENS_8equal_toIiEENS_9allocatorIiEEE4sizeEv>
1000059e5: 48 8b 00                    	movq	(%rax), %rax
1000059e8: 48 89 c1                    	movq	%rax, %rcx
1000059eb: 48 d1 e9                    	shrq	%rcx
1000059ee: 89 c2                       	movl	%eax, %edx
1000059f0: 83 e2 01                    	andl	$1, %edx
1000059f3: 89 d6                       	movl	%edx, %esi
1000059f5: 48 09 ce                    	orq	%rcx, %rsi
1000059f8: f3 48 0f 2a c6              	cvtsi2ss	%rsi, %xmm0
1000059fd: f3 0f 58 c0                 	addss	%xmm0, %xmm0
100005a01: f3 48 0f 2a c8              	cvtsi2ss	%rax, %xmm1
100005a06: 48 85 c0                    	testq	%rax, %rax
100005a09: f3 0f 11 4d bc              	movss	%xmm1, -68(%rbp)
100005a0e: f3 0f 11 45 b8              	movss	%xmm0, -72(%rbp)
100005a13: 0f 88 0a 00 00 00           	js	10 <__ZNSt3__112__hash_tableIiNS_4hashIiEENS_8equal_toIiEENS_9allocatorIiEEE6rehashEm+0x1a3>
100005a19: f3 0f 10 45 bc              	movss	-68(%rbp), %xmm0
100005a1e: f3 0f 11 45 b8              	movss	%xmm0, -72(%rbp)
100005a23: f3 0f 10 45 b8              	movss	-72(%rbp), %xmm0
100005a28: 48 8b 7d d8                 	movq	-40(%rbp), %rdi
100005a2c: f3 0f 11 45 b4              	movss	%xmm0, -76(%rbp)
100005a31: e8 1a fe ff ff              	callq	-486 <__ZNSt3__112__hash_tableIiNS_4hashIiEENS_8equal_toIiEENS_9allocatorIiEEE15max_load_factorEv>
100005a36: f3 0f 10 00                 	movss	(%rax), %xmm0
100005a3a: f3 0f 10 4d b4              	movss	-76(%rbp), %xmm1
100005a3f: f3 0f 5e c8                 	divss	%xmm0, %xmm1
100005a43: 0f 28 c1                    	movaps	%xmm1, %xmm0
100005a46: e8 05 01 00 00              	callq	261 <__ZL4ceilf>
100005a4b: f3 0f 10 0d 51 22 00 00     	movss	8785(%rip), %xmm1
100005a53: 0f 28 d0                    	movaps	%xmm0, %xmm2
100005a56: f3 0f 5c d1                 	subss	%xmm1, %xmm2
100005a5a: f3 48 0f 2c c2              	cvttss2si	%xmm2, %rax
100005a5f: 48 b9 00 00 00 00 00 00 00 80       	movabsq	$-9223372036854775808, %rcx
100005a69: 48 31 c8                    	xorq	%rcx, %rax
100005a6c: f3 48 0f 2c c8              	cvttss2si	%xmm0, %rcx
100005a71: 0f 2e c1                    	ucomiss	%xmm1, %xmm0
100005a74: 48 0f 42 c1                 	cmovbq	%rcx, %rax
100005a78: 48 89 c7                    	movq	%rax, %rdi
100005a7b: e8 fe 20 00 00              	callq	8446 <dyld_stub_binder+0x100007b7e>
100005a80: 48 89 45 c0                 	movq	%rax, -64(%rbp)
100005a84: 48 8b 45 c0                 	movq	-64(%rbp), %rax
100005a88: 48 89 45 e0                 	movq	%rax, -32(%rbp)
100005a8c: 48 8d 7d f0                 	leaq	-16(%rbp), %rdi
100005a90: 48 8d 75 e0                 	leaq	-32(%rbp), %rsi
100005a94: e8 37 00 00 00              	callq	55 <__ZNSt3__1L3maxImEERKT_S3_S3_>
100005a99: 48 8b 00                    	movq	(%rax), %rax
100005a9c: 48 89 45 f0                 	movq	%rax, -16(%rbp)
100005aa0: 48 8b 45 f0                 	movq	-16(%rbp), %rax
100005aa4: 48 3b 45 e8                 	cmpq	-24(%rbp), %rax
100005aa8: 0f 83 0d 00 00 00           	jae	13 <__ZNSt3__112__hash_tableIiNS_4hashIiEENS_8equal_toIiEENS_9allocatorIiEEE6rehashEm+0x23b>
100005aae: 48 8b 75 f0                 	movq	-16(%rbp), %rsi
100005ab2: 48 8b 7d d8                 	movq	-40(%rbp), %rdi
100005ab6: e8 bd 20 00 00              	callq	8381 <dyld_stub_binder+0x100007b78>
100005abb: e9 00 00 00 00              	jmp	0 <__ZNSt3__112__hash_tableIiNS_4hashIiEENS_8equal_toIiEENS_9allocatorIiEEE6rehashEm+0x240>
100005ac0: e9 00 00 00 00              	jmp	0 <__ZNSt3__112__hash_tableIiNS_4hashIiEENS_8equal_toIiEENS_9allocatorIiEEE6rehashEm+0x245>
100005ac5: 48 83 c4 50                 	addq	$80, %rsp
100005ac9: 5d                          	popq	%rbp
100005aca: c3                          	retq
100005acb: 0f 1f 44 00 00              	nopl	(%rax,%rax)

0000000100005ad0 __ZNSt3__1L3maxImEERKT_S3_S3_:
100005ad0: 55                          	pushq	%rbp
100005ad1: 48 89 e5                    	movq	%rsp, %rbp
100005ad4: 48 83 ec 20                 	subq	$32, %rsp
100005ad8: 48 89 7d f8                 	movq	%rdi, -8(%rbp)
100005adc: 48 89 75 f0                 	movq	%rsi, -16(%rbp)
100005ae0: 48 8b 7d f8                 	movq	-8(%rbp), %rdi
100005ae4: 48 8b 75 f0                 	movq	-16(%rbp), %rsi
100005ae8: e8 13 0d 00 00              	callq	3347 <__ZNSt3__1L3maxImNS_6__lessImmEEEERKT_S5_S5_T0_>
100005aed: 48 83 c4 20                 	addq	$32, %rsp
100005af1: 5d                          	popq	%rbp
100005af2: c3                          	retq
100005af3: 66 2e 0f 1f 84 00 00 00 00 00       	nopw	%cs:(%rax,%rax)
100005afd: 0f 1f 00                    	nopl	(%rax)

0000000100005b00 __ZNSt3__1L16__is_hash_power2Em:
100005b00: 55                          	pushq	%rbp
100005b01: 48 89 e5                    	movq	%rsp, %rbp
100005b04: 31 c0                       	xorl	%eax, %eax
100005b06: 48 89 7d f8                 	movq	%rdi, -8(%rbp)
100005b0a: 48 83 7d f8 02              	cmpq	$2, -8(%rbp)
100005b0f: 88 45 f7                    	movb	%al, -9(%rbp)
100005b12: 0f 86 1f 00 00 00           	jbe	31 <__ZNSt3__1L16__is_hash_power2Em+0x37>
100005b18: 48 8b 45 f8                 	movq	-8(%rbp), %rax
100005b1c: 48 8b 4d f8                 	movq	-8(%rbp), %rcx
100005b20: 48 81 e9 01 00 00 00        	subq	$1, %rcx
100005b27: 48 21 c8                    	andq	%rcx, %rax
100005b2a: 48 83 f8 00                 	cmpq	$0, %rax
100005b2e: 0f 95 c2                    	setne	%dl
100005b31: 80 f2 ff                    	xorb	$-1, %dl
100005b34: 88 55 f7                    	movb	%dl, -9(%rbp)
100005b37: 8a 45 f7                    	movb	-9(%rbp), %al
100005b3a: 24 01                       	andb	$1, %al
100005b3c: 0f b6 c0                    	movzbl	%al, %eax
100005b3f: 5d                          	popq	%rbp
100005b40: c3                          	retq
100005b41: 66 2e 0f 1f 84 00 00 00 00 00       	nopw	%cs:(%rax,%rax)
100005b4b: 0f 1f 44 00 00              	nopl	(%rax,%rax)

0000000100005b50 __ZL4ceilf:
100005b50: 55                          	pushq	%rbp
100005b51: 48 89 e5                    	movq	%rsp, %rbp
100005b54: f3 0f 11 45 fc              	movss	%xmm0, -4(%rbp)
100005b59: f3 0f 10 45 fc              	movss	-4(%rbp), %xmm0
100005b5e: 66 0f 3a 0a c0 0a           	roundss	$10, %xmm0, %xmm0
100005b64: 5d                          	popq	%rbp
100005b65: c3                          	retq
100005b66: 66 2e 0f 1f 84 00 00 00 00 00       	nopw	%cs:(%rax,%rax)

0000000100005b70 __ZNSt3__116__hash_node_baseIPNS_11__hash_nodeIiPvEEE5__ptrEv:
100005b70: 55                          	pushq	%rbp
100005b71: 48 89 e5                    	movq	%rsp, %rbp
100005b74: 48 83 ec 10                 	subq	$16, %rsp
100005b78: 48 89 7d f8                 	movq	%rdi, -8(%rbp)
100005b7c: 48 8b 7d f8                 	movq	-8(%rbp), %rdi
100005b80: e8 bb eb ff ff              	callq	-5189 <__ZNSt3__114pointer_traitsIPNS_16__hash_node_baseIPNS_11__hash_nodeIiPvEEEEE10pointer_toERS6_>
100005b85: 48 83 c4 10                 	addq	$16, %rsp
100005b89: 5d                          	popq	%rbp
100005b8a: c3                          	retq
100005b8b: 0f 1f 44 00 00              	nopl	(%rax,%rax)

0000000100005b90 __ZNKSt3__110unique_ptrINS_11__hash_nodeIiPvEENS_22__hash_node_destructorINS_9allocatorIS3_EEEEEptEv:
100005b90: 55                          	pushq	%rbp
100005b91: 48 89 e5                    	movq	%rsp, %rbp
100005b94: 48 83 ec 10                 	subq	$16, %rsp
100005b98: 48 89 7d f8                 	movq	%rdi, -8(%rbp)
100005b9c: 48 8b 7d f8                 	movq	-8(%rbp), %rdi
100005ba0: e8 db 0c 00 00              	callq	3291 <__ZNKSt3__117__compressed_pairIPNS_11__hash_nodeIiPvEENS_22__hash_node_destructorINS_9allocatorIS3_EEEEE5firstEv>
100005ba5: 48 8b 00                    	movq	(%rax), %rax
100005ba8: 48 83 c4 10                 	addq	$16, %rsp
100005bac: 5d                          	popq	%rbp
100005bad: c3                          	retq
100005bae: 66 90                       	nop

0000000100005bb0 __ZNKSt3__110unique_ptrINS_11__hash_nodeIiPvEENS_22__hash_node_destructorINS_9allocatorIS3_EEEEE3getEv:
100005bb0: 55                          	pushq	%rbp
100005bb1: 48 89 e5                    	movq	%rsp, %rbp
100005bb4: 48 83 ec 10                 	subq	$16, %rsp
100005bb8: 48 89 7d f8                 	movq	%rdi, -8(%rbp)
100005bbc: 48 8b 7d f8                 	movq	-8(%rbp), %rdi
100005bc0: e8 bb 0c 00 00              	callq	3259 <__ZNKSt3__117__compressed_pairIPNS_11__hash_nodeIiPvEENS_22__hash_node_destructorINS_9allocatorIS3_EEEEE5firstEv>
100005bc5: 48 8b 00                    	movq	(%rax), %rax
100005bc8: 48 83 c4 10                 	addq	$16, %rsp
100005bcc: 5d                          	popq	%rbp
100005bcd: c3                          	retq
100005bce: 66 90                       	nop

0000000100005bd0 __ZNSt3__110unique_ptrINS_11__hash_nodeIiPvEENS_22__hash_node_destructorINS_9allocatorIS3_EEEEE7releaseEv:
100005bd0: 55                          	pushq	%rbp
100005bd1: 48 89 e5                    	movq	%rsp, %rbp
100005bd4: 48 83 ec 20                 	subq	$32, %rsp
100005bd8: 48 89 7d f8                 	movq	%rdi, -8(%rbp)
100005bdc: 48 8b 45 f8                 	movq	-8(%rbp), %rax
100005be0: 48 89 c7                    	movq	%rax, %rdi
100005be3: 48 89 45 e8                 	movq	%rax, -24(%rbp)
100005be7: e8 c4 0c 00 00              	callq	3268 <__ZNSt3__117__compressed_pairIPNS_11__hash_nodeIiPvEENS_22__hash_node_destructorINS_9allocatorIS3_EEEEE5firstEv>
100005bec: 48 8b 00                    	movq	(%rax), %rax
100005bef: 48 89 45 f0                 	movq	%rax, -16(%rbp)
100005bf3: 48 8b 7d e8                 	movq	-24(%rbp), %rdi
100005bf7: e8 b4 0c 00 00              	callq	3252 <__ZNSt3__117__compressed_pairIPNS_11__hash_nodeIiPvEENS_22__hash_node_destructorINS_9allocatorIS3_EEEEE5firstEv>
100005bfc: 48 c7 00 00 00 00 00        	movq	$0, (%rax)
100005c03: 48 8b 45 f0                 	movq	-16(%rbp), %rax
100005c07: 48 83 c4 20                 	addq	$32, %rsp
100005c0b: 5d                          	popq	%rbp
100005c0c: c3                          	retq
100005c0d: 0f 1f 00                    	nopl	(%rax)

0000000100005c10 __ZNSt3__110unique_ptrINS_11__hash_nodeIiPvEENS_22__hash_node_destructorINS_9allocatorIS3_EEEEED1Ev:
100005c10: 55                          	pushq	%rbp
100005c11: 48 89 e5                    	movq	%rsp, %rbp
100005c14: 48 83 ec 10                 	subq	$16, %rsp
100005c18: 48 89 7d f8                 	movq	%rdi, -8(%rbp)
100005c1c: 48 8b 7d f8                 	movq	-8(%rbp), %rdi
100005c20: e8 bb 0c 00 00              	callq	3259 <__ZNSt3__110unique_ptrINS_11__hash_nodeIiPvEENS_22__hash_node_destructorINS_9allocatorIS3_EEEEED2Ev>
100005c25: 48 83 c4 10                 	addq	$16, %rsp
100005c29: 5d                          	popq	%rbp
100005c2a: c3                          	retq
100005c2b: 0f 1f 44 00 00              	nopl	(%rax,%rax)

0000000100005c30 __ZNSt3__115__hash_iteratorIPNS_11__hash_nodeIiPvEEEC1EPNS_16__hash_node_baseIS4_EE:
100005c30: 55                          	pushq	%rbp
100005c31: 48 89 e5                    	movq	%rsp, %rbp
100005c34: 48 83 ec 10                 	subq	$16, %rsp
100005c38: 48 89 7d f8                 	movq	%rdi, -8(%rbp)
100005c3c: 48 89 75 f0                 	movq	%rsi, -16(%rbp)
100005c40: 48 8b 7d f8                 	movq	-8(%rbp), %rdi
100005c44: 48 8b 75 f0                 	movq	-16(%rbp), %rsi
100005c48: e8 b3 0d 00 00              	callq	3507 <__ZNSt3__115__hash_iteratorIPNS_11__hash_nodeIiPvEEEC2EPNS_16__hash_node_baseIS4_EE>
100005c4d: 48 83 c4 10                 	addq	$16, %rsp
100005c51: 5d                          	popq	%rbp
100005c52: c3                          	retq
100005c53: 66 2e 0f 1f 84 00 00 00 00 00       	nopw	%cs:(%rax,%rax)
100005c5d: 0f 1f 00                    	nopl	(%rax)

0000000100005c60 __ZNSt3__14pairINS_15__hash_iteratorIPNS_11__hash_nodeIiPvEEEEbEC1IS6_RbLb0EEEOT_OT0_:
100005c60: 55                          	pushq	%rbp
100005c61: 48 89 e5                    	movq	%rsp, %rbp
100005c64: 48 83 ec 20                 	subq	$32, %rsp
100005c68: 48 89 7d f8                 	movq	%rdi, -8(%rbp)
100005c6c: 48 89 75 f0                 	movq	%rsi, -16(%rbp)
100005c70: 48 89 55 e8                 	movq	%rdx, -24(%rbp)
100005c74: 48 8b 7d f8                 	movq	-8(%rbp), %rdi
100005c78: 48 8b 75 f0                 	movq	-16(%rbp), %rsi
100005c7c: 48 8b 55 e8                 	movq	-24(%rbp), %rdx
100005c80: e8 9b 0d 00 00              	callq	3483 <__ZNSt3__14pairINS_15__hash_iteratorIPNS_11__hash_nodeIiPvEEEEbEC2IS6_RbLb0EEEOT_OT0_>
100005c85: 48 83 c4 20                 	addq	$32, %rsp
100005c89: 5d                          	popq	%rbp
100005c8a: c3                          	retq
100005c8b: 0f 1f 44 00 00              	nopl	(%rax,%rax)

0000000100005c90 __ZNSt3__117__compressed_pairImNS_4hashIiEEE6secondEv:
100005c90: 55                          	pushq	%rbp
100005c91: 48 89 e5                    	movq	%rsp, %rbp
100005c94: 48 83 ec 10                 	subq	$16, %rsp
100005c98: 48 89 7d f8                 	movq	%rdi, -8(%rbp)
100005c9c: 48 8b 45 f8                 	movq	-8(%rbp), %rax
100005ca0: 48 89 c7                    	movq	%rax, %rdi
100005ca3: e8 08 00 00 00              	callq	8 <__ZNSt3__122__compressed_pair_elemINS_4hashIiEELi1ELb1EE5__getEv>
100005ca8: 48 83 c4 10                 	addq	$16, %rsp
100005cac: 5d                          	popq	%rbp
100005cad: c3                          	retq
100005cae: 66 90                       	nop

0000000100005cb0 __ZNSt3__122__compressed_pair_elemINS_4hashIiEELi1ELb1EE5__getEv:
100005cb0: 55                          	pushq	%rbp
100005cb1: 48 89 e5                    	movq	%rsp, %rbp
100005cb4: 48 89 7d f8                 	movq	%rdi, -8(%rbp)
100005cb8: 48 8b 45 f8                 	movq	-8(%rbp), %rax
100005cbc: 5d                          	popq	%rbp
100005cbd: c3                          	retq
100005cbe: 66 90                       	nop

0000000100005cc0 __ZNKSt3__110unique_ptrIA_PNS_16__hash_node_baseIPNS_11__hash_nodeIiPvEEEENS_25__bucket_list_deallocatorINS_9allocatorIS7_EEEEE11get_deleterEv:
100005cc0: 55                          	pushq	%rbp
100005cc1: 48 89 e5                    	movq	%rsp, %rbp
100005cc4: 48 83 ec 10                 	subq	$16, %rsp
100005cc8: 48 89 7d f8                 	movq	%rdi, -8(%rbp)
100005ccc: 48 8b 7d f8                 	movq	-8(%rbp), %rdi
100005cd0: e8 2b 00 00 00              	callq	43 <__ZNKSt3__117__compressed_pairIPPNS_16__hash_node_baseIPNS_11__hash_nodeIiPvEEEENS_25__bucket_list_deallocatorINS_9allocatorIS7_EEEEE6secondEv>
100005cd5: 48 83 c4 10                 	addq	$16, %rsp
100005cd9: 5d                          	popq	%rbp
100005cda: c3                          	retq
100005cdb: 0f 1f 44 00 00              	nopl	(%rax,%rax)

0000000100005ce0 __ZNKSt3__125__bucket_list_deallocatorINS_9allocatorIPNS_16__hash_node_baseIPNS_11__hash_nodeIiPvEEEEEEE4sizeEv:
100005ce0: 55                          	pushq	%rbp
100005ce1: 48 89 e5                    	movq	%rsp, %rbp
100005ce4: 48 83 ec 10                 	subq	$16, %rsp
100005ce8: 48 89 7d f8                 	movq	%rdi, -8(%rbp)
100005cec: 48 8b 7d f8                 	movq	-8(%rbp), %rdi
100005cf0: e8 4b 00 00 00              	callq	75 <__ZNKSt3__117__compressed_pairImNS_9allocatorIPNS_16__hash_node_baseIPNS_11__hash_nodeIiPvEEEEEEE5firstEv>
100005cf5: 48 8b 00                    	movq	(%rax), %rax
100005cf8: 48 83 c4 10                 	addq	$16, %rsp
100005cfc: 5d                          	popq	%rbp
100005cfd: c3                          	retq
100005cfe: 66 90                       	nop

0000000100005d00 __ZNKSt3__117__compressed_pairIPPNS_16__hash_node_baseIPNS_11__hash_nodeIiPvEEEENS_25__bucket_list_deallocatorINS_9allocatorIS7_EEEEE6secondEv:
100005d00: 55                          	pushq	%rbp
100005d01: 48 89 e5                    	movq	%rsp, %rbp
100005d04: 48 83 ec 10                 	subq	$16, %rsp
100005d08: 48 89 7d f8                 	movq	%rdi, -8(%rbp)
100005d0c: 48 8b 45 f8                 	movq	-8(%rbp), %rax
100005d10: 48 05 08 00 00 00           	addq	$8, %rax
100005d16: 48 89 c7                    	movq	%rax, %rdi
100005d19: e8 12 00 00 00              	callq	18 <__ZNKSt3__122__compressed_pair_elemINS_25__bucket_list_deallocatorINS_9allocatorIPNS_16__hash_node_baseIPNS_11__hash_nodeIiPvEEEEEEEELi1ELb0EE5__getEv>
100005d1e: 48 83 c4 10                 	addq	$16, %rsp
100005d22: 5d                          	popq	%rbp
100005d23: c3                          	retq
100005d24: 66 2e 0f 1f 84 00 00 00 00 00       	nopw	%cs:(%rax,%rax)
100005d2e: 66 90                       	nop

0000000100005d30 __ZNKSt3__122__compressed_pair_elemINS_25__bucket_list_deallocatorINS_9allocatorIPNS_16__hash_node_baseIPNS_11__hash_nodeIiPvEEEEEEEELi1ELb0EE5__getEv:
100005d30: 55                          	pushq	%rbp
100005d31: 48 89 e5                    	movq	%rsp, %rbp
100005d34: 48 89 7d f8                 	movq	%rdi, -8(%rbp)
100005d38: 48 8b 45 f8                 	movq	-8(%rbp), %rax
100005d3c: 5d                          	popq	%rbp
100005d3d: c3                          	retq
100005d3e: 66 90                       	nop

0000000100005d40 __ZNKSt3__117__compressed_pairImNS_9allocatorIPNS_16__hash_node_baseIPNS_11__hash_nodeIiPvEEEEEEE5firstEv:
100005d40: 55                          	pushq	%rbp
100005d41: 48 89 e5                    	movq	%rsp, %rbp
100005d44: 48 83 ec 10                 	subq	$16, %rsp
100005d48: 48 89 7d f8                 	movq	%rdi, -8(%rbp)
100005d4c: 48 8b 45 f8                 	movq	-8(%rbp), %rax
100005d50: 48 89 c7                    	movq	%rax, %rdi
100005d53: e8 08 00 00 00              	callq	8 <__ZNKSt3__122__compressed_pair_elemImLi0ELb0EE5__getEv>
100005d58: 48 83 c4 10                 	addq	$16, %rsp
100005d5c: 5d                          	popq	%rbp
100005d5d: c3                          	retq
100005d5e: 66 90                       	nop

0000000100005d60 __ZNKSt3__122__compressed_pair_elemImLi0ELb0EE5__getEv:
100005d60: 55                          	pushq	%rbp
100005d61: 48 89 e5                    	movq	%rsp, %rbp
100005d64: 48 89 7d f8                 	movq	%rdi, -8(%rbp)
100005d68: 48 8b 45 f8                 	movq	-8(%rbp), %rax
100005d6c: 5d                          	popq	%rbp
100005d6d: c3                          	retq
100005d6e: 66 90                       	nop

0000000100005d70 __ZNKSt3__117__compressed_pairIPPNS_16__hash_node_baseIPNS_11__hash_nodeIiPvEEEENS_25__bucket_list_deallocatorINS_9allocatorIS7_EEEEE5firstEv:
100005d70: 55                          	pushq	%rbp
100005d71: 48 89 e5                    	movq	%rsp, %rbp
100005d74: 48 83 ec 10                 	subq	$16, %rsp
100005d78: 48 89 7d f8                 	movq	%rdi, -8(%rbp)
100005d7c: 48 8b 45 f8                 	movq	-8(%rbp), %rax
100005d80: 48 89 c7                    	movq	%rax, %rdi
100005d83: e8 08 00 00 00              	callq	8 <__ZNKSt3__122__compressed_pair_elemIPPNS_16__hash_node_baseIPNS_11__hash_nodeIiPvEEEELi0ELb0EE5__getEv>
100005d88: 48 83 c4 10                 	addq	$16, %rsp
100005d8c: 5d                          	popq	%rbp
100005d8d: c3                          	retq
100005d8e: 66 90                       	nop

0000000100005d90 __ZNKSt3__122__compressed_pair_elemIPPNS_16__hash_node_baseIPNS_11__hash_nodeIiPvEEEELi0ELb0EE5__getEv:
100005d90: 55                          	pushq	%rbp
100005d91: 48 89 e5                    	movq	%rsp, %rbp
100005d94: 48 89 7d f8                 	movq	%rdi, -8(%rbp)
100005d98: 48 8b 45 f8                 	movq	-8(%rbp), %rax
100005d9c: 5d                          	popq	%rbp
100005d9d: c3                          	retq
100005d9e: 66 90                       	nop

0000000100005da0 __ZNSt3__117__compressed_pairIfNS_8equal_toIiEEE6secondEv:
100005da0: 55                          	pushq	%rbp
100005da1: 48 89 e5                    	movq	%rsp, %rbp
100005da4: 48 83 ec 10                 	subq	$16, %rsp
100005da8: 48 89 7d f8                 	movq	%rdi, -8(%rbp)
100005dac: 48 8b 45 f8                 	movq	-8(%rbp), %rax
100005db0: 48 89 c7                    	movq	%rax, %rdi
100005db3: e8 08 00 00 00              	callq	8 <__ZNSt3__122__compressed_pair_elemINS_8equal_toIiEELi1ELb1EE5__getEv>
100005db8: 48 83 c4 10                 	addq	$16, %rsp
100005dbc: 5d                          	popq	%rbp
100005dbd: c3                          	retq
100005dbe: 66 90                       	nop

0000000100005dc0 __ZNSt3__122__compressed_pair_elemINS_8equal_toIiEELi1ELb1EE5__getEv:
100005dc0: 55                          	pushq	%rbp
100005dc1: 48 89 e5                    	movq	%rsp, %rbp
100005dc4: 48 89 7d f8                 	movq	%rdi, -8(%rbp)
100005dc8: 48 8b 45 f8                 	movq	-8(%rbp), %rax
100005dcc: 5d                          	popq	%rbp
100005dcd: c3                          	retq
100005dce: 66 90                       	nop

0000000100005dd0 __ZNSt3__116allocator_traitsINS_9allocatorINS_11__hash_nodeIiPvEEEEE8allocateERS5_m:
100005dd0: 55                          	pushq	%rbp
100005dd1: 48 89 e5                    	movq	%rsp, %rbp
100005dd4: 48 83 ec 10                 	subq	$16, %rsp
100005dd8: 31 c0                       	xorl	%eax, %eax
100005dda: 89 c2                       	movl	%eax, %edx
100005ddc: 48 89 7d f8                 	movq	%rdi, -8(%rbp)
100005de0: 48 89 75 f0                 	movq	%rsi, -16(%rbp)
100005de4: 48 8b 7d f8                 	movq	-8(%rbp), %rdi
100005de8: 48 8b 75 f0                 	movq	-16(%rbp), %rsi
100005dec: e8 ef 00 00 00              	callq	239 <__ZNSt3__19allocatorINS_11__hash_nodeIiPvEEE8allocateEmPKv>
100005df1: 48 83 c4 10                 	addq	$16, %rsp
100005df5: 5d                          	popq	%rbp
100005df6: c3                          	retq
100005df7: 66 0f 1f 84 00 00 00 00 00  	nopw	(%rax,%rax)

0000000100005e00 __ZNSt3__122__hash_node_destructorINS_9allocatorINS_11__hash_nodeIiPvEEEEEC1ERS5_b:
100005e00: 55                          	pushq	%rbp
100005e01: 48 89 e5                    	movq	%rsp, %rbp
100005e04: 48 83 ec 20                 	subq	$32, %rsp
100005e08: 48 89 7d f8                 	movq	%rdi, -8(%rbp)
100005e0c: 48 89 75 f0                 	movq	%rsi, -16(%rbp)
100005e10: 80 e2 01                    	andb	$1, %dl
100005e13: 88 55 ef                    	movb	%dl, -17(%rbp)
100005e16: 48 8b 7d f8                 	movq	-8(%rbp), %rdi
100005e1a: 48 8b 75 f0                 	movq	-16(%rbp), %rsi
100005e1e: 8a 45 ef                    	movb	-17(%rbp), %al
100005e21: 24 01                       	andb	$1, %al
100005e23: 0f b6 d0                    	movzbl	%al, %edx
100005e26: e8 35 02 00 00              	callq	565 <__ZNSt3__122__hash_node_destructorINS_9allocatorINS_11__hash_nodeIiPvEEEEEC2ERS5_b>
100005e2b: 48 83 c4 20                 	addq	$32, %rsp
100005e2f: 5d                          	popq	%rbp
100005e30: c3                          	retq
100005e31: 66 2e 0f 1f 84 00 00 00 00 00       	nopw	%cs:(%rax,%rax)
100005e3b: 0f 1f 44 00 00              	nopl	(%rax,%rax)

0000000100005e40 __ZNSt3__110unique_ptrINS_11__hash_nodeIiPvEENS_22__hash_node_destructorINS_9allocatorIS3_EEEEEC1ILb1EvEEPS3_NS_16__dependent_typeINS_27__unique_ptr_deleter_sfinaeIS7_EEXT_EE20__good_rval_ref_typeE:
100005e40: 55                          	pushq	%rbp
100005e41: 48 89 e5                    	movq	%rsp, %rbp
100005e44: 48 83 ec 20                 	subq	$32, %rsp
100005e48: 48 89 7d f8                 	movq	%rdi, -8(%rbp)
100005e4c: 48 89 75 f0                 	movq	%rsi, -16(%rbp)
100005e50: 48 89 55 e8                 	movq	%rdx, -24(%rbp)
100005e54: 48 8b 7d f8                 	movq	-8(%rbp), %rdi
100005e58: 48 8b 75 f0                 	movq	-16(%rbp), %rsi
100005e5c: 48 8b 55 e8                 	movq	-24(%rbp), %rdx
100005e60: e8 2b 02 00 00              	callq	555 <__ZNSt3__110unique_ptrINS_11__hash_nodeIiPvEENS_22__hash_node_destructorINS_9allocatorIS3_EEEEEC2ILb1EvEEPS3_NS_16__dependent_typeINS_27__unique_ptr_deleter_sfinaeIS7_EEXT_EE20__good_rval_ref_typeE>
100005e65: 48 83 c4 20                 	addq	$32, %rsp
100005e69: 5d                          	popq	%rbp
100005e6a: c3                          	retq
100005e6b: 0f 1f 44 00 00              	nopl	(%rax,%rax)

0000000100005e70 __ZNSt3__116allocator_traitsINS_9allocatorINS_11__hash_nodeIiPvEEEEE9constructIiJRKiEEEvRS5_PT_DpOT0_:
100005e70: 55                          	pushq	%rbp
100005e71: 48 89 e5                    	movq	%rsp, %rbp
100005e74: 48 83 ec 40                 	subq	$64, %rsp
100005e78: 48 89 7d f8                 	movq	%rdi, -8(%rbp)
100005e7c: 48 89 75 f0                 	movq	%rsi, -16(%rbp)
100005e80: 48 89 55 e8                 	movq	%rdx, -24(%rbp)
100005e84: 48 8b 7d f8                 	movq	-8(%rbp), %rdi
100005e88: 48 8b 75 f0                 	movq	-16(%rbp), %rsi
100005e8c: 48 8b 45 e8                 	movq	-24(%rbp), %rax
100005e90: 48 89 7d d0                 	movq	%rdi, -48(%rbp)
100005e94: 48 89 c7                    	movq	%rax, %rdi
100005e97: 48 89 75 c8                 	movq	%rsi, -56(%rbp)
100005e9b: e8 70 f9 ff ff              	callq	-1680 <__ZNSt3__1L7forwardIRKiEEOT_RNS_16remove_referenceIS3_E4typeE>
100005ea0: 48 8b 7d d0                 	movq	-48(%rbp), %rdi
100005ea4: 48 8b 75 c8                 	movq	-56(%rbp), %rsi
100005ea8: 48 89 c2                    	movq	%rax, %rdx
100005eab: e8 80 03 00 00              	callq	896 <__ZNSt3__116allocator_traitsINS_9allocatorINS_11__hash_nodeIiPvEEEEE11__constructIiJRKiEEEvNS_17integral_constantIbLb1EEERS5_PT_DpOT0_>
100005eb0: 48 83 c4 40                 	addq	$64, %rsp
100005eb4: 5d                          	popq	%rbp
100005eb5: c3                          	retq
100005eb6: 66 2e 0f 1f 84 00 00 00 00 00       	nopw	%cs:(%rax,%rax)

0000000100005ec0 __ZNSt3__110unique_ptrINS_11__hash_nodeIiPvEENS_22__hash_node_destructorINS_9allocatorIS3_EEEEE11get_deleterEv:
100005ec0: 55                          	pushq	%rbp
100005ec1: 48 89 e5                    	movq	%rsp, %rbp
100005ec4: 48 83 ec 10                 	subq	$16, %rsp
100005ec8: 48 89 7d f8                 	movq	%rdi, -8(%rbp)
100005ecc: 48 8b 7d f8                 	movq	-8(%rbp), %rdi
100005ed0: e8 eb 03 00 00              	callq	1003 <__ZNSt3__117__compressed_pairIPNS_11__hash_nodeIiPvEENS_22__hash_node_destructorINS_9allocatorIS3_EEEEE6secondEv>
100005ed5: 48 83 c4 10                 	addq	$16, %rsp
100005ed9: 5d                          	popq	%rbp
100005eda: c3                          	retq
100005edb: 0f 1f 44 00 00              	nopl	(%rax,%rax)

0000000100005ee0 __ZNSt3__19allocatorINS_11__hash_nodeIiPvEEE8allocateEmPKv:
100005ee0: 55                          	pushq	%rbp
100005ee1: 48 89 e5                    	movq	%rsp, %rbp
100005ee4: 48 83 ec 20                 	subq	$32, %rsp
100005ee8: 48 89 7d f8                 	movq	%rdi, -8(%rbp)
100005eec: 48 89 75 f0                 	movq	%rsi, -16(%rbp)
100005ef0: 48 89 55 e8                 	movq	%rdx, -24(%rbp)
100005ef4: 48 8b 7d f8                 	movq	-8(%rbp), %rdi
100005ef8: 48 8b 45 f0                 	movq	-16(%rbp), %rax
100005efc: 48 89 45 e0                 	movq	%rax, -32(%rbp)
100005f00: e8 3b 00 00 00              	callq	59 <__ZNKSt3__19allocatorINS_11__hash_nodeIiPvEEE8max_sizeEv>
100005f05: 48 8b 4d e0                 	movq	-32(%rbp), %rcx
100005f09: 48 39 c1                    	cmpq	%rax, %rcx
100005f0c: 0f 86 0c 00 00 00           	jbe	12 <__ZNSt3__19allocatorINS_11__hash_nodeIiPvEEE8allocateEmPKv+0x3e>
100005f12: 48 8d 3d f3 1e 00 00        	leaq	7923(%rip), %rdi
100005f19: e8 42 00 00 00              	callq	66 <__ZNSt3__1L20__throw_length_errorEPKc>
100005f1e: 48 69 7d f0 18 00 00 00     	imulq	$24, -16(%rbp), %rdi
100005f26: be 08 00 00 00              	movl	$8, %esi
100005f2b: e8 90 00 00 00              	callq	144 <__ZNSt3__1L17__libcpp_allocateEmm>
100005f30: 48 83 c4 20                 	addq	$32, %rsp
100005f34: 5d                          	popq	%rbp
100005f35: c3                          	retq
100005f36: 66 2e 0f 1f 84 00 00 00 00 00       	nopw	%cs:(%rax,%rax)

0000000100005f40 __ZNKSt3__19allocatorINS_11__hash_nodeIiPvEEE8max_sizeEv:
100005f40: 55                          	pushq	%rbp
100005f41: 48 89 e5                    	movq	%rsp, %rbp
100005f44: 48 89 7d f8                 	movq	%rdi, -8(%rbp)
100005f48: 48 b8 aa aa aa aa aa aa aa 0a       	movabsq	$768614336404564650, %rax
100005f52: 5d                          	popq	%rbp
100005f53: c3                          	retq
100005f54: 66 2e 0f 1f 84 00 00 00 00 00       	nopw	%cs:(%rax,%rax)
100005f5e: 66 90                       	nop

0000000100005f60 __ZNSt3__1L20__throw_length_errorEPKc:
100005f60: 55                          	pushq	%rbp
100005f61: 48 89 e5                    	movq	%rsp, %rbp
100005f64: 48 83 ec 20                 	subq	$32, %rsp
100005f68: 48 89 7d f8                 	movq	%rdi, -8(%rbp)
100005f6c: bf 10 00 00 00              	movl	$16, %edi
100005f71: e8 4a 1c 00 00              	callq	7242 <dyld_stub_binder+0x100007bc0>
100005f76: 48 89 c1                    	movq	%rax, %rcx
100005f79: 48 8b 75 f8                 	movq	-8(%rbp), %rsi
100005f7d: 48 89 c7                    	movq	%rax, %rdi
100005f80: 48 89 4d e0                 	movq	%rcx, -32(%rbp)
100005f84: e8 57 00 00 00              	callq	87 <__ZNSt12length_errorC1EPKc>
100005f89: e9 00 00 00 00              	jmp	0 <__ZNSt3__1L20__throw_length_errorEPKc+0x2e>
100005f8e: 48 8b 35 83 20 00 00        	movq	8323(%rip), %rsi
100005f95: 48 8b 15 64 20 00 00        	movq	8292(%rip), %rdx
100005f9c: 48 8b 7d e0                 	movq	-32(%rbp), %rdi
100005fa0: e8 2d 1c 00 00              	callq	7213 <dyld_stub_binder+0x100007bd2>
100005fa5: 48 89 45 f0                 	movq	%rax, -16(%rbp)
100005fa9: 89 55 ec                    	movl	%edx, -20(%rbp)
100005fac: 48 8b 7d e0                 	movq	-32(%rbp), %rdi
100005fb0: e8 17 1c 00 00              	callq	7191 <dyld_stub_binder+0x100007bcc>
100005fb5: 48 8b 7d f0                 	movq	-16(%rbp), %rdi
100005fb9: e8 84 1b 00 00              	callq	7044 <dyld_stub_binder+0x100007b42>
100005fbe: 0f 0b                       	ud2

0000000100005fc0 __ZNSt3__1L17__libcpp_allocateEmm:
100005fc0: 55                          	pushq	%rbp
100005fc1: 48 89 e5                    	movq	%rsp, %rbp
100005fc4: 48 83 ec 10                 	subq	$16, %rsp
100005fc8: 48 89 7d f8                 	movq	%rdi, -8(%rbp)
100005fcc: 48 89 75 f0                 	movq	%rsi, -16(%rbp)
100005fd0: 48 8b 7d f8                 	movq	-8(%rbp), %rdi
100005fd4: e8 e1 1b 00 00              	callq	7137 <dyld_stub_binder+0x100007bba>
100005fd9: 48 83 c4 10                 	addq	$16, %rsp
100005fdd: 5d                          	popq	%rbp
100005fde: c3                          	retq
100005fdf: 90                          	nop

0000000100005fe0 __ZNSt12length_errorC1EPKc:
100005fe0: 55                          	pushq	%rbp
100005fe1: 48 89 e5                    	movq	%rsp, %rbp
100005fe4: 48 83 ec 10                 	subq	$16, %rsp
100005fe8: 48 89 7d f8                 	movq	%rdi, -8(%rbp)
100005fec: 48 89 75 f0                 	movq	%rsi, -16(%rbp)
100005ff0: 48 8b 7d f8                 	movq	-8(%rbp), %rdi
100005ff4: 48 8b 75 f0                 	movq	-16(%rbp), %rsi
100005ff8: e8 13 00 00 00              	callq	19 <__ZNSt12length_errorC2EPKc>
100005ffd: 48 83 c4 10                 	addq	$16, %rsp
100006001: 5d                          	popq	%rbp
100006002: c3                          	retq
100006003: 66 2e 0f 1f 84 00 00 00 00 00       	nopw	%cs:(%rax,%rax)
10000600d: 0f 1f 00                    	nopl	(%rax)

0000000100006010 __ZNSt12length_errorC2EPKc:
100006010: 55                          	pushq	%rbp
100006011: 48 89 e5                    	movq	%rsp, %rbp
100006014: 48 83 ec 20                 	subq	$32, %rsp
100006018: 48 89 7d f8                 	movq	%rdi, -8(%rbp)
10000601c: 48 89 75 f0                 	movq	%rsi, -16(%rbp)
100006020: 48 8b 45 f8                 	movq	-8(%rbp), %rax
100006024: 48 89 c1                    	movq	%rax, %rcx
100006027: 48 8b 75 f0                 	movq	-16(%rbp), %rsi
10000602b: 48 89 cf                    	movq	%rcx, %rdi
10000602e: 48 89 45 e8                 	movq	%rax, -24(%rbp)
100006032: e8 29 1b 00 00              	callq	6953 <dyld_stub_binder+0x100007b60>
100006037: 48 8b 05 e2 1f 00 00        	movq	8162(%rip), %rax
10000603e: 48 05 10 00 00 00           	addq	$16, %rax
100006044: 48 8b 4d e8                 	movq	-24(%rbp), %rcx
100006048: 48 89 01                    	movq	%rax, (%rcx)
10000604b: 48 83 c4 20                 	addq	$32, %rsp
10000604f: 5d                          	popq	%rbp
100006050: c3                          	retq
100006051: 66 2e 0f 1f 84 00 00 00 00 00       	nopw	%cs:(%rax,%rax)
10000605b: 0f 1f 44 00 00              	nopl	(%rax,%rax)

0000000100006060 __ZNSt3__122__hash_node_destructorINS_9allocatorINS_11__hash_nodeIiPvEEEEEC2ERS5_b:
100006060: 55                          	pushq	%rbp
100006061: 48 89 e5                    	movq	%rsp, %rbp
100006064: 48 89 7d f8                 	movq	%rdi, -8(%rbp)
100006068: 48 89 75 f0                 	movq	%rsi, -16(%rbp)
10000606c: 80 e2 01                    	andb	$1, %dl
10000606f: 88 55 ef                    	movb	%dl, -17(%rbp)
100006072: 48 8b 45 f8                 	movq	-8(%rbp), %rax
100006076: 48 8b 4d f0                 	movq	-16(%rbp), %rcx
10000607a: 48 89 08                    	movq	%rcx, (%rax)
10000607d: 8a 55 ef                    	movb	-17(%rbp), %dl
100006080: 80 e2 01                    	andb	$1, %dl
100006083: 88 50 08                    	movb	%dl, 8(%rax)
100006086: 5d                          	popq	%rbp
100006087: c3                          	retq
100006088: 0f 1f 84 00 00 00 00 00     	nopl	(%rax,%rax)

0000000100006090 __ZNSt3__110unique_ptrINS_11__hash_nodeIiPvEENS_22__hash_node_destructorINS_9allocatorIS3_EEEEEC2ILb1EvEEPS3_NS_16__dependent_typeINS_27__unique_ptr_deleter_sfinaeIS7_EEXT_EE20__good_rval_ref_typeE:
100006090: 55                          	pushq	%rbp
100006091: 48 89 e5                    	movq	%rsp, %rbp
100006094: 48 83 ec 30                 	subq	$48, %rsp
100006098: 48 89 7d f8                 	movq	%rdi, -8(%rbp)
10000609c: 48 89 75 f0                 	movq	%rsi, -16(%rbp)
1000060a0: 48 89 55 e8                 	movq	%rdx, -24(%rbp)
1000060a4: 48 8b 7d f8                 	movq	-8(%rbp), %rdi
1000060a8: 48 8b 45 e8                 	movq	-24(%rbp), %rax
1000060ac: 48 89 7d e0                 	movq	%rdi, -32(%rbp)
1000060b0: 48 89 c7                    	movq	%rax, %rdi
1000060b3: e8 28 00 00 00              	callq	40 <__ZNSt3__1L4moveIRNS_22__hash_node_destructorINS_9allocatorINS_11__hash_nodeIiPvEEEEEEEEONS_16remove_referenceIT_E4typeEOSA_>
1000060b8: 48 8d 75 f0                 	leaq	-16(%rbp), %rsi
1000060bc: 48 8b 7d e0                 	movq	-32(%rbp), %rdi
1000060c0: 48 89 c2                    	movq	%rax, %rdx
1000060c3: e8 28 00 00 00              	callq	40 <__ZNSt3__117__compressed_pairIPNS_11__hash_nodeIiPvEENS_22__hash_node_destructorINS_9allocatorIS3_EEEEEC1IRS4_S8_EEOT_OT0_>
1000060c8: e9 00 00 00 00              	jmp	0 <__ZNSt3__110unique_ptrINS_11__hash_nodeIiPvEENS_22__hash_node_destructorINS_9allocatorIS3_EEEEEC2ILb1EvEEPS3_NS_16__dependent_typeINS_27__unique_ptr_deleter_sfinaeIS7_EEXT_EE20__good_rval_ref_typeE+0x3d>
1000060cd: 48 83 c4 30                 	addq	$48, %rsp
1000060d1: 5d                          	popq	%rbp
1000060d2: c3                          	retq
1000060d3: 48 89 c7                    	movq	%rax, %rdi
1000060d6: 48 89 55 d8                 	movq	%rdx, -40(%rbp)
1000060da: e8 01 dc ff ff              	callq	-9215 <___clang_call_terminate>
1000060df: 90                          	nop

00000001000060e0 __ZNSt3__1L4moveIRNS_22__hash_node_destructorINS_9allocatorINS_11__hash_nodeIiPvEEEEEEEEONS_16remove_referenceIT_E4typeEOSA_:
1000060e0: 55                          	pushq	%rbp
1000060e1: 48 89 e5                    	movq	%rsp, %rbp
1000060e4: 48 89 7d f8                 	movq	%rdi, -8(%rbp)
1000060e8: 48 8b 45 f8                 	movq	-8(%rbp), %rax
1000060ec: 5d                          	popq	%rbp
1000060ed: c3                          	retq
1000060ee: 66 90                       	nop

00000001000060f0 __ZNSt3__117__compressed_pairIPNS_11__hash_nodeIiPvEENS_22__hash_node_destructorINS_9allocatorIS3_EEEEEC1IRS4_S8_EEOT_OT0_:
1000060f0: 55                          	pushq	%rbp
1000060f1: 48 89 e5                    	movq	%rsp, %rbp
1000060f4: 48 83 ec 20                 	subq	$32, %rsp
1000060f8: 48 89 7d f8                 	movq	%rdi, -8(%rbp)
1000060fc: 48 89 75 f0                 	movq	%rsi, -16(%rbp)
100006100: 48 89 55 e8                 	movq	%rdx, -24(%rbp)
100006104: 48 8b 7d f8                 	movq	-8(%rbp), %rdi
100006108: 48 8b 75 f0                 	movq	-16(%rbp), %rsi
10000610c: 48 8b 55 e8                 	movq	-24(%rbp), %rdx
100006110: e8 0b 00 00 00              	callq	11 <__ZNSt3__117__compressed_pairIPNS_11__hash_nodeIiPvEENS_22__hash_node_destructorINS_9allocatorIS3_EEEEEC2IRS4_S8_EEOT_OT0_>
100006115: 48 83 c4 20                 	addq	$32, %rsp
100006119: 5d                          	popq	%rbp
10000611a: c3                          	retq
10000611b: 0f 1f 44 00 00              	nopl	(%rax,%rax)

0000000100006120 __ZNSt3__117__compressed_pairIPNS_11__hash_nodeIiPvEENS_22__hash_node_destructorINS_9allocatorIS3_EEEEEC2IRS4_S8_EEOT_OT0_:
100006120: 55                          	pushq	%rbp
100006121: 48 89 e5                    	movq	%rsp, %rbp
100006124: 48 83 ec 30                 	subq	$48, %rsp
100006128: 48 89 7d f8                 	movq	%rdi, -8(%rbp)
10000612c: 48 89 75 f0                 	movq	%rsi, -16(%rbp)
100006130: 48 89 55 e8                 	movq	%rdx, -24(%rbp)
100006134: 48 8b 45 f8                 	movq	-8(%rbp), %rax
100006138: 48 89 c1                    	movq	%rax, %rcx
10000613b: 48 8b 7d f0                 	movq	-16(%rbp), %rdi
10000613f: 48 89 45 e0                 	movq	%rax, -32(%rbp)
100006143: 48 89 4d d8                 	movq	%rcx, -40(%rbp)
100006147: e8 44 00 00 00              	callq	68 <__ZNSt3__1L7forwardIRPNS_11__hash_nodeIiPvEEEEOT_RNS_16remove_referenceIS6_E4typeE>
10000614c: 48 8b 7d d8                 	movq	-40(%rbp), %rdi
100006150: 48 89 c6                    	movq	%rax, %rsi
100006153: e8 48 00 00 00              	callq	72 <__ZNSt3__122__compressed_pair_elemIPNS_11__hash_nodeIiPvEELi0ELb0EEC2IRS4_vEEOT_>
100006158: 48 8b 45 e0                 	movq	-32(%rbp), %rax
10000615c: 48 05 08 00 00 00           	addq	$8, %rax
100006162: 48 8b 7d e8                 	movq	-24(%rbp), %rdi
100006166: 48 89 45 d0                 	movq	%rax, -48(%rbp)
10000616a: e8 71 00 00 00              	callq	113 <__ZNSt3__1L7forwardINS_22__hash_node_destructorINS_9allocatorINS_11__hash_nodeIiPvEEEEEEEEOT_RNS_16remove_referenceIS8_E4typeE>
10000616f: 48 8b 7d d0                 	movq	-48(%rbp), %rdi
100006173: 48 89 c6                    	movq	%rax, %rsi
100006176: e8 75 00 00 00              	callq	117 <__ZNSt3__122__compressed_pair_elemINS_22__hash_node_destructorINS_9allocatorINS_11__hash_nodeIiPvEEEEEELi1ELb0EEC2IS7_vEEOT_>
10000617b: 48 83 c4 30                 	addq	$48, %rsp
10000617f: 5d                          	popq	%rbp
100006180: c3                          	retq
100006181: 66 2e 0f 1f 84 00 00 00 00 00       	nopw	%cs:(%rax,%rax)
10000618b: 0f 1f 44 00 00              	nopl	(%rax,%rax)

0000000100006190 __ZNSt3__1L7forwardIRPNS_11__hash_nodeIiPvEEEEOT_RNS_16remove_referenceIS6_E4typeE:
100006190: 55                          	pushq	%rbp
100006191: 48 89 e5                    	movq	%rsp, %rbp
100006194: 48 89 7d f8                 	movq	%rdi, -8(%rbp)
100006198: 48 8b 45 f8                 	movq	-8(%rbp), %rax
10000619c: 5d                          	popq	%rbp
10000619d: c3                          	retq
10000619e: 66 90                       	nop

00000001000061a0 __ZNSt3__122__compressed_pair_elemIPNS_11__hash_nodeIiPvEELi0ELb0EEC2IRS4_vEEOT_:
1000061a0: 55                          	pushq	%rbp
1000061a1: 48 89 e5                    	movq	%rsp, %rbp
1000061a4: 48 83 ec 20                 	subq	$32, %rsp
1000061a8: 48 89 7d f8                 	movq	%rdi, -8(%rbp)
1000061ac: 48 89 75 f0                 	movq	%rsi, -16(%rbp)
1000061b0: 48 8b 45 f8                 	movq	-8(%rbp), %rax
1000061b4: 48 8b 7d f0                 	movq	-16(%rbp), %rdi
1000061b8: 48 89 45 e8                 	movq	%rax, -24(%rbp)
1000061bc: e8 cf ff ff ff              	callq	-49 <__ZNSt3__1L7forwardIRPNS_11__hash_nodeIiPvEEEEOT_RNS_16remove_referenceIS6_E4typeE>
1000061c1: 48 8b 00                    	movq	(%rax), %rax
1000061c4: 48 8b 4d e8                 	movq	-24(%rbp), %rcx
1000061c8: 48 89 01                    	movq	%rax, (%rcx)
1000061cb: 48 83 c4 20                 	addq	$32, %rsp
1000061cf: 5d                          	popq	%rbp
1000061d0: c3                          	retq
1000061d1: 66 2e 0f 1f 84 00 00 00 00 00       	nopw	%cs:(%rax,%rax)
1000061db: 0f 1f 44 00 00              	nopl	(%rax,%rax)

00000001000061e0 __ZNSt3__1L7forwardINS_22__hash_node_destructorINS_9allocatorINS_11__hash_nodeIiPvEEEEEEEEOT_RNS_16remove_referenceIS8_E4typeE:
1000061e0: 55                          	pushq	%rbp
1000061e1: 48 89 e5                    	movq	%rsp, %rbp
1000061e4: 48 89 7d f8                 	movq	%rdi, -8(%rbp)
1000061e8: 48 8b 45 f8                 	movq	-8(%rbp), %rax
1000061ec: 5d                          	popq	%rbp
1000061ed: c3                          	retq
1000061ee: 66 90                       	nop

00000001000061f0 __ZNSt3__122__compressed_pair_elemINS_22__hash_node_destructorINS_9allocatorINS_11__hash_nodeIiPvEEEEEELi1ELb0EEC2IS7_vEEOT_:
1000061f0: 55                          	pushq	%rbp
1000061f1: 48 89 e5                    	movq	%rsp, %rbp
1000061f4: 48 83 ec 20                 	subq	$32, %rsp
1000061f8: 48 89 7d f8                 	movq	%rdi, -8(%rbp)
1000061fc: 48 89 75 f0                 	movq	%rsi, -16(%rbp)
100006200: 48 8b 45 f8                 	movq	-8(%rbp), %rax
100006204: 48 8b 7d f0                 	movq	-16(%rbp), %rdi
100006208: 48 89 45 e8                 	movq	%rax, -24(%rbp)
10000620c: e8 cf ff ff ff              	callq	-49 <__ZNSt3__1L7forwardINS_22__hash_node_destructorINS_9allocatorINS_11__hash_nodeIiPvEEEEEEEEOT_RNS_16remove_referenceIS8_E4typeE>
100006211: 48 8b 08                    	movq	(%rax), %rcx
100006214: 48 8b 55 e8                 	movq	-24(%rbp), %rdx
100006218: 48 89 0a                    	movq	%rcx, (%rdx)
10000621b: 48 8b 40 08                 	movq	8(%rax), %rax
10000621f: 48 89 42 08                 	movq	%rax, 8(%rdx)
100006223: 48 83 c4 20                 	addq	$32, %rsp
100006227: 5d                          	popq	%rbp
100006228: c3                          	retq
100006229: 0f 1f 80 00 00 00 00        	nopl	(%rax)

0000000100006230 __ZNSt3__116allocator_traitsINS_9allocatorINS_11__hash_nodeIiPvEEEEE11__constructIiJRKiEEEvNS_17integral_constantIbLb1EEERS5_PT_DpOT0_:
100006230: 55                          	pushq	%rbp
100006231: 48 89 e5                    	movq	%rsp, %rbp
100006234: 48 83 ec 30                 	subq	$48, %rsp
100006238: 48 89 7d f0                 	movq	%rdi, -16(%rbp)
10000623c: 48 89 75 e8                 	movq	%rsi, -24(%rbp)
100006240: 48 89 55 e0                 	movq	%rdx, -32(%rbp)
100006244: 48 8b 7d f0                 	movq	-16(%rbp), %rdi
100006248: 48 8b 75 e8                 	movq	-24(%rbp), %rsi
10000624c: 48 8b 45 e0                 	movq	-32(%rbp), %rax
100006250: 48 89 7d d8                 	movq	%rdi, -40(%rbp)
100006254: 48 89 c7                    	movq	%rax, %rdi
100006257: 48 89 75 d0                 	movq	%rsi, -48(%rbp)
10000625b: e8 b0 f5 ff ff              	callq	-2640 <__ZNSt3__1L7forwardIRKiEEOT_RNS_16remove_referenceIS3_E4typeE>
100006260: 48 8b 7d d8                 	movq	-40(%rbp), %rdi
100006264: 48 8b 75 d0                 	movq	-48(%rbp), %rsi
100006268: 48 89 c2                    	movq	%rax, %rdx
10000626b: e8 10 00 00 00              	callq	16 <__ZNSt3__19allocatorINS_11__hash_nodeIiPvEEE9constructIiJRKiEEEvPT_DpOT0_>
100006270: 48 83 c4 30                 	addq	$48, %rsp
100006274: 5d                          	popq	%rbp
100006275: c3                          	retq
100006276: 66 2e 0f 1f 84 00 00 00 00 00       	nopw	%cs:(%rax,%rax)

0000000100006280 __ZNSt3__19allocatorINS_11__hash_nodeIiPvEEE9constructIiJRKiEEEvPT_DpOT0_:
100006280: 55                          	pushq	%rbp
100006281: 48 89 e5                    	movq	%rsp, %rbp
100006284: 48 83 ec 20                 	subq	$32, %rsp
100006288: 48 89 7d f8                 	movq	%rdi, -8(%rbp)
10000628c: 48 89 75 f0                 	movq	%rsi, -16(%rbp)
100006290: 48 89 55 e8                 	movq	%rdx, -24(%rbp)
100006294: 48 8b 45 f0                 	movq	-16(%rbp), %rax
100006298: 48 8b 7d e8                 	movq	-24(%rbp), %rdi
10000629c: 48 89 45 e0                 	movq	%rax, -32(%rbp)
1000062a0: e8 6b f5 ff ff              	callq	-2709 <__ZNSt3__1L7forwardIRKiEEOT_RNS_16remove_referenceIS3_E4typeE>
1000062a5: 8b 08                       	movl	(%rax), %ecx
1000062a7: 48 8b 45 e0                 	movq	-32(%rbp), %rax
1000062ab: 89 08                       	movl	%ecx, (%rax)
1000062ad: 48 83 c4 20                 	addq	$32, %rsp
1000062b1: 5d                          	popq	%rbp
1000062b2: c3                          	retq
1000062b3: 66 2e 0f 1f 84 00 00 00 00 00       	nopw	%cs:(%rax,%rax)
1000062bd: 0f 1f 00                    	nopl	(%rax)

00000001000062c0 __ZNSt3__117__compressed_pairIPNS_11__hash_nodeIiPvEENS_22__hash_node_destructorINS_9allocatorIS3_EEEEE6secondEv:
1000062c0: 55                          	pushq	%rbp
1000062c1: 48 89 e5                    	movq	%rsp, %rbp
1000062c4: 48 83 ec 10                 	subq	$16, %rsp
1000062c8: 48 89 7d f8                 	movq	%rdi, -8(%rbp)
1000062cc: 48 8b 45 f8                 	movq	-8(%rbp), %rax
1000062d0: 48 05 08 00 00 00           	addq	$8, %rax
1000062d6: 48 89 c7                    	movq	%rax, %rdi
1000062d9: e8 12 00 00 00              	callq	18 <__ZNSt3__122__compressed_pair_elemINS_22__hash_node_destructorINS_9allocatorINS_11__hash_nodeIiPvEEEEEELi1ELb0EE5__getEv>
1000062de: 48 83 c4 10                 	addq	$16, %rsp
1000062e2: 5d                          	popq	%rbp
1000062e3: c3                          	retq
1000062e4: 66 2e 0f 1f 84 00 00 00 00 00       	nopw	%cs:(%rax,%rax)
1000062ee: 66 90                       	nop

00000001000062f0 __ZNSt3__122__compressed_pair_elemINS_22__hash_node_destructorINS_9allocatorINS_11__hash_nodeIiPvEEEEEELi1ELb0EE5__getEv:
1000062f0: 55                          	pushq	%rbp
1000062f1: 48 89 e5                    	movq	%rsp, %rbp
1000062f4: 48 89 7d f8                 	movq	%rdi, -8(%rbp)
1000062f8: 48 8b 45 f8                 	movq	-8(%rbp), %rax
1000062fc: 5d                          	popq	%rbp
1000062fd: c3                          	retq
1000062fe: 66 90                       	nop

0000000100006300 __ZNSt3__117__compressed_pairImNS_4hashIiEEE5firstEv:
100006300: 55                          	pushq	%rbp
100006301: 48 89 e5                    	movq	%rsp, %rbp
100006304: 48 83 ec 10                 	subq	$16, %rsp
100006308: 48 89 7d f8                 	movq	%rdi, -8(%rbp)
10000630c: 48 8b 45 f8                 	movq	-8(%rbp), %rax
100006310: 48 89 c7                    	movq	%rax, %rdi
100006313: e8 b8 e1 ff ff              	callq	-7752 <__ZNSt3__122__compressed_pair_elemImLi0ELb0EE5__getEv>
100006318: 48 83 c4 10                 	addq	$16, %rsp
10000631c: 5d                          	popq	%rbp
10000631d: c3                          	retq
10000631e: 66 90                       	nop

0000000100006320 __ZNSt3__117__compressed_pairIfNS_8equal_toIiEEE5firstEv:
100006320: 55                          	pushq	%rbp
100006321: 48 89 e5                    	movq	%rsp, %rbp
100006324: 48 83 ec 10                 	subq	$16, %rsp
100006328: 48 89 7d f8                 	movq	%rdi, -8(%rbp)
10000632c: 48 8b 45 f8                 	movq	-8(%rbp), %rax
100006330: 48 89 c7                    	movq	%rax, %rdi
100006333: e8 08 00 00 00              	callq	8 <__ZNSt3__122__compressed_pair_elemIfLi0ELb0EE5__getEv>
100006338: 48 83 c4 10                 	addq	$16, %rsp
10000633c: 5d                          	popq	%rbp
10000633d: c3                          	retq
10000633e: 66 90                       	nop

0000000100006340 __ZNSt3__122__compressed_pair_elemIfLi0ELb0EE5__getEv:
100006340: 55                          	pushq	%rbp
100006341: 48 89 e5                    	movq	%rsp, %rbp
100006344: 48 89 7d f8                 	movq	%rdi, -8(%rbp)
100006348: 48 8b 45 f8                 	movq	-8(%rbp), %rax
10000634c: 5d                          	popq	%rbp
10000634d: c3                          	retq
10000634e: 66 90                       	nop

0000000100006350 __ZNSt3__112__hash_tableIiNS_4hashIiEENS_8equal_toIiEENS_9allocatorIiEEE8__rehashEm:
100006350: 55                          	pushq	%rbp
100006351: 48 89 e5                    	movq	%rsp, %rbp
100006354: 48 81 ec 90 00 00 00        	subq	$144, %rsp
10000635b: 48 89 7d f8                 	movq	%rdi, -8(%rbp)
10000635f: 48 89 75 f0                 	movq	%rsi, -16(%rbp)
100006363: 48 8b 45 f8                 	movq	-8(%rbp), %rax
100006367: 48 89 c7                    	movq	%rax, %rdi
10000636a: 48 89 45 b0                 	movq	%rax, -80(%rbp)
10000636e: e8 2d 03 00 00              	callq	813 <__ZNSt3__110unique_ptrIA_PNS_16__hash_node_baseIPNS_11__hash_nodeIiPvEEEENS_25__bucket_list_deallocatorINS_9allocatorIS7_EEEEE11get_deleterEv>
100006373: 48 89 c7                    	movq	%rax, %rdi
100006376: e8 d5 df ff ff              	callq	-8235 <__ZNSt3__125__bucket_list_deallocatorINS_9allocatorIPNS_16__hash_node_baseIPNS_11__hash_nodeIiPvEEEEEEE7__allocEv>
10000637b: 48 89 45 e8                 	movq	%rax, -24(%rbp)
10000637f: 48 83 7d f0 00              	cmpq	$0, -16(%rbp)
100006384: 0f 86 16 00 00 00           	jbe	22 <__ZNSt3__112__hash_tableIiNS_4hashIiEENS_8equal_toIiEENS_9allocatorIiEEE8__rehashEm+0x50>
10000638a: 48 8b 7d e8                 	movq	-24(%rbp), %rdi
10000638e: 48 8b 75 f0                 	movq	-16(%rbp), %rsi
100006392: e8 99 03 00 00              	callq	921 <__ZNSt3__116allocator_traitsINS_9allocatorIPNS_16__hash_node_baseIPNS_11__hash_nodeIiPvEEEEEEE8allocateERS9_m>
100006397: 48 89 45 a8                 	movq	%rax, -88(%rbp)
10000639b: e9 0d 00 00 00              	jmp	13 <__ZNSt3__112__hash_tableIiNS_4hashIiEENS_8equal_toIiEENS_9allocatorIiEEE8__rehashEm+0x5d>
1000063a0: 31 c0                       	xorl	%eax, %eax
1000063a2: 89 c1                       	movl	%eax, %ecx
1000063a4: 48 89 4d a8                 	movq	%rcx, -88(%rbp)
1000063a8: e9 00 00 00 00              	jmp	0 <__ZNSt3__112__hash_tableIiNS_4hashIiEENS_8equal_toIiEENS_9allocatorIiEEE8__rehashEm+0x5d>
1000063ad: 48 8b 45 a8                 	movq	-88(%rbp), %rax
1000063b1: 48 8b 7d b0                 	movq	-80(%rbp), %rdi
1000063b5: 48 89 c6                    	movq	%rax, %rsi
1000063b8: e8 03 03 00 00              	callq	771 <__ZNSt3__110unique_ptrIA_PNS_16__hash_node_baseIPNS_11__hash_nodeIiPvEEEENS_25__bucket_list_deallocatorINS_9allocatorIS7_EEEEE5resetIPS7_EENS_9enable_ifIXsr28_CheckArrayPointerConversionIT_EE5valueEvE4typeESH_>
1000063bd: 48 8b 45 f0                 	movq	-16(%rbp), %rax
1000063c1: 48 8b 7d b0                 	movq	-80(%rbp), %rdi
1000063c5: 48 89 45 a0                 	movq	%rax, -96(%rbp)
1000063c9: e8 d2 02 00 00              	callq	722 <__ZNSt3__110unique_ptrIA_PNS_16__hash_node_baseIPNS_11__hash_nodeIiPvEEEENS_25__bucket_list_deallocatorINS_9allocatorIS7_EEEEE11get_deleterEv>
1000063ce: 48 89 c7                    	movq	%rax, %rdi
1000063d1: e8 9a df ff ff              	callq	-8294 <__ZNSt3__125__bucket_list_deallocatorINS_9allocatorIPNS_16__hash_node_baseIPNS_11__hash_nodeIiPvEEEEEEE4sizeEv>
1000063d6: 48 8b 4d a0                 	movq	-96(%rbp), %rcx
1000063da: 48 89 08                    	movq	%rcx, (%rax)
1000063dd: 48 83 7d f0 00              	cmpq	$0, -16(%rbp)
1000063e2: 0f 86 44 02 00 00           	jbe	580 <__ZNSt3__112__hash_tableIiNS_4hashIiEENS_8equal_toIiEENS_9allocatorIiEEE8__rehashEm+0x2dc>
1000063e8: 48 c7 45 e0 00 00 00 00     	movq	$0, -32(%rbp)
1000063f0: 48 8b 45 e0                 	movq	-32(%rbp), %rax
1000063f4: 48 3b 45 f0                 	cmpq	-16(%rbp), %rax
1000063f8: 0f 83 27 00 00 00           	jae	39 <__ZNSt3__112__hash_tableIiNS_4hashIiEENS_8equal_toIiEENS_9allocatorIiEEE8__rehashEm+0xd5>
1000063fe: 48 8b 75 e0                 	movq	-32(%rbp), %rsi
100006402: 48 8b 7d b0                 	movq	-80(%rbp), %rdi
100006406: e8 15 f2 ff ff              	callq	-3563 <__ZNKSt3__110unique_ptrIA_PNS_16__hash_node_baseIPNS_11__hash_nodeIiPvEEEENS_25__bucket_list_deallocatorINS_9allocatorIS7_EEEEEixEm>
10000640b: 48 c7 00 00 00 00 00        	movq	$0, (%rax)
100006412: 48 8b 45 e0                 	movq	-32(%rbp), %rax
100006416: 48 05 01 00 00 00           	addq	$1, %rax
10000641c: 48 89 45 e0                 	movq	%rax, -32(%rbp)
100006420: e9 cb ff ff ff              	jmp	-53 <__ZNSt3__112__hash_tableIiNS_4hashIiEENS_8equal_toIiEENS_9allocatorIiEEE8__rehashEm+0xa0>
100006425: 48 8b 45 b0                 	movq	-80(%rbp), %rax
100006429: 48 05 10 00 00 00           	addq	$16, %rax
10000642f: 48 89 c7                    	movq	%rax, %rdi
100006432: e8 e9 e1 ff ff              	callq	-7703 <__ZNSt3__117__compressed_pairINS_16__hash_node_baseIPNS_11__hash_nodeIiPvEEEENS_9allocatorIS4_EEE5firstEv>
100006437: 48 89 c7                    	movq	%rax, %rdi
10000643a: e8 31 f7 ff ff              	callq	-2255 <__ZNSt3__116__hash_node_baseIPNS_11__hash_nodeIiPvEEE5__ptrEv>
10000643f: 48 89 45 d8                 	movq	%rax, -40(%rbp)
100006443: 48 8b 45 d8                 	movq	-40(%rbp), %rax
100006447: 48 8b 00                    	movq	(%rax), %rax
10000644a: 48 89 45 d0                 	movq	%rax, -48(%rbp)
10000644e: 48 83 7d d0 00              	cmpq	$0, -48(%rbp)
100006453: 0f 84 ce 01 00 00           	je	462 <__ZNSt3__112__hash_tableIiNS_4hashIiEENS_8equal_toIiEENS_9allocatorIiEEE8__rehashEm+0x2d7>
100006459: 48 8b 7d d0                 	movq	-48(%rbp), %rdi
10000645d: e8 ee f1 ff ff              	callq	-3602 <__ZNKSt3__116__hash_node_baseIPNS_11__hash_nodeIiPvEEE6__hashEv>
100006462: 48 8b 75 f0                 	movq	-16(%rbp), %rsi
100006466: 48 89 c7                    	movq	%rax, %rdi
100006469: e8 32 f1 ff ff              	callq	-3790 <__ZNSt3__1L16__constrain_hashEmm>
10000646e: 48 89 45 c8                 	movq	%rax, -56(%rbp)
100006472: 48 8b 45 d8                 	movq	-40(%rbp), %rax
100006476: 48 8b 75 c8                 	movq	-56(%rbp), %rsi
10000647a: 48 8b 7d b0                 	movq	-80(%rbp), %rdi
10000647e: 48 89 45 98                 	movq	%rax, -104(%rbp)
100006482: e8 99 f1 ff ff              	callq	-3687 <__ZNKSt3__110unique_ptrIA_PNS_16__hash_node_baseIPNS_11__hash_nodeIiPvEEEENS_25__bucket_list_deallocatorINS_9allocatorIS7_EEEEEixEm>
100006487: 48 8b 4d 98                 	movq	-104(%rbp), %rcx
10000648b: 48 89 08                    	movq	%rcx, (%rax)
10000648e: 48 8b 45 c8                 	movq	-56(%rbp), %rax
100006492: 48 89 45 c0                 	movq	%rax, -64(%rbp)
100006496: 48 8b 45 d0                 	movq	-48(%rbp), %rax
10000649a: 48 89 45 d8                 	movq	%rax, -40(%rbp)
10000649e: 48 8b 45 d0                 	movq	-48(%rbp), %rax
1000064a2: 48 8b 00                    	movq	(%rax), %rax
1000064a5: 48 89 45 d0                 	movq	%rax, -48(%rbp)
1000064a9: 48 83 7d d0 00              	cmpq	$0, -48(%rbp)
1000064ae: 0f 84 6e 01 00 00           	je	366 <__ZNSt3__112__hash_tableIiNS_4hashIiEENS_8equal_toIiEENS_9allocatorIiEEE8__rehashEm+0x2d2>
1000064b4: 48 8b 7d d0                 	movq	-48(%rbp), %rdi
1000064b8: e8 93 f1 ff ff              	callq	-3693 <__ZNKSt3__116__hash_node_baseIPNS_11__hash_nodeIiPvEEE6__hashEv>
1000064bd: 48 8b 75 f0                 	movq	-16(%rbp), %rsi
1000064c1: 48 89 c7                    	movq	%rax, %rdi
1000064c4: e8 d7 f0 ff ff              	callq	-3881 <__ZNSt3__1L16__constrain_hashEmm>
1000064c9: 48 89 45 c8                 	movq	%rax, -56(%rbp)
1000064cd: 48 8b 45 c8                 	movq	-56(%rbp), %rax
1000064d1: 48 3b 45 c0                 	cmpq	-64(%rbp), %rax
1000064d5: 0f 85 0d 00 00 00           	jne	13 <__ZNSt3__112__hash_tableIiNS_4hashIiEENS_8equal_toIiEENS_9allocatorIiEEE8__rehashEm+0x198>
1000064db: 48 8b 45 d0                 	movq	-48(%rbp), %rax
1000064df: 48 89 45 d8                 	movq	%rax, -40(%rbp)
1000064e3: e9 25 01 00 00              	jmp	293 <__ZNSt3__112__hash_tableIiNS_4hashIiEENS_8equal_toIiEENS_9allocatorIiEEE8__rehashEm+0x2bd>
1000064e8: 48 8b 75 c8                 	movq	-56(%rbp), %rsi
1000064ec: 48 8b 7d b0                 	movq	-80(%rbp), %rdi
1000064f0: e8 2b f1 ff ff              	callq	-3797 <__ZNKSt3__110unique_ptrIA_PNS_16__hash_node_baseIPNS_11__hash_nodeIiPvEEEENS_25__bucket_list_deallocatorINS_9allocatorIS7_EEEEEixEm>
1000064f5: 48 83 38 00                 	cmpq	$0, (%rax)
1000064f9: 0f 85 31 00 00 00           	jne	49 <__ZNSt3__112__hash_tableIiNS_4hashIiEENS_8equal_toIiEENS_9allocatorIiEEE8__rehashEm+0x1e0>
1000064ff: 48 8b 45 d8                 	movq	-40(%rbp), %rax
100006503: 48 8b 75 c8                 	movq	-56(%rbp), %rsi
100006507: 48 8b 7d b0                 	movq	-80(%rbp), %rdi
10000650b: 48 89 45 90                 	movq	%rax, -112(%rbp)
10000650f: e8 0c f1 ff ff              	callq	-3828 <__ZNKSt3__110unique_ptrIA_PNS_16__hash_node_baseIPNS_11__hash_nodeIiPvEEEENS_25__bucket_list_deallocatorINS_9allocatorIS7_EEEEEixEm>
100006514: 48 8b 4d 90                 	movq	-112(%rbp), %rcx
100006518: 48 89 08                    	movq	%rcx, (%rax)
10000651b: 48 8b 45 d0                 	movq	-48(%rbp), %rax
10000651f: 48 89 45 d8                 	movq	%rax, -40(%rbp)
100006523: 48 8b 45 c8                 	movq	-56(%rbp), %rax
100006527: 48 89 45 c0                 	movq	%rax, -64(%rbp)
10000652b: e9 d8 00 00 00              	jmp	216 <__ZNSt3__112__hash_tableIiNS_4hashIiEENS_8equal_toIiEENS_9allocatorIiEEE8__rehashEm+0x2b8>
100006530: 48 8b 45 d0                 	movq	-48(%rbp), %rax
100006534: 48 89 45 b8                 	movq	%rax, -72(%rbp)
100006538: 31 c0                       	xorl	%eax, %eax
10000653a: 48 8b 4d b8                 	movq	-72(%rbp), %rcx
10000653e: 48 83 39 00                 	cmpq	$0, (%rcx)
100006542: 88 45 8f                    	movb	%al, -113(%rbp)
100006545: 0f 84 4b 00 00 00           	je	75 <__ZNSt3__112__hash_tableIiNS_4hashIiEENS_8equal_toIiEENS_9allocatorIiEEE8__rehashEm+0x246>
10000654b: 48 8b 7d b0                 	movq	-80(%rbp), %rdi
10000654f: e8 1c f1 ff ff              	callq	-3812 <__ZNSt3__112__hash_tableIiNS_4hashIiEENS_8equal_toIiEENS_9allocatorIiEEE6key_eqEv>
100006554: 48 8b 7d d0                 	movq	-48(%rbp), %rdi
100006558: 48 89 45 80                 	movq	%rax, -128(%rbp)
10000655c: e8 0f e1 ff ff              	callq	-7921 <__ZNSt3__116__hash_node_baseIPNS_11__hash_nodeIiPvEEE8__upcastEv>
100006561: 48 05 10 00 00 00           	addq	$16, %rax
100006567: 48 8b 4d b8                 	movq	-72(%rbp), %rcx
10000656b: 48 8b 39                    	movq	(%rcx), %rdi
10000656e: 48 89 85 78 ff ff ff        	movq	%rax, -136(%rbp)
100006575: e8 f6 e0 ff ff              	callq	-7946 <__ZNSt3__116__hash_node_baseIPNS_11__hash_nodeIiPvEEE8__upcastEv>
10000657a: 48 05 10 00 00 00           	addq	$16, %rax
100006580: 48 8b 7d 80                 	movq	-128(%rbp), %rdi
100006584: 48 8b b5 78 ff ff ff        	movq	-136(%rbp), %rsi
10000658b: 48 89 c2                    	movq	%rax, %rdx
10000658e: e8 0d f1 ff ff              	callq	-3827 <__ZNKSt3__18equal_toIiEclERKiS3_>
100006593: 88 45 8f                    	movb	%al, -113(%rbp)
100006596: 8a 45 8f                    	movb	-113(%rbp), %al
100006599: a8 01                       	testb	$1, %al
10000659b: 0f 85 05 00 00 00           	jne	5 <__ZNSt3__112__hash_tableIiNS_4hashIiEENS_8equal_toIiEENS_9allocatorIiEEE8__rehashEm+0x256>
1000065a1: e9 15 00 00 00              	jmp	21 <__ZNSt3__112__hash_tableIiNS_4hashIiEENS_8equal_toIiEENS_9allocatorIiEEE8__rehashEm+0x26b>
1000065a6: e9 00 00 00 00              	jmp	0 <__ZNSt3__112__hash_tableIiNS_4hashIiEENS_8equal_toIiEENS_9allocatorIiEEE8__rehashEm+0x25b>
1000065ab: 48 8b 45 b8                 	movq	-72(%rbp), %rax
1000065af: 48 8b 00                    	movq	(%rax), %rax
1000065b2: 48 89 45 b8                 	movq	%rax, -72(%rbp)
1000065b6: e9 7d ff ff ff              	jmp	-131 <__ZNSt3__112__hash_tableIiNS_4hashIiEENS_8equal_toIiEENS_9allocatorIiEEE8__rehashEm+0x1e8>
1000065bb: 48 8b 45 b8                 	movq	-72(%rbp), %rax
1000065bf: 48 8b 00                    	movq	(%rax), %rax
1000065c2: 48 8b 4d d8                 	movq	-40(%rbp), %rcx
1000065c6: 48 89 01                    	movq	%rax, (%rcx)
1000065c9: 48 8b 75 c8                 	movq	-56(%rbp), %rsi
1000065cd: 48 8b 7d b0                 	movq	-80(%rbp), %rdi
1000065d1: e8 4a f0 ff ff              	callq	-4022 <__ZNKSt3__110unique_ptrIA_PNS_16__hash_node_baseIPNS_11__hash_nodeIiPvEEEENS_25__bucket_list_deallocatorINS_9allocatorIS7_EEEEEixEm>
1000065d6: 48 8b 00                    	movq	(%rax), %rax
1000065d9: 48 8b 00                    	movq	(%rax), %rax
1000065dc: 48 8b 4d b8                 	movq	-72(%rbp), %rcx
1000065e0: 48 89 01                    	movq	%rax, (%rcx)
1000065e3: 48 8b 45 d0                 	movq	-48(%rbp), %rax
1000065e7: 48 8b 75 c8                 	movq	-56(%rbp), %rsi
1000065eb: 48 8b 7d b0                 	movq	-80(%rbp), %rdi
1000065ef: 48 89 85 70 ff ff ff        	movq	%rax, -144(%rbp)
1000065f6: e8 25 f0 ff ff              	callq	-4059 <__ZNKSt3__110unique_ptrIA_PNS_16__hash_node_baseIPNS_11__hash_nodeIiPvEEEENS_25__bucket_list_deallocatorINS_9allocatorIS7_EEEEEixEm>
1000065fb: 48 8b 00                    	movq	(%rax), %rax
1000065fe: 48 8b 8d 70 ff ff ff        	movq	-144(%rbp), %rcx
100006605: 48 89 08                    	movq	%rcx, (%rax)
100006608: e9 00 00 00 00              	jmp	0 <__ZNSt3__112__hash_tableIiNS_4hashIiEENS_8equal_toIiEENS_9allocatorIiEEE8__rehashEm+0x2bd>
10000660d: e9 00 00 00 00              	jmp	0 <__ZNSt3__112__hash_tableIiNS_4hashIiEENS_8equal_toIiEENS_9allocatorIiEEE8__rehashEm+0x2c2>
100006612: 48 8b 45 d8                 	movq	-40(%rbp), %rax
100006616: 48 8b 00                    	movq	(%rax), %rax
100006619: 48 89 45 d0                 	movq	%rax, -48(%rbp)
10000661d: e9 87 fe ff ff              	jmp	-377 <__ZNSt3__112__hash_tableIiNS_4hashIiEENS_8equal_toIiEENS_9allocatorIiEEE8__rehashEm+0x159>
100006622: e9 00 00 00 00              	jmp	0 <__ZNSt3__112__hash_tableIiNS_4hashIiEENS_8equal_toIiEENS_9allocatorIiEEE8__rehashEm+0x2d7>
100006627: e9 00 00 00 00              	jmp	0 <__ZNSt3__112__hash_tableIiNS_4hashIiEENS_8equal_toIiEENS_9allocatorIiEEE8__rehashEm+0x2dc>
10000662c: 48 81 c4 90 00 00 00        	addq	$144, %rsp
100006633: 5d                          	popq	%rbp
100006634: c3                          	retq
100006635: 66 2e 0f 1f 84 00 00 00 00 00       	nopw	%cs:(%rax,%rax)
10000663f: 90                          	nop

0000000100006640 __ZNSt3__1L16__next_hash_pow2Em:
100006640: 55                          	pushq	%rbp
100006641: 48 89 e5                    	movq	%rsp, %rbp
100006644: 48 83 ec 10                 	subq	$16, %rsp
100006648: 48 89 7d f8                 	movq	%rdi, -8(%rbp)
10000664c: 48 83 7d f8 02              	cmpq	$2, -8(%rbp)
100006651: 0f 83 0d 00 00 00           	jae	13 <__ZNSt3__1L16__next_hash_pow2Em+0x24>
100006657: 48 8b 45 f8                 	movq	-8(%rbp), %rax
10000665b: 48 89 45 f0                 	movq	%rax, -16(%rbp)
10000665f: e9 29 00 00 00              	jmp	41 <__ZNSt3__1L16__next_hash_pow2Em+0x4d>
100006664: 48 8b 45 f8                 	movq	-8(%rbp), %rax
100006668: 48 2d 01 00 00 00           	subq	$1, %rax
10000666e: 48 89 c7                    	movq	%rax, %rdi
100006671: e8 6a 01 00 00              	callq	362 <__ZNSt3__1L12__libcpp_clzEm>
100006676: b9 40 00 00 00              	movl	$64, %ecx
10000667b: 29 c1                       	subl	%eax, %ecx
10000667d: 89 c8                       	movl	%ecx, %eax
10000667f: 89 c1                       	movl	%eax, %ecx
100006681: ba 01 00 00 00              	movl	$1, %edx
100006686: 48 d3 e2                    	shlq	%cl, %rdx
100006689: 48 89 55 f0                 	movq	%rdx, -16(%rbp)
10000668d: 48 8b 45 f0                 	movq	-16(%rbp), %rax
100006691: 48 83 c4 10                 	addq	$16, %rsp
100006695: 5d                          	popq	%rbp
100006696: c3                          	retq
100006697: 66 0f 1f 84 00 00 00 00 00  	nopw	(%rax,%rax)

00000001000066a0 __ZNSt3__110unique_ptrIA_PNS_16__hash_node_baseIPNS_11__hash_nodeIiPvEEEENS_25__bucket_list_deallocatorINS_9allocatorIS7_EEEEE11get_deleterEv:
1000066a0: 55                          	pushq	%rbp
1000066a1: 48 89 e5                    	movq	%rsp, %rbp
1000066a4: 48 83 ec 10                 	subq	$16, %rsp
1000066a8: 48 89 7d f8                 	movq	%rdi, -8(%rbp)
1000066ac: 48 8b 7d f8                 	movq	-8(%rbp), %rdi
1000066b0: e8 cb db ff ff              	callq	-9269 <__ZNSt3__117__compressed_pairIPPNS_16__hash_node_baseIPNS_11__hash_nodeIiPvEEEENS_25__bucket_list_deallocatorINS_9allocatorIS7_EEEEE6secondEv>
1000066b5: 48 83 c4 10                 	addq	$16, %rsp
1000066b9: 5d                          	popq	%rbp
1000066ba: c3                          	retq
1000066bb: 0f 1f 44 00 00              	nopl	(%rax,%rax)

00000001000066c0 __ZNSt3__110unique_ptrIA_PNS_16__hash_node_baseIPNS_11__hash_nodeIiPvEEEENS_25__bucket_list_deallocatorINS_9allocatorIS7_EEEEE5resetIPS7_EENS_9enable_ifIXsr28_CheckArrayPointerConversionIT_EE5valueEvE4typeESH_:
1000066c0: 55                          	pushq	%rbp
1000066c1: 48 89 e5                    	movq	%rsp, %rbp
1000066c4: 48 83 ec 30                 	subq	$48, %rsp
1000066c8: 48 89 7d f8                 	movq	%rdi, -8(%rbp)
1000066cc: 48 89 75 f0                 	movq	%rsi, -16(%rbp)
1000066d0: 48 8b 45 f8                 	movq	-8(%rbp), %rax
1000066d4: 48 89 c7                    	movq	%rax, %rdi
1000066d7: 48 89 45 e0                 	movq	%rax, -32(%rbp)
1000066db: e8 80 db ff ff              	callq	-9344 <__ZNSt3__117__compressed_pairIPPNS_16__hash_node_baseIPNS_11__hash_nodeIiPvEEEENS_25__bucket_list_deallocatorINS_9allocatorIS7_EEEEE5firstEv>
1000066e0: 48 8b 00                    	movq	(%rax), %rax
1000066e3: 48 89 45 e8                 	movq	%rax, -24(%rbp)
1000066e7: 48 8b 45 f0                 	movq	-16(%rbp), %rax
1000066eb: 48 8b 7d e0                 	movq	-32(%rbp), %rdi
1000066ef: 48 89 45 d8                 	movq	%rax, -40(%rbp)
1000066f3: e8 68 db ff ff              	callq	-9368 <__ZNSt3__117__compressed_pairIPPNS_16__hash_node_baseIPNS_11__hash_nodeIiPvEEEENS_25__bucket_list_deallocatorINS_9allocatorIS7_EEEEE5firstEv>
1000066f8: 48 8b 4d d8                 	movq	-40(%rbp), %rcx
1000066fc: 48 89 08                    	movq	%rcx, (%rax)
1000066ff: 48 83 7d e8 00              	cmpq	$0, -24(%rbp)
100006704: 0f 84 15 00 00 00           	je	21 <__ZNSt3__110unique_ptrIA_PNS_16__hash_node_baseIPNS_11__hash_nodeIiPvEEEENS_25__bucket_list_deallocatorINS_9allocatorIS7_EEEEE5resetIPS7_EENS_9enable_ifIXsr28_CheckArrayPointerConversionIT_EE5valueEvE4typeESH_+0x5f>
10000670a: 48 8b 7d e0                 	movq	-32(%rbp), %rdi
10000670e: e8 6d db ff ff              	callq	-9363 <__ZNSt3__117__compressed_pairIPPNS_16__hash_node_baseIPNS_11__hash_nodeIiPvEEEENS_25__bucket_list_deallocatorINS_9allocatorIS7_EEEEE6secondEv>
100006713: 48 8b 75 e8                 	movq	-24(%rbp), %rsi
100006717: 48 89 c7                    	movq	%rax, %rdi
10000671a: e8 91 db ff ff              	callq	-9327 <__ZNSt3__125__bucket_list_deallocatorINS_9allocatorIPNS_16__hash_node_baseIPNS_11__hash_nodeIiPvEEEEEEEclEPS8_>
10000671f: 48 83 c4 30                 	addq	$48, %rsp
100006723: 5d                          	popq	%rbp
100006724: c3                          	retq
100006725: 66 2e 0f 1f 84 00 00 00 00 00       	nopw	%cs:(%rax,%rax)
10000672f: 90                          	nop

0000000100006730 __ZNSt3__116allocator_traitsINS_9allocatorIPNS_16__hash_node_baseIPNS_11__hash_nodeIiPvEEEEEEE8allocateERS9_m:
100006730: 55                          	pushq	%rbp
100006731: 48 89 e5                    	movq	%rsp, %rbp
100006734: 48 83 ec 10                 	subq	$16, %rsp
100006738: 31 c0                       	xorl	%eax, %eax
10000673a: 89 c2                       	movl	%eax, %edx
10000673c: 48 89 7d f8                 	movq	%rdi, -8(%rbp)
100006740: 48 89 75 f0                 	movq	%rsi, -16(%rbp)
100006744: 48 8b 7d f8                 	movq	-8(%rbp), %rdi
100006748: 48 8b 75 f0                 	movq	-16(%rbp), %rsi
10000674c: e8 0f 00 00 00              	callq	15 <__ZNSt3__19allocatorIPNS_16__hash_node_baseIPNS_11__hash_nodeIiPvEEEEE8allocateEmPKv>
100006751: 48 83 c4 10                 	addq	$16, %rsp
100006755: 5d                          	popq	%rbp
100006756: c3                          	retq
100006757: 66 0f 1f 84 00 00 00 00 00  	nopw	(%rax,%rax)

0000000100006760 __ZNSt3__19allocatorIPNS_16__hash_node_baseIPNS_11__hash_nodeIiPvEEEEE8allocateEmPKv:
100006760: 55                          	pushq	%rbp
100006761: 48 89 e5                    	movq	%rsp, %rbp
100006764: 48 83 ec 20                 	subq	$32, %rsp
100006768: 48 89 7d f8                 	movq	%rdi, -8(%rbp)
10000676c: 48 89 75 f0                 	movq	%rsi, -16(%rbp)
100006770: 48 89 55 e8                 	movq	%rdx, -24(%rbp)
100006774: 48 8b 7d f8                 	movq	-8(%rbp), %rdi
100006778: 48 8b 45 f0                 	movq	-16(%rbp), %rax
10000677c: 48 89 45 e0                 	movq	%rax, -32(%rbp)
100006780: e8 3b 00 00 00              	callq	59 <__ZNKSt3__19allocatorIPNS_16__hash_node_baseIPNS_11__hash_nodeIiPvEEEEE8max_sizeEv>
100006785: 48 8b 4d e0                 	movq	-32(%rbp), %rcx
100006789: 48 39 c1                    	cmpq	%rax, %rcx
10000678c: 0f 86 0c 00 00 00           	jbe	12 <__ZNSt3__19allocatorIPNS_16__hash_node_baseIPNS_11__hash_nodeIiPvEEEEE8allocateEmPKv+0x3e>
100006792: 48 8d 3d 73 16 00 00        	leaq	5747(%rip), %rdi
100006799: e8 c2 f7 ff ff              	callq	-2110 <__ZNSt3__1L20__throw_length_errorEPKc>
10000679e: 48 8b 45 f0                 	movq	-16(%rbp), %rax
1000067a2: 48 c1 e0 03                 	shlq	$3, %rax
1000067a6: 48 89 c7                    	movq	%rax, %rdi
1000067a9: be 08 00 00 00              	movl	$8, %esi
1000067ae: e8 0d f8 ff ff              	callq	-2035 <__ZNSt3__1L17__libcpp_allocateEmm>
1000067b3: 48 83 c4 20                 	addq	$32, %rsp
1000067b7: 5d                          	popq	%rbp
1000067b8: c3                          	retq
1000067b9: 0f 1f 80 00 00 00 00        	nopl	(%rax)

00000001000067c0 __ZNKSt3__19allocatorIPNS_16__hash_node_baseIPNS_11__hash_nodeIiPvEEEEE8max_sizeEv:
1000067c0: 55                          	pushq	%rbp
1000067c1: 48 89 e5                    	movq	%rsp, %rbp
1000067c4: 48 89 7d f8                 	movq	%rdi, -8(%rbp)
1000067c8: 48 b8 ff ff ff ff ff ff ff 1f       	movabsq	$2305843009213693951, %rax
1000067d2: 5d                          	popq	%rbp
1000067d3: c3                          	retq
1000067d4: 66 2e 0f 1f 84 00 00 00 00 00       	nopw	%cs:(%rax,%rax)
1000067de: 66 90                       	nop

00000001000067e0 __ZNSt3__1L12__libcpp_clzEm:
1000067e0: 55                          	pushq	%rbp
1000067e1: 48 89 e5                    	movq	%rsp, %rbp
1000067e4: 48 89 7d f8                 	movq	%rdi, -8(%rbp)
1000067e8: 48 8b 45 f8                 	movq	-8(%rbp), %rax
1000067ec: 48 0f bd c0                 	bsrq	%rax, %rax
1000067f0: 48 83 f0 3f                 	xorq	$63, %rax
1000067f4: 5d                          	popq	%rbp
1000067f5: c3                          	retq
1000067f6: 66 2e 0f 1f 84 00 00 00 00 00       	nopw	%cs:(%rax,%rax)

0000000100006800 __ZNSt3__1L3maxImNS_6__lessImmEEEERKT_S5_S5_T0_:
100006800: 55                          	pushq	%rbp
100006801: 48 89 e5                    	movq	%rsp, %rbp
100006804: 48 83 ec 20                 	subq	$32, %rsp
100006808: 48 89 7d f0                 	movq	%rdi, -16(%rbp)
10000680c: 48 89 75 e8                 	movq	%rsi, -24(%rbp)
100006810: 48 8b 75 f0                 	movq	-16(%rbp), %rsi
100006814: 48 8b 55 e8                 	movq	-24(%rbp), %rdx
100006818: 48 8d 7d f8                 	leaq	-8(%rbp), %rdi
10000681c: e8 2f 00 00 00              	callq	47 <__ZNKSt3__16__lessImmEclERKmS3_>
100006821: a8 01                       	testb	$1, %al
100006823: 0f 85 05 00 00 00           	jne	5 <__ZNSt3__1L3maxImNS_6__lessImmEEEERKT_S5_S5_T0_+0x2e>
100006829: e9 0d 00 00 00              	jmp	13 <__ZNSt3__1L3maxImNS_6__lessImmEEEERKT_S5_S5_T0_+0x3b>
10000682e: 48 8b 45 e8                 	movq	-24(%rbp), %rax
100006832: 48 89 45 e0                 	movq	%rax, -32(%rbp)
100006836: e9 08 00 00 00              	jmp	8 <__ZNSt3__1L3maxImNS_6__lessImmEEEERKT_S5_S5_T0_+0x43>
10000683b: 48 8b 45 f0                 	movq	-16(%rbp), %rax
10000683f: 48 89 45 e0                 	movq	%rax, -32(%rbp)
100006843: 48 8b 45 e0                 	movq	-32(%rbp), %rax
100006847: 48 83 c4 20                 	addq	$32, %rsp
10000684b: 5d                          	popq	%rbp
10000684c: c3                          	retq
10000684d: 0f 1f 00                    	nopl	(%rax)

0000000100006850 __ZNKSt3__16__lessImmEclERKmS3_:
100006850: 55                          	pushq	%rbp
100006851: 48 89 e5                    	movq	%rsp, %rbp
100006854: 48 89 7d f8                 	movq	%rdi, -8(%rbp)
100006858: 48 89 75 f0                 	movq	%rsi, -16(%rbp)
10000685c: 48 89 55 e8                 	movq	%rdx, -24(%rbp)
100006860: 48 8b 45 f0                 	movq	-16(%rbp), %rax
100006864: 48 8b 00                    	movq	(%rax), %rax
100006867: 48 8b 4d e8                 	movq	-24(%rbp), %rcx
10000686b: 48 3b 01                    	cmpq	(%rcx), %rax
10000686e: 41 0f 92 c0                 	setb	%r8b
100006872: 41 80 e0 01                 	andb	$1, %r8b
100006876: 41 0f b6 c0                 	movzbl	%r8b, %eax
10000687a: 5d                          	popq	%rbp
10000687b: c3                          	retq
10000687c: 0f 1f 40 00                 	nopl	(%rax)

0000000100006880 __ZNKSt3__117__compressed_pairIPNS_11__hash_nodeIiPvEENS_22__hash_node_destructorINS_9allocatorIS3_EEEEE5firstEv:
100006880: 55                          	pushq	%rbp
100006881: 48 89 e5                    	movq	%rsp, %rbp
100006884: 48 83 ec 10                 	subq	$16, %rsp
100006888: 48 89 7d f8                 	movq	%rdi, -8(%rbp)
10000688c: 48 8b 45 f8                 	movq	-8(%rbp), %rax
100006890: 48 89 c7                    	movq	%rax, %rdi
100006893: e8 08 00 00 00              	callq	8 <__ZNKSt3__122__compressed_pair_elemIPNS_11__hash_nodeIiPvEELi0ELb0EE5__getEv>
100006898: 48 83 c4 10                 	addq	$16, %rsp
10000689c: 5d                          	popq	%rbp
10000689d: c3                          	retq
10000689e: 66 90                       	nop

00000001000068a0 __ZNKSt3__122__compressed_pair_elemIPNS_11__hash_nodeIiPvEELi0ELb0EE5__getEv:
1000068a0: 55                          	pushq	%rbp
1000068a1: 48 89 e5                    	movq	%rsp, %rbp
1000068a4: 48 89 7d f8                 	movq	%rdi, -8(%rbp)
1000068a8: 48 8b 45 f8                 	movq	-8(%rbp), %rax
1000068ac: 5d                          	popq	%rbp
1000068ad: c3                          	retq
1000068ae: 66 90                       	nop

00000001000068b0 __ZNSt3__117__compressed_pairIPNS_11__hash_nodeIiPvEENS_22__hash_node_destructorINS_9allocatorIS3_EEEEE5firstEv:
1000068b0: 55                          	pushq	%rbp
1000068b1: 48 89 e5                    	movq	%rsp, %rbp
1000068b4: 48 83 ec 10                 	subq	$16, %rsp
1000068b8: 48 89 7d f8                 	movq	%rdi, -8(%rbp)
1000068bc: 48 8b 45 f8                 	movq	-8(%rbp), %rax
1000068c0: 48 89 c7                    	movq	%rax, %rdi
1000068c3: e8 08 00 00 00              	callq	8 <__ZNSt3__122__compressed_pair_elemIPNS_11__hash_nodeIiPvEELi0ELb0EE5__getEv>
1000068c8: 48 83 c4 10                 	addq	$16, %rsp
1000068cc: 5d                          	popq	%rbp
1000068cd: c3                          	retq
1000068ce: 66 90                       	nop

00000001000068d0 __ZNSt3__122__compressed_pair_elemIPNS_11__hash_nodeIiPvEELi0ELb0EE5__getEv:
1000068d0: 55                          	pushq	%rbp
1000068d1: 48 89 e5                    	movq	%rsp, %rbp
1000068d4: 48 89 7d f8                 	movq	%rdi, -8(%rbp)
1000068d8: 48 8b 45 f8                 	movq	-8(%rbp), %rax
1000068dc: 5d                          	popq	%rbp
1000068dd: c3                          	retq
1000068de: 66 90                       	nop

00000001000068e0 __ZNSt3__110unique_ptrINS_11__hash_nodeIiPvEENS_22__hash_node_destructorINS_9allocatorIS3_EEEEED2Ev:
1000068e0: 55                          	pushq	%rbp
1000068e1: 48 89 e5                    	movq	%rsp, %rbp
1000068e4: 48 83 ec 10                 	subq	$16, %rsp
1000068e8: 31 c0                       	xorl	%eax, %eax
1000068ea: 89 c6                       	movl	%eax, %esi
1000068ec: 48 89 7d f8                 	movq	%rdi, -8(%rbp)
1000068f0: 48 8b 7d f8                 	movq	-8(%rbp), %rdi
1000068f4: e8 07 00 00 00              	callq	7 <__ZNSt3__110unique_ptrINS_11__hash_nodeIiPvEENS_22__hash_node_destructorINS_9allocatorIS3_EEEEE5resetEPS3_>
1000068f9: 48 83 c4 10                 	addq	$16, %rsp
1000068fd: 5d                          	popq	%rbp
1000068fe: c3                          	retq
1000068ff: 90                          	nop

0000000100006900 __ZNSt3__110unique_ptrINS_11__hash_nodeIiPvEENS_22__hash_node_destructorINS_9allocatorIS3_EEEEE5resetEPS3_:
100006900: 55                          	pushq	%rbp
100006901: 48 89 e5                    	movq	%rsp, %rbp
100006904: 48 83 ec 30                 	subq	$48, %rsp
100006908: 48 89 7d f8                 	movq	%rdi, -8(%rbp)
10000690c: 48 89 75 f0                 	movq	%rsi, -16(%rbp)
100006910: 48 8b 45 f8                 	movq	-8(%rbp), %rax
100006914: 48 89 c7                    	movq	%rax, %rdi
100006917: 48 89 45 e0                 	movq	%rax, -32(%rbp)
10000691b: e8 90 ff ff ff              	callq	-112 <__ZNSt3__117__compressed_pairIPNS_11__hash_nodeIiPvEENS_22__hash_node_destructorINS_9allocatorIS3_EEEEE5firstEv>
100006920: 48 8b 00                    	movq	(%rax), %rax
100006923: 48 89 45 e8                 	movq	%rax, -24(%rbp)
100006927: 48 8b 45 f0                 	movq	-16(%rbp), %rax
10000692b: 48 8b 7d e0                 	movq	-32(%rbp), %rdi
10000692f: 48 89 45 d8                 	movq	%rax, -40(%rbp)
100006933: e8 78 ff ff ff              	callq	-136 <__ZNSt3__117__compressed_pairIPNS_11__hash_nodeIiPvEENS_22__hash_node_destructorINS_9allocatorIS3_EEEEE5firstEv>
100006938: 48 8b 4d d8                 	movq	-40(%rbp), %rcx
10000693c: 48 89 08                    	movq	%rcx, (%rax)
10000693f: 48 83 7d e8 00              	cmpq	$0, -24(%rbp)
100006944: 0f 84 15 00 00 00           	je	21 <__ZNSt3__110unique_ptrINS_11__hash_nodeIiPvEENS_22__hash_node_destructorINS_9allocatorIS3_EEEEE5resetEPS3_+0x5f>
10000694a: 48 8b 7d e0                 	movq	-32(%rbp), %rdi
10000694e: e8 6d f9 ff ff              	callq	-1683 <__ZNSt3__117__compressed_pairIPNS_11__hash_nodeIiPvEENS_22__hash_node_destructorINS_9allocatorIS3_EEEEE6secondEv>
100006953: 48 8b 75 e8                 	movq	-24(%rbp), %rsi
100006957: 48 89 c7                    	movq	%rax, %rdi
10000695a: e8 11 00 00 00              	callq	17 <__ZNSt3__122__hash_node_destructorINS_9allocatorINS_11__hash_nodeIiPvEEEEEclEPS4_>
10000695f: 48 83 c4 30                 	addq	$48, %rsp
100006963: 5d                          	popq	%rbp
100006964: c3                          	retq
100006965: 66 2e 0f 1f 84 00 00 00 00 00       	nopw	%cs:(%rax,%rax)
10000696f: 90                          	nop

0000000100006970 __ZNSt3__122__hash_node_destructorINS_9allocatorINS_11__hash_nodeIiPvEEEEEclEPS4_:
100006970: 55                          	pushq	%rbp
100006971: 48 89 e5                    	movq	%rsp, %rbp
100006974: 48 83 ec 30                 	subq	$48, %rsp
100006978: 48 89 7d f8                 	movq	%rdi, -8(%rbp)
10000697c: 48 89 75 f0                 	movq	%rsi, -16(%rbp)
100006980: 48 8b 45 f8                 	movq	-8(%rbp), %rax
100006984: f6 40 08 01                 	testb	$1, 8(%rax)
100006988: 48 89 45 e8                 	movq	%rax, -24(%rbp)
10000698c: 0f 84 3b 00 00 00           	je	59 <__ZNSt3__122__hash_node_destructorINS_9allocatorINS_11__hash_nodeIiPvEEEEEclEPS4_+0x5d>
100006992: 48 8b 45 e8                 	movq	-24(%rbp), %rax
100006996: 48 8b 38                    	movq	(%rax), %rdi
100006999: 48 8b 4d f0                 	movq	-16(%rbp), %rcx
10000699d: 48 83 c1 10                 	addq	$16, %rcx
1000069a1: 48 89 7d e0                 	movq	%rdi, -32(%rbp)
1000069a5: 48 89 cf                    	movq	%rcx, %rdi
1000069a8: e8 13 dd ff ff              	callq	-8941 <__ZNSt3__122__hash_key_value_typesIiE9__get_ptrERi>
1000069ad: 48 89 45 d8                 	movq	%rax, -40(%rbp)
1000069b1: e9 00 00 00 00              	jmp	0 <__ZNSt3__122__hash_node_destructorINS_9allocatorINS_11__hash_nodeIiPvEEEEEclEPS4_+0x46>
1000069b6: 48 8b 7d e0                 	movq	-32(%rbp), %rdi
1000069ba: 48 8b 75 d8                 	movq	-40(%rbp), %rsi
1000069be: e8 cd dc ff ff              	callq	-9011 <__ZNSt3__116allocator_traitsINS_9allocatorINS_11__hash_nodeIiPvEEEEE7destroyIiEEvRS5_PT_>
1000069c3: e9 00 00 00 00              	jmp	0 <__ZNSt3__122__hash_node_destructorINS_9allocatorINS_11__hash_nodeIiPvEEEEEclEPS4_+0x58>
1000069c8: e9 00 00 00 00              	jmp	0 <__ZNSt3__122__hash_node_destructorINS_9allocatorINS_11__hash_nodeIiPvEEEEEclEPS4_+0x5d>
1000069cd: 48 83 7d f0 00              	cmpq	$0, -16(%rbp)
1000069d2: 0f 84 15 00 00 00           	je	21 <__ZNSt3__122__hash_node_destructorINS_9allocatorINS_11__hash_nodeIiPvEEEEEclEPS4_+0x7d>
1000069d8: 48 8b 45 e8                 	movq	-24(%rbp), %rax
1000069dc: 48 8b 38                    	movq	(%rax), %rdi
1000069df: 48 8b 75 f0                 	movq	-16(%rbp), %rsi
1000069e3: ba 01 00 00 00              	movl	$1, %edx
1000069e8: e8 f3 dc ff ff              	callq	-8973 <__ZNSt3__116allocator_traitsINS_9allocatorINS_11__hash_nodeIiPvEEEEE10deallocateERS5_PS4_m>
1000069ed: 48 83 c4 30                 	addq	$48, %rsp
1000069f1: 5d                          	popq	%rbp
1000069f2: c3                          	retq
1000069f3: 48 89 c7                    	movq	%rax, %rdi
1000069f6: 48 89 55 d0                 	movq	%rdx, -48(%rbp)
1000069fa: e8 e1 d2 ff ff              	callq	-11551 <___clang_call_terminate>
1000069ff: 90                          	nop

0000000100006a00 __ZNSt3__115__hash_iteratorIPNS_11__hash_nodeIiPvEEEC2EPNS_16__hash_node_baseIS4_EE:
100006a00: 55                          	pushq	%rbp
100006a01: 48 89 e5                    	movq	%rsp, %rbp
100006a04: 48 89 7d f8                 	movq	%rdi, -8(%rbp)
100006a08: 48 89 75 f0                 	movq	%rsi, -16(%rbp)
100006a0c: 48 8b 45 f8                 	movq	-8(%rbp), %rax
100006a10: 48 8b 4d f0                 	movq	-16(%rbp), %rcx
100006a14: 48 89 08                    	movq	%rcx, (%rax)
100006a17: 5d                          	popq	%rbp
100006a18: c3                          	retq
100006a19: 0f 1f 80 00 00 00 00        	nopl	(%rax)

0000000100006a20 __ZNSt3__14pairINS_15__hash_iteratorIPNS_11__hash_nodeIiPvEEEEbEC2IS6_RbLb0EEEOT_OT0_:
100006a20: 55                          	pushq	%rbp
100006a21: 48 89 e5                    	movq	%rsp, %rbp
100006a24: 48 83 ec 20                 	subq	$32, %rsp
100006a28: 48 89 7d f8                 	movq	%rdi, -8(%rbp)
100006a2c: 48 89 75 f0                 	movq	%rsi, -16(%rbp)
100006a30: 48 89 55 e8                 	movq	%rdx, -24(%rbp)
100006a34: 48 8b 45 f8                 	movq	-8(%rbp), %rax
100006a38: 48 8b 7d f0                 	movq	-16(%rbp), %rdi
100006a3c: 48 89 45 e0                 	movq	%rax, -32(%rbp)
100006a40: e8 2b 00 00 00              	callq	43 <__ZNSt3__1L7forwardINS_15__hash_iteratorIPNS_11__hash_nodeIiPvEEEEEEOT_RNS_16remove_referenceIS7_E4typeE>
100006a45: 48 8b 00                    	movq	(%rax), %rax
100006a48: 48 8b 4d e0                 	movq	-32(%rbp), %rcx
100006a4c: 48 89 01                    	movq	%rax, (%rcx)
100006a4f: 48 8b 7d e8                 	movq	-24(%rbp), %rdi
100006a53: e8 28 00 00 00              	callq	40 <__ZNSt3__1L7forwardIRbEEOT_RNS_16remove_referenceIS2_E4typeE>
100006a58: 44 8a 00                    	movb	(%rax), %r8b
100006a5b: 41 80 e0 01                 	andb	$1, %r8b
100006a5f: 48 8b 45 e0                 	movq	-32(%rbp), %rax
100006a63: 44 88 40 08                 	movb	%r8b, 8(%rax)
100006a67: 48 83 c4 20                 	addq	$32, %rsp
100006a6b: 5d                          	popq	%rbp
100006a6c: c3                          	retq
100006a6d: 0f 1f 00                    	nopl	(%rax)

0000000100006a70 __ZNSt3__1L7forwardINS_15__hash_iteratorIPNS_11__hash_nodeIiPvEEEEEEOT_RNS_16remove_referenceIS7_E4typeE:
100006a70: 55                          	pushq	%rbp
100006a71: 48 89 e5                    	movq	%rsp, %rbp
100006a74: 48 89 7d f8                 	movq	%rdi, -8(%rbp)
100006a78: 48 8b 45 f8                 	movq	-8(%rbp), %rax
100006a7c: 5d                          	popq	%rbp
100006a7d: c3                          	retq
100006a7e: 66 90                       	nop

0000000100006a80 __ZNSt3__1L7forwardIRbEEOT_RNS_16remove_referenceIS2_E4typeE:
100006a80: 55                          	pushq	%rbp
100006a81: 48 89 e5                    	movq	%rsp, %rbp
100006a84: 48 89 7d f8                 	movq	%rdi, -8(%rbp)
100006a88: 48 8b 45 f8                 	movq	-8(%rbp), %rax
100006a8c: 5d                          	popq	%rbp
100006a8d: c3                          	retq
100006a8e: 66 90                       	nop

0000000100006a90 __ZNSt3__14pairINS_21__hash_const_iteratorIPNS_11__hash_nodeIiPvEEEEbEC2INS_15__hash_iteratorIS5_EEbLb0EEEONS0_IT_T0_EE:
100006a90: 55                          	pushq	%rbp
100006a91: 48 89 e5                    	movq	%rsp, %rbp
100006a94: 48 83 ec 20                 	subq	$32, %rsp
100006a98: 48 89 7d f8                 	movq	%rdi, -8(%rbp)
100006a9c: 48 89 75 f0                 	movq	%rsi, -16(%rbp)
100006aa0: 48 8b 45 f8                 	movq	-8(%rbp), %rax
100006aa4: 48 8b 7d f0                 	movq	-16(%rbp), %rdi
100006aa8: 48 89 45 e8                 	movq	%rax, -24(%rbp)
100006aac: e8 bf ff ff ff              	callq	-65 <__ZNSt3__1L7forwardINS_15__hash_iteratorIPNS_11__hash_nodeIiPvEEEEEEOT_RNS_16remove_referenceIS7_E4typeE>
100006ab1: 48 8b 7d e8                 	movq	-24(%rbp), %rdi
100006ab5: 48 89 c6                    	movq	%rax, %rsi
100006ab8: e8 33 00 00 00              	callq	51 <__ZNSt3__121__hash_const_iteratorIPNS_11__hash_nodeIiPvEEEC1ERKNS_15__hash_iteratorIS4_EE>
100006abd: 48 8b 45 f0                 	movq	-16(%rbp), %rax
100006ac1: 48 05 08 00 00 00           	addq	$8, %rax
100006ac7: 48 89 c7                    	movq	%rax, %rdi
100006aca: e8 51 00 00 00              	callq	81 <__ZNSt3__1L7forwardIbEEOT_RNS_16remove_referenceIS1_E4typeE>
100006acf: 8a 08                       	movb	(%rax), %cl
100006ad1: 80 e1 01                    	andb	$1, %cl
100006ad4: 48 8b 45 e8                 	movq	-24(%rbp), %rax
100006ad8: 88 48 08                    	movb	%cl, 8(%rax)
100006adb: 48 83 c4 20                 	addq	$32, %rsp
100006adf: 5d                          	popq	%rbp
100006ae0: c3                          	retq
100006ae1: 66 2e 0f 1f 84 00 00 00 00 00       	nopw	%cs:(%rax,%rax)
100006aeb: 0f 1f 44 00 00              	nopl	(%rax,%rax)

0000000100006af0 __ZNSt3__121__hash_const_iteratorIPNS_11__hash_nodeIiPvEEEC1ERKNS_15__hash_iteratorIS4_EE:
100006af0: 55                          	pushq	%rbp
100006af1: 48 89 e5                    	movq	%rsp, %rbp
100006af4: 48 83 ec 10                 	subq	$16, %rsp
100006af8: 48 89 7d f8                 	movq	%rdi, -8(%rbp)
100006afc: 48 89 75 f0                 	movq	%rsi, -16(%rbp)
100006b00: 48 8b 7d f8                 	movq	-8(%rbp), %rdi
100006b04: 48 8b 75 f0                 	movq	-16(%rbp), %rsi
100006b08: e8 23 00 00 00              	callq	35 <__ZNSt3__121__hash_const_iteratorIPNS_11__hash_nodeIiPvEEEC2ERKNS_15__hash_iteratorIS4_EE>
100006b0d: 48 83 c4 10                 	addq	$16, %rsp
100006b11: 5d                          	popq	%rbp
100006b12: c3                          	retq
100006b13: 66 2e 0f 1f 84 00 00 00 00 00       	nopw	%cs:(%rax,%rax)
100006b1d: 0f 1f 00                    	nopl	(%rax)

0000000100006b20 __ZNSt3__1L7forwardIbEEOT_RNS_16remove_referenceIS1_E4typeE:
100006b20: 55                          	pushq	%rbp
100006b21: 48 89 e5                    	movq	%rsp, %rbp
100006b24: 48 89 7d f8                 	movq	%rdi, -8(%rbp)
100006b28: 48 8b 45 f8                 	movq	-8(%rbp), %rax
100006b2c: 5d                          	popq	%rbp
100006b2d: c3                          	retq
100006b2e: 66 90                       	nop

0000000100006b30 __ZNSt3__121__hash_const_iteratorIPNS_11__hash_nodeIiPvEEEC2ERKNS_15__hash_iteratorIS4_EE:
100006b30: 55                          	pushq	%rbp
100006b31: 48 89 e5                    	movq	%rsp, %rbp
100006b34: 48 89 7d f8                 	movq	%rdi, -8(%rbp)
100006b38: 48 89 75 f0                 	movq	%rsi, -16(%rbp)
100006b3c: 48 8b 45 f8                 	movq	-8(%rbp), %rax
100006b40: 48 8b 4d f0                 	movq	-16(%rbp), %rcx
100006b44: 48 8b 09                    	movq	(%rcx), %rcx
100006b47: 48 89 08                    	movq	%rcx, (%rax)
100006b4a: 5d                          	popq	%rbp
100006b4b: c3                          	retq
100006b4c: 0f 1f 40 00                 	nopl	(%rax)

0000000100006b50 __ZNSt3__113__vector_baseIiNS_9allocatorIiEEE9__end_capEv:
100006b50: 55                          	pushq	%rbp
100006b51: 48 89 e5                    	movq	%rsp, %rbp
100006b54: 48 83 ec 10                 	subq	$16, %rsp
100006b58: 48 89 7d f8                 	movq	%rdi, -8(%rbp)
100006b5c: 48 8b 45 f8                 	movq	-8(%rbp), %rax
100006b60: 48 05 10 00 00 00           	addq	$16, %rax
100006b66: 48 89 c7                    	movq	%rax, %rdi
100006b69: e8 92 01 00 00              	callq	402 <__ZNSt3__117__compressed_pairIPiNS_9allocatorIiEEE5firstEv>
100006b6e: 48 83 c4 10                 	addq	$16, %rsp
100006b72: 5d                          	popq	%rbp
100006b73: c3                          	retq
100006b74: 66 2e 0f 1f 84 00 00 00 00 00       	nopw	%cs:(%rax,%rax)
100006b7e: 66 90                       	nop

0000000100006b80 __ZNSt3__16vectorIiNS_9allocatorIiEEE22__construct_one_at_endIJRKiEEEvDpOT_:
100006b80: 55                          	pushq	%rbp
100006b81: 48 89 e5                    	movq	%rsp, %rbp
100006b84: 48 83 ec 50                 	subq	$80, %rsp
100006b88: 48 89 7d f8                 	movq	%rdi, -8(%rbp)
100006b8c: 48 89 75 f0                 	movq	%rsi, -16(%rbp)
100006b90: 48 8b 45 f8                 	movq	-8(%rbp), %rax
100006b94: 48 8d 7d d8                 	leaq	-40(%rbp), %rdi
100006b98: ba 01 00 00 00              	movl	$1, %edx
100006b9d: 48 89 c6                    	movq	%rax, %rsi
100006ba0: 48 89 45 c0                 	movq	%rax, -64(%rbp)
100006ba4: e8 87 01 00 00              	callq	391 <__ZNSt3__16vectorIiNS_9allocatorIiEEE21_ConstructTransactionC1ERS3_m>
100006ba9: 48 8b 7d c0                 	movq	-64(%rbp), %rdi
100006bad: e8 ce e0 ff ff              	callq	-7986 <__ZNSt3__113__vector_baseIiNS_9allocatorIiEEE7__allocEv>
100006bb2: 48 8b 7d e0                 	movq	-32(%rbp), %rdi
100006bb6: 48 89 45 b8                 	movq	%rax, -72(%rbp)
100006bba: e8 b1 df ff ff              	callq	-8271 <__ZNSt3__1L12__to_addressIiEEPT_S2_>
100006bbf: 48 8b 7d f0                 	movq	-16(%rbp), %rdi
100006bc3: 48 89 45 b0                 	movq	%rax, -80(%rbp)
100006bc7: e8 44 ec ff ff              	callq	-5052 <__ZNSt3__1L7forwardIRKiEEOT_RNS_16remove_referenceIS3_E4typeE>
100006bcc: 48 8b 7d b8                 	movq	-72(%rbp), %rdi
100006bd0: 48 8b 75 b0                 	movq	-80(%rbp), %rsi
100006bd4: 48 89 c2                    	movq	%rax, %rdx
100006bd7: e8 84 01 00 00              	callq	388 <__ZNSt3__116allocator_traitsINS_9allocatorIiEEE9constructIiJRKiEEEvRS2_PT_DpOT0_>
100006bdc: e9 00 00 00 00              	jmp	0 <__ZNSt3__16vectorIiNS_9allocatorIiEEE22__construct_one_at_endIJRKiEEEvDpOT_+0x61>
100006be1: 48 8b 45 e0                 	movq	-32(%rbp), %rax
100006be5: 48 05 04 00 00 00           	addq	$4, %rax
100006beb: 48 89 45 e0                 	movq	%rax, -32(%rbp)
100006bef: 48 8d 7d d8                 	leaq	-40(%rbp), %rdi
100006bf3: e8 b8 01 00 00              	callq	440 <__ZNSt3__16vectorIiNS_9allocatorIiEEE21_ConstructTransactionD1Ev>
100006bf8: 48 83 c4 50                 	addq	$80, %rsp
100006bfc: 5d                          	popq	%rbp
100006bfd: c3                          	retq
100006bfe: 48 89 45 d0                 	movq	%rax, -48(%rbp)
100006c02: 89 55 cc                    	movl	%edx, -52(%rbp)
100006c05: 48 8d 7d d8                 	leaq	-40(%rbp), %rdi
100006c09: e8 a2 01 00 00              	callq	418 <__ZNSt3__16vectorIiNS_9allocatorIiEEE21_ConstructTransactionD1Ev>
100006c0e: 48 8b 7d d0                 	movq	-48(%rbp), %rdi
100006c12: e8 2b 0f 00 00              	callq	3883 <dyld_stub_binder+0x100007b42>
100006c17: 0f 0b                       	ud2
100006c19: 0f 1f 80 00 00 00 00        	nopl	(%rax)

0000000100006c20 __ZNSt3__16vectorIiNS_9allocatorIiEEE21__push_back_slow_pathIRKiEEvOT_:
100006c20: 55                          	pushq	%rbp
100006c21: 48 89 e5                    	movq	%rsp, %rbp
100006c24: 48 83 ec 70                 	subq	$112, %rsp
100006c28: 48 89 7d f8                 	movq	%rdi, -8(%rbp)
100006c2c: 48 89 75 f0                 	movq	%rsi, -16(%rbp)
100006c30: 48 8b 45 f8                 	movq	-8(%rbp), %rax
100006c34: 48 89 c7                    	movq	%rax, %rdi
100006c37: 48 89 45 a8                 	movq	%rax, -88(%rbp)
100006c3b: e8 40 e0 ff ff              	callq	-8128 <__ZNSt3__113__vector_baseIiNS_9allocatorIiEEE7__allocEv>
100006c40: 48 89 45 e8                 	movq	%rax, -24(%rbp)
100006c44: 48 8b 7d a8                 	movq	-88(%rbp), %rdi
100006c48: e8 03 df ff ff              	callq	-8445 <__ZNKSt3__16vectorIiNS_9allocatorIiEEE4sizeEv>
100006c4d: 48 ff c0                    	incq	%rax
100006c50: 48 8b 7d a8                 	movq	-88(%rbp), %rdi
100006c54: 48 89 c6                    	movq	%rax, %rsi
100006c57: e8 64 02 00 00              	callq	612 <__ZNKSt3__16vectorIiNS_9allocatorIiEEE11__recommendEm>
100006c5c: 48 8b 7d a8                 	movq	-88(%rbp), %rdi
100006c60: 48 89 45 a0                 	movq	%rax, -96(%rbp)
100006c64: e8 e7 de ff ff              	callq	-8473 <__ZNKSt3__16vectorIiNS_9allocatorIiEEE4sizeEv>
100006c69: 48 8b 4d e8                 	movq	-24(%rbp), %rcx
100006c6d: 48 8d 7d c0                 	leaq	-64(%rbp), %rdi
100006c71: 48 8b 75 a0                 	movq	-96(%rbp), %rsi
100006c75: 48 89 c2                    	movq	%rax, %rdx
100006c78: e8 e3 02 00 00              	callq	739 <__ZNSt3__114__split_bufferIiRNS_9allocatorIiEEEC1EmmS3_>
100006c7d: 48 8b 7d e8                 	movq	-24(%rbp), %rdi
100006c81: 48 8b 45 d0                 	movq	-48(%rbp), %rax
100006c85: 48 89 7d 98                 	movq	%rdi, -104(%rbp)
100006c89: 48 89 c7                    	movq	%rax, %rdi
100006c8c: e8 df de ff ff              	callq	-8481 <__ZNSt3__1L12__to_addressIiEEPT_S2_>
100006c91: 48 8b 7d f0                 	movq	-16(%rbp), %rdi
100006c95: 48 89 45 90                 	movq	%rax, -112(%rbp)
100006c99: e8 72 eb ff ff              	callq	-5262 <__ZNSt3__1L7forwardIRKiEEOT_RNS_16remove_referenceIS3_E4typeE>
100006c9e: 48 8b 7d 98                 	movq	-104(%rbp), %rdi
100006ca2: 48 8b 75 90                 	movq	-112(%rbp), %rsi
100006ca6: 48 89 c2                    	movq	%rax, %rdx
100006ca9: e8 b2 00 00 00              	callq	178 <__ZNSt3__116allocator_traitsINS_9allocatorIiEEE9constructIiJRKiEEEvRS2_PT_DpOT0_>
100006cae: e9 00 00 00 00              	jmp	0 <__ZNSt3__16vectorIiNS_9allocatorIiEEE21__push_back_slow_pathIRKiEEvOT_+0x93>
100006cb3: 48 8b 45 d0                 	movq	-48(%rbp), %rax
100006cb7: 48 83 c0 04                 	addq	$4, %rax
100006cbb: 48 89 45 d0                 	movq	%rax, -48(%rbp)
100006cbf: 48 8d 75 c0                 	leaq	-64(%rbp), %rsi
100006cc3: 48 8b 7d a8                 	movq	-88(%rbp), %rdi
100006cc7: e8 dc 0e 00 00              	callq	3804 <dyld_stub_binder+0x100007ba8>
100006ccc: e9 00 00 00 00              	jmp	0 <__ZNSt3__16vectorIiNS_9allocatorIiEEE21__push_back_slow_pathIRKiEEvOT_+0xb1>
100006cd1: 48 8d 7d c0                 	leaq	-64(%rbp), %rdi
100006cd5: e8 b6 03 00 00              	callq	950 <__ZNSt3__114__split_bufferIiRNS_9allocatorIiEEED1Ev>
100006cda: 48 83 c4 70                 	addq	$112, %rsp
100006cde: 5d                          	popq	%rbp
100006cdf: c3                          	retq
100006ce0: 48 89 45 b8                 	movq	%rax, -72(%rbp)
100006ce4: 89 55 b4                    	movl	%edx, -76(%rbp)
100006ce7: 48 8d 7d c0                 	leaq	-64(%rbp), %rdi
100006ceb: e8 a0 03 00 00              	callq	928 <__ZNSt3__114__split_bufferIiRNS_9allocatorIiEEED1Ev>
100006cf0: 48 8b 7d b8                 	movq	-72(%rbp), %rdi
100006cf4: e8 49 0e 00 00              	callq	3657 <dyld_stub_binder+0x100007b42>
100006cf9: 0f 0b                       	ud2
100006cfb: 0f 1f 44 00 00              	nopl	(%rax,%rax)

0000000100006d00 __ZNSt3__117__compressed_pairIPiNS_9allocatorIiEEE5firstEv:
100006d00: 55                          	pushq	%rbp
100006d01: 48 89 e5                    	movq	%rsp, %rbp
100006d04: 48 83 ec 10                 	subq	$16, %rsp
100006d08: 48 89 7d f8                 	movq	%rdi, -8(%rbp)
100006d0c: 48 8b 45 f8                 	movq	-8(%rbp), %rax
100006d10: 48 89 c7                    	movq	%rax, %rdi
100006d13: e8 08 00 00 00              	callq	8 <__ZNSt3__122__compressed_pair_elemIPiLi0ELb0EE5__getEv>
100006d18: 48 83 c4 10                 	addq	$16, %rsp
100006d1c: 5d                          	popq	%rbp
100006d1d: c3                          	retq
100006d1e: 66 90                       	nop

0000000100006d20 __ZNSt3__122__compressed_pair_elemIPiLi0ELb0EE5__getEv:
100006d20: 55                          	pushq	%rbp
100006d21: 48 89 e5                    	movq	%rsp, %rbp
100006d24: 48 89 7d f8                 	movq	%rdi, -8(%rbp)
100006d28: 48 8b 45 f8                 	movq	-8(%rbp), %rax
100006d2c: 5d                          	popq	%rbp
100006d2d: c3                          	retq
100006d2e: 66 90                       	nop

0000000100006d30 __ZNSt3__16vectorIiNS_9allocatorIiEEE21_ConstructTransactionC1ERS3_m:
100006d30: 55                          	pushq	%rbp
100006d31: 48 89 e5                    	movq	%rsp, %rbp
100006d34: 48 83 ec 20                 	subq	$32, %rsp
100006d38: 48 89 7d f8                 	movq	%rdi, -8(%rbp)
100006d3c: 48 89 75 f0                 	movq	%rsi, -16(%rbp)
100006d40: 48 89 55 e8                 	movq	%rdx, -24(%rbp)
100006d44: 48 8b 7d f8                 	movq	-8(%rbp), %rdi
100006d48: 48 8b 75 f0                 	movq	-16(%rbp), %rsi
100006d4c: 48 8b 55 e8                 	movq	-24(%rbp), %rdx
100006d50: e8 7b 00 00 00              	callq	123 <__ZNSt3__16vectorIiNS_9allocatorIiEEE21_ConstructTransactionC2ERS3_m>
100006d55: 48 83 c4 20                 	addq	$32, %rsp
100006d59: 5d                          	popq	%rbp
100006d5a: c3                          	retq
100006d5b: 0f 1f 44 00 00              	nopl	(%rax,%rax)

0000000100006d60 __ZNSt3__116allocator_traitsINS_9allocatorIiEEE9constructIiJRKiEEEvRS2_PT_DpOT0_:
100006d60: 55                          	pushq	%rbp
100006d61: 48 89 e5                    	movq	%rsp, %rbp
100006d64: 48 83 ec 40                 	subq	$64, %rsp
100006d68: 48 89 7d f8                 	movq	%rdi, -8(%rbp)
100006d6c: 48 89 75 f0                 	movq	%rsi, -16(%rbp)
100006d70: 48 89 55 e8                 	movq	%rdx, -24(%rbp)
100006d74: 48 8b 7d f8                 	movq	-8(%rbp), %rdi
100006d78: 48 8b 75 f0                 	movq	-16(%rbp), %rsi
100006d7c: 48 8b 45 e8                 	movq	-24(%rbp), %rax
100006d80: 48 89 7d d0                 	movq	%rdi, -48(%rbp)
100006d84: 48 89 c7                    	movq	%rax, %rdi
100006d87: 48 89 75 c8                 	movq	%rsi, -56(%rbp)
100006d8b: e8 80 ea ff ff              	callq	-5504 <__ZNSt3__1L7forwardIRKiEEOT_RNS_16remove_referenceIS3_E4typeE>
100006d90: 48 8b 7d d0                 	movq	-48(%rbp), %rdi
100006d94: 48 8b 75 c8                 	movq	-56(%rbp), %rsi
100006d98: 48 89 c2                    	movq	%rax, %rdx
100006d9b: e8 70 00 00 00              	callq	112 <__ZNSt3__116allocator_traitsINS_9allocatorIiEEE11__constructIiJRKiEEEvNS_17integral_constantIbLb1EEERS2_PT_DpOT0_>
100006da0: 48 83 c4 40                 	addq	$64, %rsp
100006da4: 5d                          	popq	%rbp
100006da5: c3                          	retq
100006da6: 66 2e 0f 1f 84 00 00 00 00 00       	nopw	%cs:(%rax,%rax)

0000000100006db0 __ZNSt3__16vectorIiNS_9allocatorIiEEE21_ConstructTransactionD1Ev:
100006db0: 55                          	pushq	%rbp
100006db1: 48 89 e5                    	movq	%rsp, %rbp
100006db4: 48 83 ec 10                 	subq	$16, %rsp
100006db8: 48 89 7d f8                 	movq	%rdi, -8(%rbp)
100006dbc: 48 8b 7d f8                 	movq	-8(%rbp), %rdi
100006dc0: e8 db 00 00 00              	callq	219 <__ZNSt3__16vectorIiNS_9allocatorIiEEE21_ConstructTransactionD2Ev>
100006dc5: 48 83 c4 10                 	addq	$16, %rsp
100006dc9: 5d                          	popq	%rbp
100006dca: c3                          	retq
100006dcb: 0f 1f 44 00 00              	nopl	(%rax,%rax)

0000000100006dd0 __ZNSt3__16vectorIiNS_9allocatorIiEEE21_ConstructTransactionC2ERS3_m:
100006dd0: 55                          	pushq	%rbp
100006dd1: 48 89 e5                    	movq	%rsp, %rbp
100006dd4: 48 89 7d f8                 	movq	%rdi, -8(%rbp)
100006dd8: 48 89 75 f0                 	movq	%rsi, -16(%rbp)
100006ddc: 48 89 55 e8                 	movq	%rdx, -24(%rbp)
100006de0: 48 8b 45 f8                 	movq	-8(%rbp), %rax
100006de4: 48 8b 4d f0                 	movq	-16(%rbp), %rcx
100006de8: 48 89 08                    	movq	%rcx, (%rax)
100006deb: 48 8b 4d f0                 	movq	-16(%rbp), %rcx
100006def: 48 8b 49 08                 	movq	8(%rcx), %rcx
100006df3: 48 89 48 08                 	movq	%rcx, 8(%rax)
100006df7: 48 8b 4d f0                 	movq	-16(%rbp), %rcx
100006dfb: 48 8b 49 08                 	movq	8(%rcx), %rcx
100006dff: 48 8b 55 e8                 	movq	-24(%rbp), %rdx
100006e03: 48 c1 e2 02                 	shlq	$2, %rdx
100006e07: 48 01 d1                    	addq	%rdx, %rcx
100006e0a: 48 89 48 10                 	movq	%rcx, 16(%rax)
100006e0e: 5d                          	popq	%rbp
100006e0f: c3                          	retq

0000000100006e10 __ZNSt3__116allocator_traitsINS_9allocatorIiEEE11__constructIiJRKiEEEvNS_17integral_constantIbLb1EEERS2_PT_DpOT0_:
100006e10: 55                          	pushq	%rbp
100006e11: 48 89 e5                    	movq	%rsp, %rbp
100006e14: 48 83 ec 30                 	subq	$48, %rsp
100006e18: 48 89 7d f0                 	movq	%rdi, -16(%rbp)
100006e1c: 48 89 75 e8                 	movq	%rsi, -24(%rbp)
100006e20: 48 89 55 e0                 	movq	%rdx, -32(%rbp)
100006e24: 48 8b 7d f0                 	movq	-16(%rbp), %rdi
100006e28: 48 8b 75 e8                 	movq	-24(%rbp), %rsi
100006e2c: 48 8b 45 e0                 	movq	-32(%rbp), %rax
100006e30: 48 89 7d d8                 	movq	%rdi, -40(%rbp)
100006e34: 48 89 c7                    	movq	%rax, %rdi
100006e37: 48 89 75 d0                 	movq	%rsi, -48(%rbp)
100006e3b: e8 d0 e9 ff ff              	callq	-5680 <__ZNSt3__1L7forwardIRKiEEOT_RNS_16remove_referenceIS3_E4typeE>
100006e40: 48 8b 7d d8                 	movq	-40(%rbp), %rdi
100006e44: 48 8b 75 d0                 	movq	-48(%rbp), %rsi
100006e48: 48 89 c2                    	movq	%rax, %rdx
100006e4b: e8 10 00 00 00              	callq	16 <__ZNSt3__19allocatorIiE9constructIiJRKiEEEvPT_DpOT0_>
100006e50: 48 83 c4 30                 	addq	$48, %rsp
100006e54: 5d                          	popq	%rbp
100006e55: c3                          	retq
100006e56: 66 2e 0f 1f 84 00 00 00 00 00       	nopw	%cs:(%rax,%rax)

0000000100006e60 __ZNSt3__19allocatorIiE9constructIiJRKiEEEvPT_DpOT0_:
100006e60: 55                          	pushq	%rbp
100006e61: 48 89 e5                    	movq	%rsp, %rbp
100006e64: 48 83 ec 20                 	subq	$32, %rsp
100006e68: 48 89 7d f8                 	movq	%rdi, -8(%rbp)
100006e6c: 48 89 75 f0                 	movq	%rsi, -16(%rbp)
100006e70: 48 89 55 e8                 	movq	%rdx, -24(%rbp)
100006e74: 48 8b 45 f0                 	movq	-16(%rbp), %rax
100006e78: 48 8b 7d e8                 	movq	-24(%rbp), %rdi
100006e7c: 48 89 45 e0                 	movq	%rax, -32(%rbp)
100006e80: e8 8b e9 ff ff              	callq	-5749 <__ZNSt3__1L7forwardIRKiEEOT_RNS_16remove_referenceIS3_E4typeE>
100006e85: 8b 08                       	movl	(%rax), %ecx
100006e87: 48 8b 45 e0                 	movq	-32(%rbp), %rax
100006e8b: 89 08                       	movl	%ecx, (%rax)
100006e8d: 48 83 c4 20                 	addq	$32, %rsp
100006e91: 5d                          	popq	%rbp
100006e92: c3                          	retq
100006e93: 66 2e 0f 1f 84 00 00 00 00 00       	nopw	%cs:(%rax,%rax)
100006e9d: 0f 1f 00                    	nopl	(%rax)

0000000100006ea0 __ZNSt3__16vectorIiNS_9allocatorIiEEE21_ConstructTransactionD2Ev:
100006ea0: 55                          	pushq	%rbp
100006ea1: 48 89 e5                    	movq	%rsp, %rbp
100006ea4: 48 89 7d f8                 	movq	%rdi, -8(%rbp)
100006ea8: 48 8b 45 f8                 	movq	-8(%rbp), %rax
100006eac: 48 8b 48 08                 	movq	8(%rax), %rcx
100006eb0: 48 8b 00                    	movq	(%rax), %rax
100006eb3: 48 89 48 08                 	movq	%rcx, 8(%rax)
100006eb7: 5d                          	popq	%rbp
100006eb8: c3                          	retq
100006eb9: 0f 1f 80 00 00 00 00        	nopl	(%rax)

0000000100006ec0 __ZNKSt3__16vectorIiNS_9allocatorIiEEE11__recommendEm:
100006ec0: 55                          	pushq	%rbp
100006ec1: 48 89 e5                    	movq	%rsp, %rbp
100006ec4: 48 83 ec 40                 	subq	$64, %rsp
100006ec8: 48 89 7d f0                 	movq	%rdi, -16(%rbp)
100006ecc: 48 89 75 e8                 	movq	%rsi, -24(%rbp)
100006ed0: 48 8b 45 f0                 	movq	-16(%rbp), %rax
100006ed4: 48 89 c7                    	movq	%rax, %rdi
100006ed7: 48 89 45 c8                 	movq	%rax, -56(%rbp)
100006edb: e8 74 0c 00 00              	callq	3188 <dyld_stub_binder+0x100007b54>
100006ee0: 48 89 45 e0                 	movq	%rax, -32(%rbp)
100006ee4: 48 8b 45 e8                 	movq	-24(%rbp), %rax
100006ee8: 48 3b 45 e0                 	cmpq	-32(%rbp), %rax
100006eec: 0f 86 09 00 00 00           	jbe	9 <__ZNKSt3__16vectorIiNS_9allocatorIiEEE11__recommendEm+0x3b>
100006ef2: 48 8b 7d c8                 	movq	-56(%rbp), %rdi
100006ef6: e8 4d 0c 00 00              	callq	3149 <dyld_stub_binder+0x100007b48>
100006efb: 48 8b 7d c8                 	movq	-56(%rbp), %rdi
100006eff: e8 2c dc ff ff              	callq	-9172 <__ZNKSt3__16vectorIiNS_9allocatorIiEEE8capacityEv>
100006f04: 48 89 45 d8                 	movq	%rax, -40(%rbp)
100006f08: 48 8b 45 d8                 	movq	-40(%rbp), %rax
100006f0c: 48 8b 4d e0                 	movq	-32(%rbp), %rcx
100006f10: 48 c1 e9 01                 	shrq	$1, %rcx
100006f14: 48 39 c8                    	cmpq	%rcx, %rax
100006f17: 0f 82 0d 00 00 00           	jb	13 <__ZNKSt3__16vectorIiNS_9allocatorIiEEE11__recommendEm+0x6a>
100006f1d: 48 8b 45 e0                 	movq	-32(%rbp), %rax
100006f21: 48 89 45 f8                 	movq	%rax, -8(%rbp)
100006f25: e9 20 00 00 00              	jmp	32 <__ZNKSt3__16vectorIiNS_9allocatorIiEEE11__recommendEm+0x8a>
100006f2a: 48 8b 45 d8                 	movq	-40(%rbp), %rax
100006f2e: 48 c1 e0 01                 	shlq	$1, %rax
100006f32: 48 89 45 d0                 	movq	%rax, -48(%rbp)
100006f36: 48 8d 7d d0                 	leaq	-48(%rbp), %rdi
100006f3a: 48 8d 75 e8                 	leaq	-24(%rbp), %rsi
100006f3e: e8 8d eb ff ff              	callq	-5235 <__ZNSt3__1L3maxImEERKT_S3_S3_>
100006f43: 48 8b 00                    	movq	(%rax), %rax
100006f46: 48 89 45 f8                 	movq	%rax, -8(%rbp)
100006f4a: 48 8b 45 f8                 	movq	-8(%rbp), %rax
100006f4e: 48 83 c4 40                 	addq	$64, %rsp
100006f52: 5d                          	popq	%rbp
100006f53: c3                          	retq
100006f54: 66 2e 0f 1f 84 00 00 00 00 00       	nopw	%cs:(%rax,%rax)
100006f5e: 66 90                       	nop

0000000100006f60 __ZNSt3__114__split_bufferIiRNS_9allocatorIiEEEC1EmmS3_:
100006f60: 55                          	pushq	%rbp
100006f61: 48 89 e5                    	movq	%rsp, %rbp
100006f64: 48 83 ec 20                 	subq	$32, %rsp
100006f68: 48 89 7d f8                 	movq	%rdi, -8(%rbp)
100006f6c: 48 89 75 f0                 	movq	%rsi, -16(%rbp)
100006f70: 48 89 55 e8                 	movq	%rdx, -24(%rbp)
100006f74: 48 89 4d e0                 	movq	%rcx, -32(%rbp)
100006f78: 48 8b 7d f8                 	movq	-8(%rbp), %rdi
100006f7c: 48 8b 75 f0                 	movq	-16(%rbp), %rsi
100006f80: 48 8b 55 e8                 	movq	-24(%rbp), %rdx
100006f84: 48 8b 4d e0                 	movq	-32(%rbp), %rcx
100006f88: e8 e3 02 00 00              	callq	739 <__ZNSt3__114__split_bufferIiRNS_9allocatorIiEEEC2EmmS3_>
100006f8d: 48 83 c4 20                 	addq	$32, %rsp
100006f91: 5d                          	popq	%rbp
100006f92: c3                          	retq
100006f93: 66 2e 0f 1f 84 00 00 00 00 00       	nopw	%cs:(%rax,%rax)
100006f9d: 0f 1f 00                    	nopl	(%rax)

0000000100006fa0 __ZNSt3__16vectorIiNS_9allocatorIiEEE26__swap_out_circular_bufferERNS_14__split_bufferIiRS2_EE:
100006fa0: 55                          	pushq	%rbp
100006fa1: 48 89 e5                    	movq	%rsp, %rbp
100006fa4: 48 83 ec 30                 	subq	$48, %rsp
100006fa8: 48 89 7d f8                 	movq	%rdi, -8(%rbp)
100006fac: 48 89 75 f0                 	movq	%rsi, -16(%rbp)
100006fb0: 48 8b 45 f8                 	movq	-8(%rbp), %rax
100006fb4: 48 89 c7                    	movq	%rax, %rdi
100006fb7: 48 89 45 e8                 	movq	%rax, -24(%rbp)
100006fbb: e8 10 da ff ff              	callq	-9712 <__ZNKSt3__16vectorIiNS_9allocatorIiEEE17__annotate_deleteEv>
100006fc0: 48 8b 45 e8                 	movq	-24(%rbp), %rax
100006fc4: 48 89 c7                    	movq	%rax, %rdi
100006fc7: e8 b4 dc ff ff              	callq	-9036 <__ZNSt3__113__vector_baseIiNS_9allocatorIiEEE7__allocEv>
100006fcc: 48 8b 4d e8                 	movq	-24(%rbp), %rcx
100006fd0: 48 8b 31                    	movq	(%rcx), %rsi
100006fd3: 48 8b 51 08                 	movq	8(%rcx), %rdx
100006fd7: 48 8b 7d f0                 	movq	-16(%rbp), %rdi
100006fdb: 48 81 c7 08 00 00 00        	addq	$8, %rdi
100006fe2: 48 89 7d e0                 	movq	%rdi, -32(%rbp)
100006fe6: 48 89 c7                    	movq	%rax, %rdi
100006fe9: 48 8b 4d e0                 	movq	-32(%rbp), %rcx
100006fed: e8 7e 05 00 00              	callq	1406 <__ZNSt3__116allocator_traitsINS_9allocatorIiEEE46__construct_backward_with_exception_guaranteesIiEENS_9enable_ifIXaaooL_ZNS_17integral_constantIbLb1EE5valueEEntsr15__has_constructIS2_PT_S8_EE5valuesr31is_trivially_move_constructibleIS8_EE5valueEvE4typeERS2_S9_S9_RS9_>
100006ff2: 48 8b 45 e8                 	movq	-24(%rbp), %rax
100006ff6: 48 8b 4d f0                 	movq	-16(%rbp), %rcx
100006ffa: 48 81 c1 08 00 00 00        	addq	$8, %rcx
100007001: 48 89 c7                    	movq	%rax, %rdi
100007004: 48 89 ce                    	movq	%rcx, %rsi
100007007: e8 e4 05 00 00              	callq	1508 <__ZNSt3__1L4swapIPiEENS_9enable_ifIXaasr21is_move_constructibleIT_EE5valuesr18is_move_assignableIS3_EE5valueEvE4typeERS3_S6_>
10000700c: 48 8b 45 e8                 	movq	-24(%rbp), %rax
100007010: 48 05 08 00 00 00           	addq	$8, %rax
100007016: 48 8b 4d f0                 	movq	-16(%rbp), %rcx
10000701a: 48 81 c1 10 00 00 00        	addq	$16, %rcx
100007021: 48 89 c7                    	movq	%rax, %rdi
100007024: 48 89 ce                    	movq	%rcx, %rsi
100007027: e8 c4 05 00 00              	callq	1476 <__ZNSt3__1L4swapIPiEENS_9enable_ifIXaasr21is_move_constructibleIT_EE5valuesr18is_move_assignableIS3_EE5valueEvE4typeERS3_S6_>
10000702c: 48 8b 45 e8                 	movq	-24(%rbp), %rax
100007030: 48 89 c7                    	movq	%rax, %rdi
100007033: e8 18 fb ff ff              	callq	-1256 <__ZNSt3__113__vector_baseIiNS_9allocatorIiEEE9__end_capEv>
100007038: 48 8b 7d f0                 	movq	-16(%rbp), %rdi
10000703c: 48 89 45 d8                 	movq	%rax, -40(%rbp)
100007040: e8 7b 03 00 00              	callq	891 <__ZNSt3__114__split_bufferIiRNS_9allocatorIiEEE9__end_capEv>
100007045: 48 8b 7d d8                 	movq	-40(%rbp), %rdi
100007049: 48 89 c6                    	movq	%rax, %rsi
10000704c: e8 9f 05 00 00              	callq	1439 <__ZNSt3__1L4swapIPiEENS_9enable_ifIXaasr21is_move_constructibleIT_EE5valuesr18is_move_assignableIS3_EE5valueEvE4typeERS3_S6_>
100007051: 48 8b 45 f0                 	movq	-16(%rbp), %rax
100007055: 48 8b 40 08                 	movq	8(%rax), %rax
100007059: 48 8b 4d f0                 	movq	-16(%rbp), %rcx
10000705d: 48 89 01                    	movq	%rax, (%rcx)
100007060: 48 8b 7d e8                 	movq	-24(%rbp), %rdi
100007064: e8 e7 da ff ff              	callq	-9497 <__ZNKSt3__16vectorIiNS_9allocatorIiEEE4sizeEv>
100007069: 48 8b 7d e8                 	movq	-24(%rbp), %rdi
10000706d: 48 89 c6                    	movq	%rax, %rsi
100007070: e8 cb 05 00 00              	callq	1483 <__ZNKSt3__16vectorIiNS_9allocatorIiEEE14__annotate_newEm>
100007075: 48 8b 7d e8                 	movq	-24(%rbp), %rdi
100007079: e8 62 06 00 00              	callq	1634 <__ZNSt3__16vectorIiNS_9allocatorIiEEE26__invalidate_all_iteratorsEv>
10000707e: 48 83 c4 30                 	addq	$48, %rsp
100007082: 5d                          	popq	%rbp
100007083: c3                          	retq
100007084: 66 2e 0f 1f 84 00 00 00 00 00       	nopw	%cs:(%rax,%rax)
10000708e: 66 90                       	nop

0000000100007090 __ZNSt3__114__split_bufferIiRNS_9allocatorIiEEED1Ev:
100007090: 55                          	pushq	%rbp
100007091: 48 89 e5                    	movq	%rsp, %rbp
100007094: 48 83 ec 10                 	subq	$16, %rsp
100007098: 48 89 7d f8                 	movq	%rdi, -8(%rbp)
10000709c: 48 8b 7d f8                 	movq	-8(%rbp), %rdi
1000070a0: e8 5b 06 00 00              	callq	1627 <__ZNSt3__114__split_bufferIiRNS_9allocatorIiEEED2Ev>
1000070a5: 48 83 c4 10                 	addq	$16, %rsp
1000070a9: 5d                          	popq	%rbp
1000070aa: c3                          	retq
1000070ab: 0f 1f 44 00 00              	nopl	(%rax,%rax)

00000001000070b0 __ZNKSt3__16vectorIiNS_9allocatorIiEEE8max_sizeEv:
1000070b0: 55                          	pushq	%rbp
1000070b1: 48 89 e5                    	movq	%rsp, %rbp
1000070b4: 48 83 ec 30                 	subq	$48, %rsp
1000070b8: 48 89 7d f8                 	movq	%rdi, -8(%rbp)
1000070bc: 48 8b 7d f8                 	movq	-8(%rbp), %rdi
1000070c0: e8 9b 00 00 00              	callq	155 <__ZNKSt3__113__vector_baseIiNS_9allocatorIiEEE7__allocEv>
1000070c5: 48 89 c7                    	movq	%rax, %rdi
1000070c8: e8 73 00 00 00              	callq	115 <__ZNSt3__116allocator_traitsINS_9allocatorIiEEE8max_sizeERKS2_>
1000070cd: 48 89 45 f0                 	movq	%rax, -16(%rbp)
1000070d1: e8 ba 00 00 00              	callq	186 <__ZNSt3__114numeric_limitsIlE3maxEv>
1000070d6: 48 89 45 e8                 	movq	%rax, -24(%rbp)
1000070da: 48 8d 7d f0                 	leaq	-16(%rbp), %rdi
1000070de: 48 8d 75 e8                 	leaq	-24(%rbp), %rsi
1000070e2: e8 29 00 00 00              	callq	41 <__ZNSt3__1L3minImEERKT_S3_S3_>
1000070e7: 48 89 45 e0                 	movq	%rax, -32(%rbp)
1000070eb: e9 00 00 00 00              	jmp	0 <__ZNKSt3__16vectorIiNS_9allocatorIiEEE8max_sizeEv+0x40>
1000070f0: 48 8b 45 e0                 	movq	-32(%rbp), %rax
1000070f4: 48 8b 00                    	movq	(%rax), %rax
1000070f7: 48 83 c4 30                 	addq	$48, %rsp
1000070fb: 5d                          	popq	%rbp
1000070fc: c3                          	retq
1000070fd: 48 89 c7                    	movq	%rax, %rdi
100007100: 48 89 55 d8                 	movq	%rdx, -40(%rbp)
100007104: e8 d7 cb ff ff              	callq	-13353 <___clang_call_terminate>
100007109: 0f 1f 80 00 00 00 00        	nopl	(%rax)

0000000100007110 __ZNSt3__1L3minImEERKT_S3_S3_:
100007110: 55                          	pushq	%rbp
100007111: 48 89 e5                    	movq	%rsp, %rbp
100007114: 48 83 ec 20                 	subq	$32, %rsp
100007118: 48 89 7d f8                 	movq	%rdi, -8(%rbp)
10000711c: 48 89 75 f0                 	movq	%rsi, -16(%rbp)
100007120: 48 8b 7d f8                 	movq	-8(%rbp), %rdi
100007124: 48 8b 75 f0                 	movq	-16(%rbp), %rsi
100007128: e8 73 00 00 00              	callq	115 <__ZNSt3__1L3minImNS_6__lessImmEEEERKT_S5_S5_T0_>
10000712d: 48 83 c4 20                 	addq	$32, %rsp
100007131: 5d                          	popq	%rbp
100007132: c3                          	retq
100007133: 66 2e 0f 1f 84 00 00 00 00 00       	nopw	%cs:(%rax,%rax)
10000713d: 0f 1f 00                    	nopl	(%rax)

0000000100007140 __ZNSt3__116allocator_traitsINS_9allocatorIiEEE8max_sizeERKS2_:
100007140: 55                          	pushq	%rbp
100007141: 48 89 e5                    	movq	%rsp, %rbp
100007144: 48 83 ec 20                 	subq	$32, %rsp
100007148: 48 89 7d f8                 	movq	%rdi, -8(%rbp)
10000714c: 48 8b 7d f8                 	movq	-8(%rbp), %rdi
100007150: e8 9b 00 00 00              	callq	155 <__ZNSt3__116allocator_traitsINS_9allocatorIiEEE10__max_sizeENS_17integral_constantIbLb1EEERKS2_>
100007155: 48 83 c4 20                 	addq	$32, %rsp
100007159: 5d                          	popq	%rbp
10000715a: c3                          	retq
10000715b: 0f 1f 44 00 00              	nopl	(%rax,%rax)

0000000100007160 __ZNKSt3__113__vector_baseIiNS_9allocatorIiEEE7__allocEv:
100007160: 55                          	pushq	%rbp
100007161: 48 89 e5                    	movq	%rsp, %rbp
100007164: 48 83 ec 10                 	subq	$16, %rsp
100007168: 48 89 7d f8                 	movq	%rdi, -8(%rbp)
10000716c: 48 8b 45 f8                 	movq	-8(%rbp), %rax
100007170: 48 05 10 00 00 00           	addq	$16, %rax
100007176: 48 89 c7                    	movq	%rax, %rdi
100007179: e8 b2 00 00 00              	callq	178 <__ZNKSt3__117__compressed_pairIPiNS_9allocatorIiEEE6secondEv>
10000717e: 48 83 c4 10                 	addq	$16, %rsp
100007182: 5d                          	popq	%rbp
100007183: c3                          	retq
100007184: 66 2e 0f 1f 84 00 00 00 00 00       	nopw	%cs:(%rax,%rax)
10000718e: 66 90                       	nop

0000000100007190 __ZNSt3__114numeric_limitsIlE3maxEv:
100007190: 55                          	pushq	%rbp
100007191: 48 89 e5                    	movq	%rsp, %rbp
100007194: e8 c7 00 00 00              	callq	199 <__ZNSt3__123__libcpp_numeric_limitsIlLb1EE3maxEv>
100007199: 5d                          	popq	%rbp
10000719a: c3                          	retq
10000719b: 0f 1f 44 00 00              	nopl	(%rax,%rax)

00000001000071a0 __ZNSt3__1L3minImNS_6__lessImmEEEERKT_S5_S5_T0_:
1000071a0: 55                          	pushq	%rbp
1000071a1: 48 89 e5                    	movq	%rsp, %rbp
1000071a4: 48 83 ec 20                 	subq	$32, %rsp
1000071a8: 48 89 7d f0                 	movq	%rdi, -16(%rbp)
1000071ac: 48 89 75 e8                 	movq	%rsi, -24(%rbp)
1000071b0: 48 8b 75 e8                 	movq	-24(%rbp), %rsi
1000071b4: 48 8b 55 f0                 	movq	-16(%rbp), %rdx
1000071b8: 48 8d 7d f8                 	leaq	-8(%rbp), %rdi
1000071bc: e8 8f f6 ff ff              	callq	-2417 <__ZNKSt3__16__lessImmEclERKmS3_>
1000071c1: a8 01                       	testb	$1, %al
1000071c3: 0f 85 05 00 00 00           	jne	5 <__ZNSt3__1L3minImNS_6__lessImmEEEERKT_S5_S5_T0_+0x2e>
1000071c9: e9 0d 00 00 00              	jmp	13 <__ZNSt3__1L3minImNS_6__lessImmEEEERKT_S5_S5_T0_+0x3b>
1000071ce: 48 8b 45 e8                 	movq	-24(%rbp), %rax
1000071d2: 48 89 45 e0                 	movq	%rax, -32(%rbp)
1000071d6: e9 08 00 00 00              	jmp	8 <__ZNSt3__1L3minImNS_6__lessImmEEEERKT_S5_S5_T0_+0x43>
1000071db: 48 8b 45 f0                 	movq	-16(%rbp), %rax
1000071df: 48 89 45 e0                 	movq	%rax, -32(%rbp)
1000071e3: 48 8b 45 e0                 	movq	-32(%rbp), %rax
1000071e7: 48 83 c4 20                 	addq	$32, %rsp
1000071eb: 5d                          	popq	%rbp
1000071ec: c3                          	retq
1000071ed: 0f 1f 00                    	nopl	(%rax)

00000001000071f0 __ZNSt3__116allocator_traitsINS_9allocatorIiEEE10__max_sizeENS_17integral_constantIbLb1EEERKS2_:
1000071f0: 55                          	pushq	%rbp
1000071f1: 48 89 e5                    	movq	%rsp, %rbp
1000071f4: 48 83 ec 10                 	subq	$16, %rsp
1000071f8: 48 89 7d f0                 	movq	%rdi, -16(%rbp)
1000071fc: 48 8b 7d f0                 	movq	-16(%rbp), %rdi
100007200: e8 0b 00 00 00              	callq	11 <__ZNKSt3__19allocatorIiE8max_sizeEv>
100007205: 48 83 c4 10                 	addq	$16, %rsp
100007209: 5d                          	popq	%rbp
10000720a: c3                          	retq
10000720b: 0f 1f 44 00 00              	nopl	(%rax,%rax)

0000000100007210 __ZNKSt3__19allocatorIiE8max_sizeEv:
100007210: 55                          	pushq	%rbp
100007211: 48 89 e5                    	movq	%rsp, %rbp
100007214: 48 89 7d f8                 	movq	%rdi, -8(%rbp)
100007218: 48 b8 ff ff ff ff ff ff ff 3f       	movabsq	$4611686018427387903, %rax
100007222: 5d                          	popq	%rbp
100007223: c3                          	retq
100007224: 66 2e 0f 1f 84 00 00 00 00 00       	nopw	%cs:(%rax,%rax)
10000722e: 66 90                       	nop

0000000100007230 __ZNKSt3__117__compressed_pairIPiNS_9allocatorIiEEE6secondEv:
100007230: 55                          	pushq	%rbp
100007231: 48 89 e5                    	movq	%rsp, %rbp
100007234: 48 83 ec 10                 	subq	$16, %rsp
100007238: 48 89 7d f8                 	movq	%rdi, -8(%rbp)
10000723c: 48 8b 45 f8                 	movq	-8(%rbp), %rax
100007240: 48 89 c7                    	movq	%rax, %rdi
100007243: e8 08 00 00 00              	callq	8 <__ZNKSt3__122__compressed_pair_elemINS_9allocatorIiEELi1ELb1EE5__getEv>
100007248: 48 83 c4 10                 	addq	$16, %rsp
10000724c: 5d                          	popq	%rbp
10000724d: c3                          	retq
10000724e: 66 90                       	nop

0000000100007250 __ZNKSt3__122__compressed_pair_elemINS_9allocatorIiEELi1ELb1EE5__getEv:
100007250: 55                          	pushq	%rbp
100007251: 48 89 e5                    	movq	%rsp, %rbp
100007254: 48 89 7d f8                 	movq	%rdi, -8(%rbp)
100007258: 48 8b 45 f8                 	movq	-8(%rbp), %rax
10000725c: 5d                          	popq	%rbp
10000725d: c3                          	retq
10000725e: 66 90                       	nop

0000000100007260 __ZNSt3__123__libcpp_numeric_limitsIlLb1EE3maxEv:
100007260: 55                          	pushq	%rbp
100007261: 48 89 e5                    	movq	%rsp, %rbp
100007264: 48 b8 ff ff ff ff ff ff ff 7f       	movabsq	$9223372036854775807, %rax
10000726e: 5d                          	popq	%rbp
10000726f: c3                          	retq

0000000100007270 __ZNSt3__114__split_bufferIiRNS_9allocatorIiEEEC2EmmS3_:
100007270: 55                          	pushq	%rbp
100007271: 48 89 e5                    	movq	%rsp, %rbp
100007274: 48 83 ec 40                 	subq	$64, %rsp
100007278: 48 89 7d f8                 	movq	%rdi, -8(%rbp)
10000727c: 48 89 75 f0                 	movq	%rsi, -16(%rbp)
100007280: 48 89 55 e8                 	movq	%rdx, -24(%rbp)
100007284: 48 89 4d e0                 	movq	%rcx, -32(%rbp)
100007288: 48 8b 45 f8                 	movq	-8(%rbp), %rax
10000728c: 48 89 c1                    	movq	%rax, %rcx
10000728f: 48 81 c1 18 00 00 00        	addq	$24, %rcx
100007296: 48 c7 45 d8 00 00 00 00     	movq	$0, -40(%rbp)
10000729e: 48 8b 55 e0                 	movq	-32(%rbp), %rdx
1000072a2: 48 89 cf                    	movq	%rcx, %rdi
1000072a5: 48 8d 75 d8                 	leaq	-40(%rbp), %rsi
1000072a9: 48 89 45 d0                 	movq	%rax, -48(%rbp)
1000072ad: e8 7e 00 00 00              	callq	126 <__ZNSt3__117__compressed_pairIPiRNS_9allocatorIiEEEC1IDnS4_EEOT_OT0_>
1000072b2: 48 83 7d f0 00              	cmpq	$0, -16(%rbp)
1000072b7: 0f 84 1e 00 00 00           	je	30 <__ZNSt3__114__split_bufferIiRNS_9allocatorIiEEEC2EmmS3_+0x6b>
1000072bd: 48 8b 7d d0                 	movq	-48(%rbp), %rdi
1000072c1: e8 ca 00 00 00              	callq	202 <__ZNSt3__114__split_bufferIiRNS_9allocatorIiEEE7__allocEv>
1000072c6: 48 8b 75 f0                 	movq	-16(%rbp), %rsi
1000072ca: 48 89 c7                    	movq	%rax, %rdi
1000072cd: e8 8e 00 00 00              	callq	142 <__ZNSt3__116allocator_traitsINS_9allocatorIiEEE8allocateERS2_m>
1000072d2: 48 89 45 c8                 	movq	%rax, -56(%rbp)
1000072d6: e9 0d 00 00 00              	jmp	13 <__ZNSt3__114__split_bufferIiRNS_9allocatorIiEEEC2EmmS3_+0x78>
1000072db: 31 c0                       	xorl	%eax, %eax
1000072dd: 89 c1                       	movl	%eax, %ecx
1000072df: 48 89 4d c8                 	movq	%rcx, -56(%rbp)
1000072e3: e9 00 00 00 00              	jmp	0 <__ZNSt3__114__split_bufferIiRNS_9allocatorIiEEEC2EmmS3_+0x78>
1000072e8: 48 8b 45 c8                 	movq	-56(%rbp), %rax
1000072ec: 48 8b 4d d0                 	movq	-48(%rbp), %rcx
1000072f0: 48 89 01                    	movq	%rax, (%rcx)
1000072f3: 48 8b 01                    	movq	(%rcx), %rax
1000072f6: 48 8b 55 e8                 	movq	-24(%rbp), %rdx
1000072fa: 48 c1 e2 02                 	shlq	$2, %rdx
1000072fe: 48 01 d0                    	addq	%rdx, %rax
100007301: 48 89 41 10                 	movq	%rax, 16(%rcx)
100007305: 48 89 41 08                 	movq	%rax, 8(%rcx)
100007309: 48 8b 01                    	movq	(%rcx), %rax
10000730c: 48 8b 55 f0                 	movq	-16(%rbp), %rdx
100007310: 48 c1 e2 02                 	shlq	$2, %rdx
100007314: 48 01 d0                    	addq	%rdx, %rax
100007317: 48 89 cf                    	movq	%rcx, %rdi
10000731a: 48 89 45 c0                 	movq	%rax, -64(%rbp)
10000731e: e8 9d 00 00 00              	callq	157 <__ZNSt3__114__split_bufferIiRNS_9allocatorIiEEE9__end_capEv>
100007323: 48 8b 4d c0                 	movq	-64(%rbp), %rcx
100007327: 48 89 08                    	movq	%rcx, (%rax)
10000732a: 48 83 c4 40                 	addq	$64, %rsp
10000732e: 5d                          	popq	%rbp
10000732f: c3                          	retq

0000000100007330 __ZNSt3__117__compressed_pairIPiRNS_9allocatorIiEEEC1IDnS4_EEOT_OT0_:
100007330: 55                          	pushq	%rbp
100007331: 48 89 e5                    	movq	%rsp, %rbp
100007334: 48 83 ec 20                 	subq	$32, %rsp
100007338: 48 89 7d f8                 	movq	%rdi, -8(%rbp)
10000733c: 48 89 75 f0                 	movq	%rsi, -16(%rbp)
100007340: 48 89 55 e8                 	movq	%rdx, -24(%rbp)
100007344: 48 8b 7d f8                 	movq	-8(%rbp), %rdi
100007348: 48 8b 75 f0                 	movq	-16(%rbp), %rsi
10000734c: 48 8b 55 e8                 	movq	-24(%rbp), %rdx
100007350: e8 9b 00 00 00              	callq	155 <__ZNSt3__117__compressed_pairIPiRNS_9allocatorIiEEEC2IDnS4_EEOT_OT0_>
100007355: 48 83 c4 20                 	addq	$32, %rsp
100007359: 5d                          	popq	%rbp
10000735a: c3                          	retq
10000735b: 0f 1f 44 00 00              	nopl	(%rax,%rax)

0000000100007360 __ZNSt3__116allocator_traitsINS_9allocatorIiEEE8allocateERS2_m:
100007360: 55                          	pushq	%rbp
100007361: 48 89 e5                    	movq	%rsp, %rbp
100007364: 48 83 ec 10                 	subq	$16, %rsp
100007368: 31 c0                       	xorl	%eax, %eax
10000736a: 89 c2                       	movl	%eax, %edx
10000736c: 48 89 7d f8                 	movq	%rdi, -8(%rbp)
100007370: 48 89 75 f0                 	movq	%rsi, -16(%rbp)
100007374: 48 8b 7d f8                 	movq	-8(%rbp), %rdi
100007378: 48 8b 75 f0                 	movq	-16(%rbp), %rsi
10000737c: e8 1f 01 00 00              	callq	287 <__ZNSt3__19allocatorIiE8allocateEmPKv>
100007381: 48 83 c4 10                 	addq	$16, %rsp
100007385: 5d                          	popq	%rbp
100007386: c3                          	retq
100007387: 66 0f 1f 84 00 00 00 00 00  	nopw	(%rax,%rax)

0000000100007390 __ZNSt3__114__split_bufferIiRNS_9allocatorIiEEE7__allocEv:
100007390: 55                          	pushq	%rbp
100007391: 48 89 e5                    	movq	%rsp, %rbp
100007394: 48 83 ec 10                 	subq	$16, %rsp
100007398: 48 89 7d f8                 	movq	%rdi, -8(%rbp)
10000739c: 48 8b 45 f8                 	movq	-8(%rbp), %rax
1000073a0: 48 05 18 00 00 00           	addq	$24, %rax
1000073a6: 48 89 c7                    	movq	%rax, %rdi
1000073a9: e8 52 01 00 00              	callq	338 <__ZNSt3__117__compressed_pairIPiRNS_9allocatorIiEEE6secondEv>
1000073ae: 48 83 c4 10                 	addq	$16, %rsp
1000073b2: 5d                          	popq	%rbp
1000073b3: c3                          	retq
1000073b4: 66 2e 0f 1f 84 00 00 00 00 00       	nopw	%cs:(%rax,%rax)
1000073be: 66 90                       	nop

00000001000073c0 __ZNSt3__114__split_bufferIiRNS_9allocatorIiEEE9__end_capEv:
1000073c0: 55                          	pushq	%rbp
1000073c1: 48 89 e5                    	movq	%rsp, %rbp
1000073c4: 48 83 ec 10                 	subq	$16, %rsp
1000073c8: 48 89 7d f8                 	movq	%rdi, -8(%rbp)
1000073cc: 48 8b 45 f8                 	movq	-8(%rbp), %rax
1000073d0: 48 05 18 00 00 00           	addq	$24, %rax
1000073d6: 48 89 c7                    	movq	%rax, %rdi
1000073d9: e8 72 01 00 00              	callq	370 <__ZNSt3__117__compressed_pairIPiRNS_9allocatorIiEEE5firstEv>
1000073de: 48 83 c4 10                 	addq	$16, %rsp
1000073e2: 5d                          	popq	%rbp
1000073e3: c3                          	retq
1000073e4: 66 2e 0f 1f 84 00 00 00 00 00       	nopw	%cs:(%rax,%rax)
1000073ee: 66 90                       	nop

00000001000073f0 __ZNSt3__117__compressed_pairIPiRNS_9allocatorIiEEEC2IDnS4_EEOT_OT0_:
1000073f0: 55                          	pushq	%rbp
1000073f1: 48 89 e5                    	movq	%rsp, %rbp
1000073f4: 48 83 ec 30                 	subq	$48, %rsp
1000073f8: 48 89 7d f8                 	movq	%rdi, -8(%rbp)
1000073fc: 48 89 75 f0                 	movq	%rsi, -16(%rbp)
100007400: 48 89 55 e8                 	movq	%rdx, -24(%rbp)
100007404: 48 8b 45 f8                 	movq	-8(%rbp), %rax
100007408: 48 89 c1                    	movq	%rax, %rcx
10000740b: 48 8b 7d f0                 	movq	-16(%rbp), %rdi
10000740f: 48 89 45 e0                 	movq	%rax, -32(%rbp)
100007413: 48 89 4d d8                 	movq	%rcx, -40(%rbp)
100007417: e8 04 d5 ff ff              	callq	-11004 <__ZNSt3__1L7forwardIDnEEOT_RNS_16remove_referenceIS1_E4typeE>
10000741c: 48 8b 7d d8                 	movq	-40(%rbp), %rdi
100007420: 48 89 c6                    	movq	%rax, %rsi
100007423: e8 08 d5 ff ff              	callq	-11000 <__ZNSt3__122__compressed_pair_elemIPiLi0ELb0EEC2IDnvEEOT_>
100007428: 48 8b 45 e0                 	movq	-32(%rbp), %rax
10000742c: 48 05 08 00 00 00           	addq	$8, %rax
100007432: 48 8b 7d e8                 	movq	-24(%rbp), %rdi
100007436: 48 89 45 d0                 	movq	%rax, -48(%rbp)
10000743a: e8 21 00 00 00              	callq	33 <__ZNSt3__1L7forwardIRNS_9allocatorIiEEEEOT_RNS_16remove_referenceIS4_E4typeE>
10000743f: 48 8b 7d d0                 	movq	-48(%rbp), %rdi
100007443: 48 89 c6                    	movq	%rax, %rsi
100007446: e8 25 00 00 00              	callq	37 <__ZNSt3__122__compressed_pair_elemIRNS_9allocatorIiEELi1ELb0EEC2IS3_vEEOT_>
10000744b: 48 83 c4 30                 	addq	$48, %rsp
10000744f: 5d                          	popq	%rbp
100007450: c3                          	retq
100007451: 66 2e 0f 1f 84 00 00 00 00 00       	nopw	%cs:(%rax,%rax)
10000745b: 0f 1f 44 00 00              	nopl	(%rax,%rax)

0000000100007460 __ZNSt3__1L7forwardIRNS_9allocatorIiEEEEOT_RNS_16remove_referenceIS4_E4typeE:
100007460: 55                          	pushq	%rbp
100007461: 48 89 e5                    	movq	%rsp, %rbp
100007464: 48 89 7d f8                 	movq	%rdi, -8(%rbp)
100007468: 48 8b 45 f8                 	movq	-8(%rbp), %rax
10000746c: 5d                          	popq	%rbp
10000746d: c3                          	retq
10000746e: 66 90                       	nop

0000000100007470 __ZNSt3__122__compressed_pair_elemIRNS_9allocatorIiEELi1ELb0EEC2IS3_vEEOT_:
100007470: 55                          	pushq	%rbp
100007471: 48 89 e5                    	movq	%rsp, %rbp
100007474: 48 83 ec 20                 	subq	$32, %rsp
100007478: 48 89 7d f8                 	movq	%rdi, -8(%rbp)
10000747c: 48 89 75 f0                 	movq	%rsi, -16(%rbp)
100007480: 48 8b 45 f8                 	movq	-8(%rbp), %rax
100007484: 48 8b 7d f0                 	movq	-16(%rbp), %rdi
100007488: 48 89 45 e8                 	movq	%rax, -24(%rbp)
10000748c: e8 cf ff ff ff              	callq	-49 <__ZNSt3__1L7forwardIRNS_9allocatorIiEEEEOT_RNS_16remove_referenceIS4_E4typeE>
100007491: 48 8b 4d e8                 	movq	-24(%rbp), %rcx
100007495: 48 89 01                    	movq	%rax, (%rcx)
100007498: 48 83 c4 20                 	addq	$32, %rsp
10000749c: 5d                          	popq	%rbp
10000749d: c3                          	retq
10000749e: 66 90                       	nop

00000001000074a0 __ZNSt3__19allocatorIiE8allocateEmPKv:
1000074a0: 55                          	pushq	%rbp
1000074a1: 48 89 e5                    	movq	%rsp, %rbp
1000074a4: 48 83 ec 20                 	subq	$32, %rsp
1000074a8: 48 89 7d f8                 	movq	%rdi, -8(%rbp)
1000074ac: 48 89 75 f0                 	movq	%rsi, -16(%rbp)
1000074b0: 48 89 55 e8                 	movq	%rdx, -24(%rbp)
1000074b4: 48 8b 7d f8                 	movq	-8(%rbp), %rdi
1000074b8: 48 8b 45 f0                 	movq	-16(%rbp), %rax
1000074bc: 48 89 45 e0                 	movq	%rax, -32(%rbp)
1000074c0: e8 4b fd ff ff              	callq	-693 <__ZNKSt3__19allocatorIiE8max_sizeEv>
1000074c5: 48 8b 4d e0                 	movq	-32(%rbp), %rcx
1000074c9: 48 39 c1                    	cmpq	%rax, %rcx
1000074cc: 0f 86 0c 00 00 00           	jbe	12 <__ZNSt3__19allocatorIiE8allocateEmPKv+0x3e>
1000074d2: 48 8d 3d 33 09 00 00        	leaq	2355(%rip), %rdi
1000074d9: e8 82 ea ff ff              	callq	-5502 <__ZNSt3__1L20__throw_length_errorEPKc>
1000074de: 48 8b 45 f0                 	movq	-16(%rbp), %rax
1000074e2: 48 c1 e0 02                 	shlq	$2, %rax
1000074e6: 48 89 c7                    	movq	%rax, %rdi
1000074e9: be 04 00 00 00              	movl	$4, %esi
1000074ee: e8 cd ea ff ff              	callq	-5427 <__ZNSt3__1L17__libcpp_allocateEmm>
1000074f3: 48 83 c4 20                 	addq	$32, %rsp
1000074f7: 5d                          	popq	%rbp
1000074f8: c3                          	retq
1000074f9: 0f 1f 80 00 00 00 00        	nopl	(%rax)

0000000100007500 __ZNSt3__117__compressed_pairIPiRNS_9allocatorIiEEE6secondEv:
100007500: 55                          	pushq	%rbp
100007501: 48 89 e5                    	movq	%rsp, %rbp
100007504: 48 83 ec 10                 	subq	$16, %rsp
100007508: 48 89 7d f8                 	movq	%rdi, -8(%rbp)
10000750c: 48 8b 45 f8                 	movq	-8(%rbp), %rax
100007510: 48 05 08 00 00 00           	addq	$8, %rax
100007516: 48 89 c7                    	movq	%rax, %rdi
100007519: e8 12 00 00 00              	callq	18 <__ZNSt3__122__compressed_pair_elemIRNS_9allocatorIiEELi1ELb0EE5__getEv>
10000751e: 48 83 c4 10                 	addq	$16, %rsp
100007522: 5d                          	popq	%rbp
100007523: c3                          	retq
100007524: 66 2e 0f 1f 84 00 00 00 00 00       	nopw	%cs:(%rax,%rax)
10000752e: 66 90                       	nop

0000000100007530 __ZNSt3__122__compressed_pair_elemIRNS_9allocatorIiEELi1ELb0EE5__getEv:
100007530: 55                          	pushq	%rbp
100007531: 48 89 e5                    	movq	%rsp, %rbp
100007534: 48 89 7d f8                 	movq	%rdi, -8(%rbp)
100007538: 48 8b 45 f8                 	movq	-8(%rbp), %rax
10000753c: 48 8b 00                    	movq	(%rax), %rax
10000753f: 5d                          	popq	%rbp
100007540: c3                          	retq
100007541: 66 2e 0f 1f 84 00 00 00 00 00       	nopw	%cs:(%rax,%rax)
10000754b: 0f 1f 44 00 00              	nopl	(%rax,%rax)

0000000100007550 __ZNSt3__117__compressed_pairIPiRNS_9allocatorIiEEE5firstEv:
100007550: 55                          	pushq	%rbp
100007551: 48 89 e5                    	movq	%rsp, %rbp
100007554: 48 83 ec 10                 	subq	$16, %rsp
100007558: 48 89 7d f8                 	movq	%rdi, -8(%rbp)
10000755c: 48 8b 45 f8                 	movq	-8(%rbp), %rax
100007560: 48 89 c7                    	movq	%rax, %rdi
100007563: e8 b8 f7 ff ff              	callq	-2120 <__ZNSt3__122__compressed_pair_elemIPiLi0ELb0EE5__getEv>
100007568: 48 83 c4 10                 	addq	$16, %rsp
10000756c: 5d                          	popq	%rbp
10000756d: c3                          	retq
10000756e: 66 90                       	nop

0000000100007570 __ZNSt3__116allocator_traitsINS_9allocatorIiEEE46__construct_backward_with_exception_guaranteesIiEENS_9enable_ifIXaaooL_ZNS_17integral_constantIbLb1EE5valueEEntsr15__has_constructIS2_PT_S8_EE5valuesr31is_trivially_move_constructibleIS8_EE5valueEvE4typeERS2_S9_S9_RS9_:
100007570: 55                          	pushq	%rbp
100007571: 48 89 e5                    	movq	%rsp, %rbp
100007574: 48 83 ec 30                 	subq	$48, %rsp
100007578: 31 c0                       	xorl	%eax, %eax
10000757a: 41 89 c0                    	movl	%eax, %r8d
10000757d: 48 89 7d f8                 	movq	%rdi, -8(%rbp)
100007581: 48 89 75 f0                 	movq	%rsi, -16(%rbp)
100007585: 48 89 55 e8                 	movq	%rdx, -24(%rbp)
100007589: 48 89 4d e0                 	movq	%rcx, -32(%rbp)
10000758d: 48 8b 4d e8                 	movq	-24(%rbp), %rcx
100007591: 48 8b 55 f0                 	movq	-16(%rbp), %rdx
100007595: 48 29 d1                    	subq	%rdx, %rcx
100007598: 48 c1 f9 02                 	sarq	$2, %rcx
10000759c: 48 89 4d d8                 	movq	%rcx, -40(%rbp)
1000075a0: 48 8b 4d d8                 	movq	-40(%rbp), %rcx
1000075a4: 48 8b 55 e0                 	movq	-32(%rbp), %rdx
1000075a8: 48 8b 32                    	movq	(%rdx), %rsi
1000075ab: 49 29 c8                    	subq	%rcx, %r8
1000075ae: 49 c1 e0 02                 	shlq	$2, %r8
1000075b2: 4c 01 c6                    	addq	%r8, %rsi
1000075b5: 48 89 32                    	movq	%rsi, (%rdx)
1000075b8: 48 83 7d d8 00              	cmpq	$0, -40(%rbp)
1000075bd: 0f 8e 1e 00 00 00           	jle	30 <__ZNSt3__116allocator_traitsINS_9allocatorIiEEE46__construct_backward_with_exception_guaranteesIiEENS_9enable_ifIXaaooL_ZNS_17integral_constantIbLb1EE5valueEEntsr15__has_constructIS2_PT_S8_EE5valuesr31is_trivially_move_constructibleIS8_EE5valueEvE4typeERS2_S9_S9_RS9_+0x71>
1000075c3: 48 8b 45 e0                 	movq	-32(%rbp), %rax
1000075c7: 48 8b 00                    	movq	(%rax), %rax
1000075ca: 48 8b 4d f0                 	movq	-16(%rbp), %rcx
1000075ce: 48 8b 55 d8                 	movq	-40(%rbp), %rdx
1000075d2: 48 c1 e2 02                 	shlq	$2, %rdx
1000075d6: 48 89 c7                    	movq	%rax, %rdi
1000075d9: 48 89 ce                    	movq	%rcx, %rsi
1000075dc: e8 fd 05 00 00              	callq	1533 <dyld_stub_binder+0x100007bde>
1000075e1: 48 83 c4 30                 	addq	$48, %rsp
1000075e5: 5d                          	popq	%rbp
1000075e6: c3                          	retq
1000075e7: 66 0f 1f 84 00 00 00 00 00  	nopw	(%rax,%rax)

00000001000075f0 __ZNSt3__1L4swapIPiEENS_9enable_ifIXaasr21is_move_constructibleIT_EE5valuesr18is_move_assignableIS3_EE5valueEvE4typeERS3_S6_:
1000075f0: 55                          	pushq	%rbp
1000075f1: 48 89 e5                    	movq	%rsp, %rbp
1000075f4: 48 83 ec 20                 	subq	$32, %rsp
1000075f8: 48 89 7d f8                 	movq	%rdi, -8(%rbp)
1000075fc: 48 89 75 f0                 	movq	%rsi, -16(%rbp)
100007600: 48 8b 7d f8                 	movq	-8(%rbp), %rdi
100007604: e8 e7 00 00 00              	callq	231 <__ZNSt3__1L4moveIRPiEEONS_16remove_referenceIT_E4typeEOS4_>
100007609: 48 8b 00                    	movq	(%rax), %rax
10000760c: 48 89 45 e8                 	movq	%rax, -24(%rbp)
100007610: 48 8b 7d f0                 	movq	-16(%rbp), %rdi
100007614: e8 d7 00 00 00              	callq	215 <__ZNSt3__1L4moveIRPiEEONS_16remove_referenceIT_E4typeEOS4_>
100007619: 48 8b 00                    	movq	(%rax), %rax
10000761c: 48 8b 4d f8                 	movq	-8(%rbp), %rcx
100007620: 48 89 01                    	movq	%rax, (%rcx)
100007623: 48 8d 7d e8                 	leaq	-24(%rbp), %rdi
100007627: e8 c4 00 00 00              	callq	196 <__ZNSt3__1L4moveIRPiEEONS_16remove_referenceIT_E4typeEOS4_>
10000762c: 48 8b 00                    	movq	(%rax), %rax
10000762f: 48 8b 4d f0                 	movq	-16(%rbp), %rcx
100007633: 48 89 01                    	movq	%rax, (%rcx)
100007636: 48 83 c4 20                 	addq	$32, %rsp
10000763a: 5d                          	popq	%rbp
10000763b: c3                          	retq
10000763c: 0f 1f 40 00                 	nopl	(%rax)

0000000100007640 __ZNKSt3__16vectorIiNS_9allocatorIiEEE14__annotate_newEm:
100007640: 55                          	pushq	%rbp
100007641: 48 89 e5                    	movq	%rsp, %rbp
100007644: 48 83 ec 40                 	subq	$64, %rsp
100007648: 48 89 7d f8                 	movq	%rdi, -8(%rbp)
10000764c: 48 89 75 f0                 	movq	%rsi, -16(%rbp)
100007650: 48 8b 45 f8                 	movq	-8(%rbp), %rax
100007654: 48 89 c7                    	movq	%rax, %rdi
100007657: 48 89 45 e8                 	movq	%rax, -24(%rbp)
10000765b: e8 b0 d4 ff ff              	callq	-11088 <__ZNKSt3__16vectorIiNS_9allocatorIiEEE4dataEv>
100007660: 48 8b 7d e8                 	movq	-24(%rbp), %rdi
100007664: 48 89 45 e0                 	movq	%rax, -32(%rbp)
100007668: e8 a3 d4 ff ff              	callq	-11101 <__ZNKSt3__16vectorIiNS_9allocatorIiEEE4dataEv>
10000766d: 48 8b 7d e8                 	movq	-24(%rbp), %rdi
100007671: 48 89 45 d8                 	movq	%rax, -40(%rbp)
100007675: e8 b6 d4 ff ff              	callq	-11082 <__ZNKSt3__16vectorIiNS_9allocatorIiEEE8capacityEv>
10000767a: 48 c1 e0 02                 	shlq	$2, %rax
10000767e: 48 8b 4d d8                 	movq	-40(%rbp), %rcx
100007682: 48 01 c1                    	addq	%rax, %rcx
100007685: 48 8b 7d e8                 	movq	-24(%rbp), %rdi
100007689: 48 89 4d d0                 	movq	%rcx, -48(%rbp)
10000768d: e8 7e d4 ff ff              	callq	-11138 <__ZNKSt3__16vectorIiNS_9allocatorIiEEE4dataEv>
100007692: 48 8b 7d e8                 	movq	-24(%rbp), %rdi
100007696: 48 89 45 c8                 	movq	%rax, -56(%rbp)
10000769a: e8 91 d4 ff ff              	callq	-11119 <__ZNKSt3__16vectorIiNS_9allocatorIiEEE8capacityEv>
10000769f: 48 c1 e0 02                 	shlq	$2, %rax
1000076a3: 48 8b 4d c8                 	movq	-56(%rbp), %rcx
1000076a7: 48 01 c1                    	addq	%rax, %rcx
1000076aa: 48 8b 7d e8                 	movq	-24(%rbp), %rdi
1000076ae: 48 89 4d c0                 	movq	%rcx, -64(%rbp)
1000076b2: e8 59 d4 ff ff              	callq	-11175 <__ZNKSt3__16vectorIiNS_9allocatorIiEEE4dataEv>
1000076b7: 48 8b 4d f0                 	movq	-16(%rbp), %rcx
1000076bb: 48 c1 e1 02                 	shlq	$2, %rcx
1000076bf: 48 01 c8                    	addq	%rcx, %rax
1000076c2: 48 8b 7d e8                 	movq	-24(%rbp), %rdi
1000076c6: 48 8b 75 e0                 	movq	-32(%rbp), %rsi
1000076ca: 48 8b 55 d0                 	movq	-48(%rbp), %rdx
1000076ce: 48 8b 4d c0                 	movq	-64(%rbp), %rcx
1000076d2: 49 89 c0                    	movq	%rax, %r8
1000076d5: e8 16 d4 ff ff              	callq	-11242 <__ZNKSt3__16vectorIiNS_9allocatorIiEEE31__annotate_contiguous_containerEPKvS5_S5_S5_>
1000076da: 48 83 c4 40                 	addq	$64, %rsp
1000076de: 5d                          	popq	%rbp
1000076df: c3                          	retq

00000001000076e0 __ZNSt3__16vectorIiNS_9allocatorIiEEE26__invalidate_all_iteratorsEv:
1000076e0: 55                          	pushq	%rbp
1000076e1: 48 89 e5                    	movq	%rsp, %rbp
1000076e4: 48 89 7d f8                 	movq	%rdi, -8(%rbp)
1000076e8: 5d                          	popq	%rbp
1000076e9: c3                          	retq
1000076ea: 66 0f 1f 44 00 00           	nopw	(%rax,%rax)

00000001000076f0 __ZNSt3__1L4moveIRPiEEONS_16remove_referenceIT_E4typeEOS4_:
1000076f0: 55                          	pushq	%rbp
1000076f1: 48 89 e5                    	movq	%rsp, %rbp
1000076f4: 48 89 7d f8                 	movq	%rdi, -8(%rbp)
1000076f8: 48 8b 45 f8                 	movq	-8(%rbp), %rax
1000076fc: 5d                          	popq	%rbp
1000076fd: c3                          	retq
1000076fe: 66 90                       	nop

0000000100007700 __ZNSt3__114__split_bufferIiRNS_9allocatorIiEEED2Ev:
100007700: 55                          	pushq	%rbp
100007701: 48 89 e5                    	movq	%rsp, %rbp
100007704: 48 83 ec 30                 	subq	$48, %rsp
100007708: 48 89 7d f8                 	movq	%rdi, -8(%rbp)
10000770c: 48 8b 45 f8                 	movq	-8(%rbp), %rax
100007710: 48 89 c7                    	movq	%rax, %rdi
100007713: 48 89 45 f0                 	movq	%rax, -16(%rbp)
100007717: e8 64 00 00 00              	callq	100 <__ZNSt3__114__split_bufferIiRNS_9allocatorIiEEE5clearEv>
10000771c: 48 8b 45 f0                 	movq	-16(%rbp), %rax
100007720: 48 83 38 00                 	cmpq	$0, (%rax)
100007724: 0f 84 3a 00 00 00           	je	58 <__ZNSt3__114__split_bufferIiRNS_9allocatorIiEEED2Ev+0x64>
10000772a: 48 8b 7d f0                 	movq	-16(%rbp), %rdi
10000772e: e8 5d fc ff ff              	callq	-931 <__ZNSt3__114__split_bufferIiRNS_9allocatorIiEEE7__allocEv>
100007733: 48 8b 4d f0                 	movq	-16(%rbp), %rcx
100007737: 48 8b 31                    	movq	(%rcx), %rsi
10000773a: 48 89 cf                    	movq	%rcx, %rdi
10000773d: 48 89 45 e8                 	movq	%rax, -24(%rbp)
100007741: 48 89 75 e0                 	movq	%rsi, -32(%rbp)
100007745: e8 66 00 00 00              	callq	102 <__ZNKSt3__114__split_bufferIiRNS_9allocatorIiEEE8capacityEv>
10000774a: 48 89 45 d8                 	movq	%rax, -40(%rbp)
10000774e: e9 00 00 00 00              	jmp	0 <__ZNSt3__114__split_bufferIiRNS_9allocatorIiEEED2Ev+0x53>
100007753: 48 8b 7d e8                 	movq	-24(%rbp), %rdi
100007757: 48 8b 75 e0                 	movq	-32(%rbp), %rsi
10000775b: 48 8b 55 d8                 	movq	-40(%rbp), %rdx
10000775f: e8 ec d4 ff ff              	callq	-11028 <__ZNSt3__116allocator_traitsINS_9allocatorIiEEE10deallocateERS2_Pim>
100007764: 48 83 c4 30                 	addq	$48, %rsp
100007768: 5d                          	popq	%rbp
100007769: c3                          	retq
10000776a: 48 89 c7                    	movq	%rax, %rdi
10000776d: 48 89 55 d0                 	movq	%rdx, -48(%rbp)
100007771: e8 6a c5 ff ff              	callq	-14998 <___clang_call_terminate>
100007776: 66 2e 0f 1f 84 00 00 00 00 00       	nopw	%cs:(%rax,%rax)

0000000100007780 __ZNSt3__114__split_bufferIiRNS_9allocatorIiEEE5clearEv:
100007780: 55                          	pushq	%rbp
100007781: 48 89 e5                    	movq	%rsp, %rbp
100007784: 48 83 ec 10                 	subq	$16, %rsp
100007788: 48 89 7d f8                 	movq	%rdi, -8(%rbp)
10000778c: 48 8b 45 f8                 	movq	-8(%rbp), %rax
100007790: 48 8b 70 08                 	movq	8(%rax), %rsi
100007794: 48 89 c7                    	movq	%rax, %rdi
100007797: e8 54 00 00 00              	callq	84 <__ZNSt3__114__split_bufferIiRNS_9allocatorIiEEE17__destruct_at_endEPi>
10000779c: 48 83 c4 10                 	addq	$16, %rsp
1000077a0: 5d                          	popq	%rbp
1000077a1: c3                          	retq
1000077a2: 66 2e 0f 1f 84 00 00 00 00 00       	nopw	%cs:(%rax,%rax)
1000077ac: 0f 1f 40 00                 	nopl	(%rax)

00000001000077b0 __ZNKSt3__114__split_bufferIiRNS_9allocatorIiEEE8capacityEv:
1000077b0: 55                          	pushq	%rbp
1000077b1: 48 89 e5                    	movq	%rsp, %rbp
1000077b4: 48 83 ec 10                 	subq	$16, %rsp
1000077b8: 48 89 7d f8                 	movq	%rdi, -8(%rbp)
1000077bc: 48 8b 45 f8                 	movq	-8(%rbp), %rax
1000077c0: 48 89 c7                    	movq	%rax, %rdi
1000077c3: 48 89 45 f0                 	movq	%rax, -16(%rbp)
1000077c7: e8 d4 00 00 00              	callq	212 <__ZNKSt3__114__split_bufferIiRNS_9allocatorIiEEE9__end_capEv>
1000077cc: 48 8b 00                    	movq	(%rax), %rax
1000077cf: 48 8b 4d f0                 	movq	-16(%rbp), %rcx
1000077d3: 48 8b 11                    	movq	(%rcx), %rdx
1000077d6: 48 29 d0                    	subq	%rdx, %rax
1000077d9: 48 c1 f8 02                 	sarq	$2, %rax
1000077dd: 48 83 c4 10                 	addq	$16, %rsp
1000077e1: 5d                          	popq	%rbp
1000077e2: c3                          	retq
1000077e3: 66 2e 0f 1f 84 00 00 00 00 00       	nopw	%cs:(%rax,%rax)
1000077ed: 0f 1f 00                    	nopl	(%rax)

00000001000077f0 __ZNSt3__114__split_bufferIiRNS_9allocatorIiEEE17__destruct_at_endEPi:
1000077f0: 55                          	pushq	%rbp
1000077f1: 48 89 e5                    	movq	%rsp, %rbp
1000077f4: 48 83 ec 20                 	subq	$32, %rsp
1000077f8: 48 89 7d f8                 	movq	%rdi, -8(%rbp)
1000077fc: 48 89 75 f0                 	movq	%rsi, -16(%rbp)
100007800: 48 8b 7d f8                 	movq	-8(%rbp), %rdi
100007804: 48 8b 75 f0                 	movq	-16(%rbp), %rsi
100007808: e8 13 00 00 00              	callq	19 <__ZNSt3__114__split_bufferIiRNS_9allocatorIiEEE17__destruct_at_endEPiNS_17integral_constantIbLb0EEE>
10000780d: 48 83 c4 20                 	addq	$32, %rsp
100007811: 5d                          	popq	%rbp
100007812: c3                          	retq
100007813: 66 2e 0f 1f 84 00 00 00 00 00       	nopw	%cs:(%rax,%rax)
10000781d: 0f 1f 00                    	nopl	(%rax)

0000000100007820 __ZNSt3__114__split_bufferIiRNS_9allocatorIiEEE17__destruct_at_endEPiNS_17integral_constantIbLb0EEE:
100007820: 55                          	pushq	%rbp
100007821: 48 89 e5                    	movq	%rsp, %rbp
100007824: 48 83 ec 30                 	subq	$48, %rsp
100007828: 48 89 7d f0                 	movq	%rdi, -16(%rbp)
10000782c: 48 89 75 e8                 	movq	%rsi, -24(%rbp)
100007830: 48 8b 45 f0                 	movq	-16(%rbp), %rax
100007834: 48 89 45 e0                 	movq	%rax, -32(%rbp)
100007838: 48 8b 45 e8                 	movq	-24(%rbp), %rax
10000783c: 48 8b 4d e0                 	movq	-32(%rbp), %rcx
100007840: 48 3b 41 10                 	cmpq	16(%rcx), %rax
100007844: 0f 84 3b 00 00 00           	je	59 <__ZNSt3__114__split_bufferIiRNS_9allocatorIiEEE17__destruct_at_endEPiNS_17integral_constantIbLb0EEE+0x65>
10000784a: 48 8b 7d e0                 	movq	-32(%rbp), %rdi
10000784e: e8 3d fb ff ff              	callq	-1219 <__ZNSt3__114__split_bufferIiRNS_9allocatorIiEEE7__allocEv>
100007853: 48 8b 4d e0                 	movq	-32(%rbp), %rcx
100007857: 48 8b 51 10                 	movq	16(%rcx), %rdx
10000785b: 48 83 c2 fc                 	addq	$-4, %rdx
10000785f: 48 89 51 10                 	movq	%rdx, 16(%rcx)
100007863: 48 89 d7                    	movq	%rdx, %rdi
100007866: 48 89 45 d8                 	movq	%rax, -40(%rbp)
10000786a: e8 01 d3 ff ff              	callq	-11519 <__ZNSt3__1L12__to_addressIiEEPT_S2_>
10000786f: 48 8b 7d d8                 	movq	-40(%rbp), %rdi
100007873: 48 89 c6                    	movq	%rax, %rsi
100007876: e8 c5 d4 ff ff              	callq	-11067 <__ZNSt3__116allocator_traitsINS_9allocatorIiEEE7destroyIiEEvRS2_PT_>
10000787b: e9 00 00 00 00              	jmp	0 <__ZNSt3__114__split_bufferIiRNS_9allocatorIiEEE17__destruct_at_endEPiNS_17integral_constantIbLb0EEE+0x60>
100007880: e9 b3 ff ff ff              	jmp	-77 <__ZNSt3__114__split_bufferIiRNS_9allocatorIiEEE17__destruct_at_endEPiNS_17integral_constantIbLb0EEE+0x18>
100007885: 48 83 c4 30                 	addq	$48, %rsp
100007889: 5d                          	popq	%rbp
10000788a: c3                          	retq
10000788b: 48 89 c7                    	movq	%rax, %rdi
10000788e: 48 89 55 d0                 	movq	%rdx, -48(%rbp)
100007892: e8 49 c4 ff ff              	callq	-15287 <___clang_call_terminate>
100007897: 66 0f 1f 84 00 00 00 00 00  	nopw	(%rax,%rax)

00000001000078a0 __ZNKSt3__114__split_bufferIiRNS_9allocatorIiEEE9__end_capEv:
1000078a0: 55                          	pushq	%rbp
1000078a1: 48 89 e5                    	movq	%rsp, %rbp
1000078a4: 48 83 ec 10                 	subq	$16, %rsp
1000078a8: 48 89 7d f8                 	movq	%rdi, -8(%rbp)
1000078ac: 48 8b 45 f8                 	movq	-8(%rbp), %rax
1000078b0: 48 05 18 00 00 00           	addq	$24, %rax
1000078b6: 48 89 c7                    	movq	%rax, %rdi
1000078b9: e8 12 00 00 00              	callq	18 <__ZNKSt3__117__compressed_pairIPiRNS_9allocatorIiEEE5firstEv>
1000078be: 48 83 c4 10                 	addq	$16, %rsp
1000078c2: 5d                          	popq	%rbp
1000078c3: c3                          	retq
1000078c4: 66 2e 0f 1f 84 00 00 00 00 00       	nopw	%cs:(%rax,%rax)
1000078ce: 66 90                       	nop

00000001000078d0 __ZNKSt3__117__compressed_pairIPiRNS_9allocatorIiEEE5firstEv:
1000078d0: 55                          	pushq	%rbp
1000078d1: 48 89 e5                    	movq	%rsp, %rbp
1000078d4: 48 83 ec 10                 	subq	$16, %rsp
1000078d8: 48 89 7d f8                 	movq	%rdi, -8(%rbp)
1000078dc: 48 8b 45 f8                 	movq	-8(%rbp), %rax
1000078e0: 48 89 c7                    	movq	%rax, %rdi
1000078e3: e8 28 d3 ff ff              	callq	-11480 <__ZNKSt3__122__compressed_pair_elemIPiLi0ELb0EE5__getEv>
1000078e8: 48 83 c4 10                 	addq	$16, %rsp
1000078ec: 5d                          	popq	%rbp
1000078ed: c3                          	retq
1000078ee: 66 90                       	nop

00000001000078f0 __ZNSt3__112__hash_tableIiNS_4hashIiEENS_8equal_toIiEENS_9allocatorIiEEE5beginEv:
1000078f0: 55                          	pushq	%rbp
1000078f1: 48 89 e5                    	movq	%rsp, %rbp
1000078f4: 48 83 ec 10                 	subq	$16, %rsp
1000078f8: 48 89 7d f0                 	movq	%rdi, -16(%rbp)
1000078fc: 48 8b 45 f0                 	movq	-16(%rbp), %rax
100007900: 48 05 10 00 00 00           	addq	$16, %rax
100007906: 48 89 c7                    	movq	%rax, %rdi
100007909: e8 12 cd ff ff              	callq	-13038 <__ZNSt3__117__compressed_pairINS_16__hash_node_baseIPNS_11__hash_nodeIiPvEEEENS_9allocatorIS4_EEE5firstEv>
10000790e: 48 8b 30                    	movq	(%rax), %rsi
100007911: 48 8d 7d f8                 	leaq	-8(%rbp), %rdi
100007915: e8 16 e3 ff ff              	callq	-7402 <__ZNSt3__115__hash_iteratorIPNS_11__hash_nodeIiPvEEEC1EPNS_16__hash_node_baseIS4_EE>
10000791a: 48 8b 45 f8                 	movq	-8(%rbp), %rax
10000791e: 48 83 c4 10                 	addq	$16, %rsp
100007922: 5d                          	popq	%rbp
100007923: c3                          	retq
100007924: 66 2e 0f 1f 84 00 00 00 00 00       	nopw	%cs:(%rax,%rax)
10000792e: 66 90                       	nop

0000000100007930 __ZNSt3__112__hash_tableIiNS_4hashIiEENS_8equal_toIiEENS_9allocatorIiEEE3endEv:
100007930: 55                          	pushq	%rbp
100007931: 48 89 e5                    	movq	%rsp, %rbp
100007934: 48 83 ec 10                 	subq	$16, %rsp
100007938: 31 c0                       	xorl	%eax, %eax
10000793a: 89 c6                       	movl	%eax, %esi
10000793c: 48 89 7d f0                 	movq	%rdi, -16(%rbp)
100007940: 48 8d 7d f8                 	leaq	-8(%rbp), %rdi
100007944: e8 e7 e2 ff ff              	callq	-7449 <__ZNSt3__115__hash_iteratorIPNS_11__hash_nodeIiPvEEEC1EPNS_16__hash_node_baseIS4_EE>
100007949: 48 8b 45 f8                 	movq	-8(%rbp), %rax
10000794d: 48 83 c4 10                 	addq	$16, %rsp
100007951: 5d                          	popq	%rbp
100007952: c3                          	retq
100007953: 66 2e 0f 1f 84 00 00 00 00 00       	nopw	%cs:(%rax,%rax)
10000795d: 0f 1f 00                    	nopl	(%rax)

0000000100007960 __ZNSt3__1eqERKNS_21__hash_const_iteratorIPNS_11__hash_nodeIiPvEEEES7_:
100007960: 55                          	pushq	%rbp
100007961: 48 89 e5                    	movq	%rsp, %rbp
100007964: 48 89 7d f8                 	movq	%rdi, -8(%rbp)
100007968: 48 89 75 f0                 	movq	%rsi, -16(%rbp)
10000796c: 48 8b 45 f8                 	movq	-8(%rbp), %rax
100007970: 48 8b 00                    	movq	(%rax), %rax
100007973: 48 8b 4d f0                 	movq	-16(%rbp), %rcx
100007977: 48 3b 01                    	cmpq	(%rcx), %rax
10000797a: 0f 94 c2                    	sete	%dl
10000797d: 80 e2 01                    	andb	$1, %dl
100007980: 0f b6 c2                    	movzbl	%dl, %eax
100007983: 5d                          	popq	%rbp
100007984: c3                          	retq
100007985: 66 2e 0f 1f 84 00 00 00 00 00       	nopw	%cs:(%rax,%rax)
10000798f: 90                          	nop

0000000100007990 __ZNKSt3__19basic_iosIcNS_11char_traitsIcEEE5widenEc:
100007990: 55                          	pushq	%rbp
100007991: 48 89 e5                    	movq	%rsp, %rbp
100007994: 48 83 ec 40                 	subq	$64, %rsp
100007998: 48 89 7d f8                 	movq	%rdi, -8(%rbp)
10000799c: 40 88 75 f7                 	movb	%sil, -9(%rbp)
1000079a0: 48 8b 75 f8                 	movq	-8(%rbp), %rsi
1000079a4: 48 8d 45 e8                 	leaq	-24(%rbp), %rax
1000079a8: 48 89 c7                    	movq	%rax, %rdi
1000079ab: 48 89 45 d0                 	movq	%rax, -48(%rbp)
1000079af: e8 a6 01 00 00              	callq	422 <dyld_stub_binder+0x100007b5a>
1000079b4: 48 8b 7d d0                 	movq	-48(%rbp), %rdi
1000079b8: e8 53 00 00 00              	callq	83 <__ZNSt3__1L9use_facetINS_5ctypeIcEEEERKT_RKNS_6localeE>
1000079bd: 48 89 45 c8                 	movq	%rax, -56(%rbp)
1000079c1: e9 00 00 00 00              	jmp	0 <__ZNKSt3__19basic_iosIcNS_11char_traitsIcEEE5widenEc+0x36>
1000079c6: 0f be 75 f7                 	movsbl	-9(%rbp), %esi
1000079ca: 48 8b 7d c8                 	movq	-56(%rbp), %rdi
1000079ce: e8 6d 00 00 00              	callq	109 <__ZNKSt3__15ctypeIcE5widenEc>
1000079d3: 88 45 c7                    	movb	%al, -57(%rbp)
1000079d6: e9 00 00 00 00              	jmp	0 <__ZNKSt3__19basic_iosIcNS_11char_traitsIcEEE5widenEc+0x4b>
1000079db: 48 8d 7d e8                 	leaq	-24(%rbp), %rdi
1000079df: e8 be 01 00 00              	callq	446 <dyld_stub_binder+0x100007ba2>
1000079e4: 8a 45 c7                    	movb	-57(%rbp), %al
1000079e7: 0f be c0                    	movsbl	%al, %eax
1000079ea: 48 83 c4 40                 	addq	$64, %rsp
1000079ee: 5d                          	popq	%rbp
1000079ef: c3                          	retq
1000079f0: 48 89 45 e0                 	movq	%rax, -32(%rbp)
1000079f4: 89 55 dc                    	movl	%edx, -36(%rbp)
1000079f7: 48 8d 7d e8                 	leaq	-24(%rbp), %rdi
1000079fb: e8 a2 01 00 00              	callq	418 <dyld_stub_binder+0x100007ba2>
100007a00: 48 8b 7d e0                 	movq	-32(%rbp), %rdi
100007a04: e8 39 01 00 00              	callq	313 <dyld_stub_binder+0x100007b42>
100007a09: 0f 0b                       	ud2
100007a0b: 0f 1f 44 00 00              	nopl	(%rax,%rax)

0000000100007a10 __ZNSt3__1L9use_facetINS_5ctypeIcEEEERKT_RKNS_6localeE:
100007a10: 55                          	pushq	%rbp
100007a11: 48 89 e5                    	movq	%rsp, %rbp
100007a14: 48 83 ec 10                 	subq	$16, %rsp
100007a18: 48 8b 35 f1 05 00 00        	movq	1521(%rip), %rsi
100007a1f: 48 89 7d f8                 	movq	%rdi, -8(%rbp)
100007a23: 48 8b 7d f8                 	movq	-8(%rbp), %rdi
100007a27: e8 22 01 00 00              	callq	290 <dyld_stub_binder+0x100007b4e>
100007a2c: 48 83 c4 10                 	addq	$16, %rsp
100007a30: 5d                          	popq	%rbp
100007a31: c3                          	retq
100007a32: 66 2e 0f 1f 84 00 00 00 00 00       	nopw	%cs:(%rax,%rax)
100007a3c: 0f 1f 40 00                 	nopl	(%rax)

0000000100007a40 __ZNKSt3__15ctypeIcE5widenEc:
100007a40: 55                          	pushq	%rbp
100007a41: 48 89 e5                    	movq	%rsp, %rbp
100007a44: 48 83 ec 10                 	subq	$16, %rsp
100007a48: 48 89 7d f8                 	movq	%rdi, -8(%rbp)
100007a4c: 40 88 75 f7                 	movb	%sil, -9(%rbp)
100007a50: 48 8b 45 f8                 	movq	-8(%rbp), %rax
100007a54: 8a 4d f7                    	movb	-9(%rbp), %cl
100007a57: 48 8b 10                    	movq	(%rax), %rdx
100007a5a: 48 89 c7                    	movq	%rax, %rdi
100007a5d: 0f be f1                    	movsbl	%cl, %esi
100007a60: ff 52 38                    	callq	*56(%rdx)
100007a63: 0f be c0                    	movsbl	%al, %eax
100007a66: 48 83 c4 10                 	addq	$16, %rsp
100007a6a: 5d                          	popq	%rbp
100007a6b: c3                          	retq
100007a6c: 0f 1f 40 00                 	nopl	(%rax)

0000000100007a70 __ZNSt3__16vectorIiNS_9allocatorIiEEE11__make_iterEPi:
100007a70: 55                          	pushq	%rbp
100007a71: 48 89 e5                    	movq	%rsp, %rbp
100007a74: 48 83 ec 20                 	subq	$32, %rsp
100007a78: 48 89 7d f0                 	movq	%rdi, -16(%rbp)
100007a7c: 48 89 75 e8                 	movq	%rsi, -24(%rbp)
100007a80: 48 8b 75 e8                 	movq	-24(%rbp), %rsi
100007a84: 48 8d 7d f8                 	leaq	-8(%rbp), %rdi
100007a88: e8 13 00 00 00              	callq	19 <__ZNSt3__111__wrap_iterIPiEC1ES1_>
100007a8d: 48 8b 45 f8                 	movq	-8(%rbp), %rax
100007a91: 48 83 c4 20                 	addq	$32, %rsp
100007a95: 5d                          	popq	%rbp
100007a96: c3                          	retq
100007a97: 66 0f 1f 84 00 00 00 00 00  	nopw	(%rax,%rax)

0000000100007aa0 __ZNSt3__111__wrap_iterIPiEC1ES1_:
100007aa0: 55                          	pushq	%rbp
100007aa1: 48 89 e5                    	movq	%rsp, %rbp
100007aa4: 48 83 ec 10                 	subq	$16, %rsp
100007aa8: 48 89 7d f8                 	movq	%rdi, -8(%rbp)
100007aac: 48 89 75 f0                 	movq	%rsi, -16(%rbp)
100007ab0: 48 8b 7d f8                 	movq	-8(%rbp), %rdi
100007ab4: 48 8b 75 f0                 	movq	-16(%rbp), %rsi
100007ab8: e8 13 00 00 00              	callq	19 <__ZNSt3__111__wrap_iterIPiEC2ES1_>
100007abd: 48 83 c4 10                 	addq	$16, %rsp
100007ac1: 5d                          	popq	%rbp
100007ac2: c3                          	retq
100007ac3: 66 2e 0f 1f 84 00 00 00 00 00       	nopw	%cs:(%rax,%rax)
100007acd: 0f 1f 00                    	nopl	(%rax)

0000000100007ad0 __ZNSt3__111__wrap_iterIPiEC2ES1_:
100007ad0: 55                          	pushq	%rbp
100007ad1: 48 89 e5                    	movq	%rsp, %rbp
100007ad4: 48 89 7d f8                 	movq	%rdi, -8(%rbp)
100007ad8: 48 89 75 f0                 	movq	%rsi, -16(%rbp)
100007adc: 48 8b 45 f8                 	movq	-8(%rbp), %rax
100007ae0: 48 8b 4d f0                 	movq	-16(%rbp), %rcx
100007ae4: 48 89 08                    	movq	%rcx, (%rax)
100007ae7: 5d                          	popq	%rbp
100007ae8: c3                          	retq
100007ae9: 0f 1f 80 00 00 00 00        	nopl	(%rax)

0000000100007af0 __ZNSt3__1eqIPiS1_EEbRKNS_11__wrap_iterIT_EERKNS2_IT0_EE:
100007af0: 55                          	pushq	%rbp
100007af1: 48 89 e5                    	movq	%rsp, %rbp
100007af4: 48 83 ec 20                 	subq	$32, %rsp
100007af8: 48 89 7d f8                 	movq	%rdi, -8(%rbp)
100007afc: 48 89 75 f0                 	movq	%rsi, -16(%rbp)
100007b00: 48 8b 7d f8                 	movq	-8(%rbp), %rdi
100007b04: e8 27 00 00 00              	callq	39 <__ZNKSt3__111__wrap_iterIPiE4baseEv>
100007b09: 48 8b 7d f0                 	movq	-16(%rbp), %rdi
100007b0d: 48 89 45 e8                 	movq	%rax, -24(%rbp)
100007b11: e8 1a 00 00 00              	callq	26 <__ZNKSt3__111__wrap_iterIPiE4baseEv>
100007b16: 48 8b 4d e8                 	movq	-24(%rbp), %rcx
100007b1a: 48 39 c1                    	cmpq	%rax, %rcx
100007b1d: 0f 94 c2                    	sete	%dl
100007b20: 80 e2 01                    	andb	$1, %dl
100007b23: 0f b6 c2                    	movzbl	%dl, %eax
100007b26: 48 83 c4 20                 	addq	$32, %rsp
100007b2a: 5d                          	popq	%rbp
100007b2b: c3                          	retq
100007b2c: 0f 1f 40 00                 	nopl	(%rax)

0000000100007b30 __ZNKSt3__111__wrap_iterIPiE4baseEv:
100007b30: 55                          	pushq	%rbp
100007b31: 48 89 e5                    	movq	%rsp, %rbp
100007b34: 48 89 7d f8                 	movq	%rdi, -8(%rbp)
100007b38: 48 8b 45 f8                 	movq	-8(%rbp), %rax
100007b3c: 48 8b 00                    	movq	(%rax), %rax
100007b3f: 5d                          	popq	%rbp
100007b40: c3                          	retq

Disassembly of section __TEXT,__stubs:

0000000100007b42 __stubs:
100007b42: ff 25 b8 44 00 00           	jmpq	*17592(%rip)
100007b48: ff 25 ba 44 00 00           	jmpq	*17594(%rip)
100007b4e: ff 25 bc 44 00 00           	jmpq	*17596(%rip)
100007b54: ff 25 be 44 00 00           	jmpq	*17598(%rip)
100007b5a: ff 25 c0 44 00 00           	jmpq	*17600(%rip)
100007b60: ff 25 c2 44 00 00           	jmpq	*17602(%rip)
100007b66: ff 25 c4 44 00 00           	jmpq	*17604(%rip)
100007b6c: ff 25 c6 44 00 00           	jmpq	*17606(%rip)
100007b72: ff 25 c8 44 00 00           	jmpq	*17608(%rip)
100007b78: ff 25 ca 44 00 00           	jmpq	*17610(%rip)
100007b7e: ff 25 cc 44 00 00           	jmpq	*17612(%rip)
100007b84: ff 25 ce 44 00 00           	jmpq	*17614(%rip)
100007b8a: ff 25 d0 44 00 00           	jmpq	*17616(%rip)
100007b90: ff 25 d2 44 00 00           	jmpq	*17618(%rip)
100007b96: ff 25 d4 44 00 00           	jmpq	*17620(%rip)
100007b9c: ff 25 d6 44 00 00           	jmpq	*17622(%rip)
100007ba2: ff 25 d8 44 00 00           	jmpq	*17624(%rip)
100007ba8: ff 25 da 44 00 00           	jmpq	*17626(%rip)
100007bae: ff 25 dc 44 00 00           	jmpq	*17628(%rip)
100007bb4: ff 25 de 44 00 00           	jmpq	*17630(%rip)
100007bba: ff 25 e0 44 00 00           	jmpq	*17632(%rip)
100007bc0: ff 25 e2 44 00 00           	jmpq	*17634(%rip)
100007bc6: ff 25 e4 44 00 00           	jmpq	*17636(%rip)
100007bcc: ff 25 e6 44 00 00           	jmpq	*17638(%rip)
100007bd2: ff 25 e8 44 00 00           	jmpq	*17640(%rip)
100007bd8: ff 25 ea 44 00 00           	jmpq	*17642(%rip)
100007bde: ff 25 ec 44 00 00           	jmpq	*17644(%rip)

Disassembly of section __TEXT,__stub_helper:

0000000100007be4 __stub_helper:
100007be4: 4c 8d 1d ed 44 00 00        	leaq	17645(%rip), %r11
100007beb: 41 53                       	pushq	%r11
100007bed: ff 25 3d 04 00 00           	jmpq	*1085(%rip)
100007bf3: 90                          	nop
100007bf4: 68 16 00 00 00              	pushq	$22
100007bf9: e9 e6 ff ff ff              	jmp	-26 <__stub_helper>
100007bfe: 68 5c 00 00 00              	pushq	$92
100007c03: e9 dc ff ff ff              	jmp	-36 <__stub_helper>
100007c08: 68 89 00 00 00              	pushq	$137
100007c0d: e9 d2 ff ff ff              	jmp	-46 <__stub_helper>
100007c12: 68 ad 00 00 00              	pushq	$173
100007c17: e9 c8 ff ff ff              	jmp	-56 <__stub_helper>
100007c1c: 68 cd 00 00 00              	pushq	$205
100007c21: e9 be ff ff ff              	jmp	-66 <__stub_helper>
100007c26: 68 ee 00 00 00              	pushq	$238
100007c2b: e9 b4 ff ff ff              	jmp	-76 <__stub_helper>
100007c30: 68 2b 01 00 00              	pushq	$299
100007c35: e9 aa ff ff ff              	jmp	-86 <__stub_helper>
100007c3a: 68 6a 01 00 00              	pushq	$362
100007c3f: e9 a0 ff ff ff              	jmp	-96 <__stub_helper>
100007c44: 68 a5 01 00 00              	pushq	$421
100007c49: e9 96 ff ff ff              	jmp	-106 <__stub_helper>
100007c4e: 68 c2 01 00 00              	pushq	$450
100007c53: e9 8c ff ff ff              	jmp	-116 <__stub_helper>
100007c58: 68 da 01 00 00              	pushq	$474
100007c5d: e9 82 ff ff ff              	jmp	-126 <__stub_helper>
100007c62: 68 fb 01 00 00              	pushq	$507
100007c67: e9 78 ff ff ff              	jmp	-136 <__stub_helper>
100007c6c: 68 15 02 00 00              	pushq	$533
100007c71: e9 6e ff ff ff              	jmp	-146 <__stub_helper>
100007c76: 68 32 02 00 00              	pushq	$562
100007c7b: e9 64 ff ff ff              	jmp	-156 <__stub_helper>
100007c80: 68 00 00 00 00              	pushq	$0
100007c85: e9 5a ff ff ff              	jmp	-166 <__stub_helper>
100007c8a: 68 46 02 00 00              	pushq	$582
100007c8f: e9 50 ff ff ff              	jmp	-176 <__stub_helper>
100007c94: 68 54 02 00 00              	pushq	$596
100007c99: e9 46 ff ff ff              	jmp	-186 <__stub_helper>
