
a.out:	file format Mach-O 64-bit x86-64


Disassembly of section __TEXT,__text:

00000001000045e0 __ZN4Node6insertEjR13NodeAllocator:
1000045e0: 55                          	pushq	%rbp
1000045e1: 48 89 e5                    	movq	%rsp, %rbp
1000045e4: 41 57                       	pushq	%r15
1000045e6: 41 56                       	pushq	%r14
1000045e8: 41 55                       	pushq	%r13
1000045ea: 41 54                       	pushq	%r12
1000045ec: 53                          	pushq	%rbx
1000045ed: 48 81 ec 48 06 00 00        	subq	$1608, %rsp
1000045f4: 49 89 d4                    	movq	%rdx, %r12
1000045f7: 48 c7 85 90 f9 ff ff 00 00 00 00    	movq	$0, -1648(%rbp)
100004602: c7 85 98 f9 ff ff 00 00 00 00       	movl	$0, -1640(%rbp)
10000460c: 48 c7 85 a0 f9 ff ff 00 00 00 00    	movq	$0, -1632(%rbp)
100004617: c7 85 a8 f9 ff ff 00 00 00 00       	movl	$0, -1624(%rbp)
100004621: 48 c7 85 b0 f9 ff ff 00 00 00 00    	movq	$0, -1616(%rbp)
10000462c: c7 85 b8 f9 ff ff 00 00 00 00       	movl	$0, -1608(%rbp)
100004636: 48 c7 85 c0 f9 ff ff 00 00 00 00    	movq	$0, -1600(%rbp)
100004641: c7 85 c8 f9 ff ff 00 00 00 00       	movl	$0, -1592(%rbp)
10000464b: 48 c7 85 d0 f9 ff ff 00 00 00 00    	movq	$0, -1584(%rbp)
100004656: c7 85 d8 f9 ff ff 00 00 00 00       	movl	$0, -1576(%rbp)
100004660: 48 c7 85 e0 f9 ff ff 00 00 00 00    	movq	$0, -1568(%rbp)
10000466b: c7 85 e8 f9 ff ff 00 00 00 00       	movl	$0, -1560(%rbp)
100004675: 48 c7 85 f0 f9 ff ff 00 00 00 00    	movq	$0, -1552(%rbp)
100004680: c7 85 f8 f9 ff ff 00 00 00 00       	movl	$0, -1544(%rbp)
10000468a: 48 c7 85 00 fa ff ff 00 00 00 00    	movq	$0, -1536(%rbp)
100004695: c7 85 08 fa ff ff 00 00 00 00       	movl	$0, -1528(%rbp)
10000469f: 48 c7 85 10 fa ff ff 00 00 00 00    	movq	$0, -1520(%rbp)
1000046aa: c7 85 18 fa ff ff 00 00 00 00       	movl	$0, -1512(%rbp)
1000046b4: 48 c7 85 20 fa ff ff 00 00 00 00    	movq	$0, -1504(%rbp)
1000046bf: c7 85 28 fa ff ff 00 00 00 00       	movl	$0, -1496(%rbp)
1000046c9: 48 c7 85 30 fa ff ff 00 00 00 00    	movq	$0, -1488(%rbp)
1000046d4: c7 85 38 fa ff ff 00 00 00 00       	movl	$0, -1480(%rbp)
1000046de: 48 c7 85 40 fa ff ff 00 00 00 00    	movq	$0, -1472(%rbp)
1000046e9: c7 85 48 fa ff ff 00 00 00 00       	movl	$0, -1464(%rbp)
1000046f3: 48 c7 85 50 fa ff ff 00 00 00 00    	movq	$0, -1456(%rbp)
1000046fe: c7 85 58 fa ff ff 00 00 00 00       	movl	$0, -1448(%rbp)
100004708: 48 c7 85 60 fa ff ff 00 00 00 00    	movq	$0, -1440(%rbp)
100004713: c7 85 68 fa ff ff 00 00 00 00       	movl	$0, -1432(%rbp)
10000471d: 48 c7 85 70 fa ff ff 00 00 00 00    	movq	$0, -1424(%rbp)
100004728: c7 85 78 fa ff ff 00 00 00 00       	movl	$0, -1416(%rbp)
100004732: 48 c7 85 80 fa ff ff 00 00 00 00    	movq	$0, -1408(%rbp)
10000473d: c7 85 88 fa ff ff 00 00 00 00       	movl	$0, -1400(%rbp)
100004747: 48 c7 85 90 fa ff ff 00 00 00 00    	movq	$0, -1392(%rbp)
100004752: c7 85 98 fa ff ff 00 00 00 00       	movl	$0, -1384(%rbp)
10000475c: 48 c7 85 a0 fa ff ff 00 00 00 00    	movq	$0, -1376(%rbp)
100004767: c7 85 a8 fa ff ff 00 00 00 00       	movl	$0, -1368(%rbp)
100004771: 48 c7 85 b0 fa ff ff 00 00 00 00    	movq	$0, -1360(%rbp)
10000477c: c7 85 b8 fa ff ff 00 00 00 00       	movl	$0, -1352(%rbp)
100004786: 48 c7 85 c0 fa ff ff 00 00 00 00    	movq	$0, -1344(%rbp)
100004791: c7 85 c8 fa ff ff 00 00 00 00       	movl	$0, -1336(%rbp)
10000479b: 48 c7 85 d0 fa ff ff 00 00 00 00    	movq	$0, -1328(%rbp)
1000047a6: c7 85 d8 fa ff ff 00 00 00 00       	movl	$0, -1320(%rbp)
1000047b0: 48 c7 85 e0 fa ff ff 00 00 00 00    	movq	$0, -1312(%rbp)
1000047bb: c7 85 e8 fa ff ff 00 00 00 00       	movl	$0, -1304(%rbp)
1000047c5: 48 c7 85 f0 fa ff ff 00 00 00 00    	movq	$0, -1296(%rbp)
1000047d0: c7 85 f8 fa ff ff 00 00 00 00       	movl	$0, -1288(%rbp)
1000047da: 48 c7 85 00 fb ff ff 00 00 00 00    	movq	$0, -1280(%rbp)
1000047e5: c7 85 08 fb ff ff 00 00 00 00       	movl	$0, -1272(%rbp)
1000047ef: 48 c7 85 10 fb ff ff 00 00 00 00    	movq	$0, -1264(%rbp)
1000047fa: c7 85 18 fb ff ff 00 00 00 00       	movl	$0, -1256(%rbp)
100004804: 48 c7 85 20 fb ff ff 00 00 00 00    	movq	$0, -1248(%rbp)
10000480f: c7 85 28 fb ff ff 00 00 00 00       	movl	$0, -1240(%rbp)
100004819: 48 c7 85 30 fb ff ff 00 00 00 00    	movq	$0, -1232(%rbp)
100004824: c7 85 38 fb ff ff 00 00 00 00       	movl	$0, -1224(%rbp)
10000482e: 48 c7 85 40 fb ff ff 00 00 00 00    	movq	$0, -1216(%rbp)
100004839: c7 85 48 fb ff ff 00 00 00 00       	movl	$0, -1208(%rbp)
100004843: 48 c7 85 50 fb ff ff 00 00 00 00    	movq	$0, -1200(%rbp)
10000484e: c7 85 58 fb ff ff 00 00 00 00       	movl	$0, -1192(%rbp)
100004858: 48 c7 85 60 fb ff ff 00 00 00 00    	movq	$0, -1184(%rbp)
100004863: c7 85 68 fb ff ff 00 00 00 00       	movl	$0, -1176(%rbp)
10000486d: 48 c7 85 70 fb ff ff 00 00 00 00    	movq	$0, -1168(%rbp)
100004878: c7 85 78 fb ff ff 00 00 00 00       	movl	$0, -1160(%rbp)
100004882: 48 c7 85 80 fb ff ff 00 00 00 00    	movq	$0, -1152(%rbp)
10000488d: c7 85 88 fb ff ff 00 00 00 00       	movl	$0, -1144(%rbp)
100004897: 48 c7 85 90 fb ff ff 00 00 00 00    	movq	$0, -1136(%rbp)
1000048a2: c7 85 98 fb ff ff 00 00 00 00       	movl	$0, -1128(%rbp)
1000048ac: 48 c7 85 a0 fb ff ff 00 00 00 00    	movq	$0, -1120(%rbp)
1000048b7: c7 85 a8 fb ff ff 00 00 00 00       	movl	$0, -1112(%rbp)
1000048c1: 48 c7 85 b0 fb ff ff 00 00 00 00    	movq	$0, -1104(%rbp)
1000048cc: c7 85 b8 fb ff ff 00 00 00 00       	movl	$0, -1096(%rbp)
1000048d6: 48 c7 85 c0 fb ff ff 00 00 00 00    	movq	$0, -1088(%rbp)
1000048e1: c7 85 c8 fb ff ff 00 00 00 00       	movl	$0, -1080(%rbp)
1000048eb: 48 c7 85 d0 fb ff ff 00 00 00 00    	movq	$0, -1072(%rbp)
1000048f6: c7 85 d8 fb ff ff 00 00 00 00       	movl	$0, -1064(%rbp)
100004900: 48 c7 85 e0 fb ff ff 00 00 00 00    	movq	$0, -1056(%rbp)
10000490b: c7 85 e8 fb ff ff 00 00 00 00       	movl	$0, -1048(%rbp)
100004915: 48 c7 85 f0 fb ff ff 00 00 00 00    	movq	$0, -1040(%rbp)
100004920: c7 85 f8 fb ff ff 00 00 00 00       	movl	$0, -1032(%rbp)
10000492a: 48 c7 85 00 fc ff ff 00 00 00 00    	movq	$0, -1024(%rbp)
100004935: c7 85 08 fc ff ff 00 00 00 00       	movl	$0, -1016(%rbp)
10000493f: 48 c7 85 10 fc ff ff 00 00 00 00    	movq	$0, -1008(%rbp)
10000494a: c7 85 18 fc ff ff 00 00 00 00       	movl	$0, -1000(%rbp)
100004954: 48 c7 85 20 fc ff ff 00 00 00 00    	movq	$0, -992(%rbp)
10000495f: c7 85 28 fc ff ff 00 00 00 00       	movl	$0, -984(%rbp)
100004969: 48 c7 85 30 fc ff ff 00 00 00 00    	movq	$0, -976(%rbp)
100004974: c7 85 38 fc ff ff 00 00 00 00       	movl	$0, -968(%rbp)
10000497e: 48 c7 85 40 fc ff ff 00 00 00 00    	movq	$0, -960(%rbp)
100004989: c7 85 48 fc ff ff 00 00 00 00       	movl	$0, -952(%rbp)
100004993: 48 c7 85 50 fc ff ff 00 00 00 00    	movq	$0, -944(%rbp)
10000499e: c7 85 58 fc ff ff 00 00 00 00       	movl	$0, -936(%rbp)
1000049a8: 48 c7 85 60 fc ff ff 00 00 00 00    	movq	$0, -928(%rbp)
1000049b3: c7 85 68 fc ff ff 00 00 00 00       	movl	$0, -920(%rbp)
1000049bd: 48 c7 85 70 fc ff ff 00 00 00 00    	movq	$0, -912(%rbp)
1000049c8: c7 85 78 fc ff ff 00 00 00 00       	movl	$0, -904(%rbp)
1000049d2: 48 c7 85 80 fc ff ff 00 00 00 00    	movq	$0, -896(%rbp)
1000049dd: c7 85 88 fc ff ff 00 00 00 00       	movl	$0, -888(%rbp)
1000049e7: 48 c7 85 90 fc ff ff 00 00 00 00    	movq	$0, -880(%rbp)
1000049f2: c7 85 98 fc ff ff 00 00 00 00       	movl	$0, -872(%rbp)
1000049fc: 48 c7 85 a0 fc ff ff 00 00 00 00    	movq	$0, -864(%rbp)
100004a07: c7 85 a8 fc ff ff 00 00 00 00       	movl	$0, -856(%rbp)
100004a11: 48 c7 85 b0 fc ff ff 00 00 00 00    	movq	$0, -848(%rbp)
100004a1c: c7 85 b8 fc ff ff 00 00 00 00       	movl	$0, -840(%rbp)
100004a26: 48 c7 85 c0 fc ff ff 00 00 00 00    	movq	$0, -832(%rbp)
100004a31: c7 85 c8 fc ff ff 00 00 00 00       	movl	$0, -824(%rbp)
100004a3b: 48 c7 85 d0 fc ff ff 00 00 00 00    	movq	$0, -816(%rbp)
100004a46: c7 85 d8 fc ff ff 00 00 00 00       	movl	$0, -808(%rbp)
100004a50: 48 c7 85 e0 fc ff ff 00 00 00 00    	movq	$0, -800(%rbp)
100004a5b: c7 85 e8 fc ff ff 00 00 00 00       	movl	$0, -792(%rbp)
100004a65: 48 c7 85 f0 fc ff ff 00 00 00 00    	movq	$0, -784(%rbp)
100004a70: c7 85 f8 fc ff ff 00 00 00 00       	movl	$0, -776(%rbp)
100004a7a: 48 c7 85 00 fd ff ff 00 00 00 00    	movq	$0, -768(%rbp)
100004a85: c7 85 08 fd ff ff 00 00 00 00       	movl	$0, -760(%rbp)
100004a8f: 48 c7 85 10 fd ff ff 00 00 00 00    	movq	$0, -752(%rbp)
100004a9a: c7 85 18 fd ff ff 00 00 00 00       	movl	$0, -744(%rbp)
100004aa4: 48 c7 85 20 fd ff ff 00 00 00 00    	movq	$0, -736(%rbp)
100004aaf: c7 85 28 fd ff ff 00 00 00 00       	movl	$0, -728(%rbp)
100004ab9: 48 c7 85 30 fd ff ff 00 00 00 00    	movq	$0, -720(%rbp)
100004ac4: c7 85 38 fd ff ff 00 00 00 00       	movl	$0, -712(%rbp)
100004ace: 48 c7 85 40 fd ff ff 00 00 00 00    	movq	$0, -704(%rbp)
100004ad9: c7 85 48 fd ff ff 00 00 00 00       	movl	$0, -696(%rbp)
100004ae3: 48 c7 85 50 fd ff ff 00 00 00 00    	movq	$0, -688(%rbp)
100004aee: c7 85 58 fd ff ff 00 00 00 00       	movl	$0, -680(%rbp)
100004af8: 48 c7 85 60 fd ff ff 00 00 00 00    	movq	$0, -672(%rbp)
100004b03: c7 85 68 fd ff ff 00 00 00 00       	movl	$0, -664(%rbp)
100004b0d: 48 c7 85 70 fd ff ff 00 00 00 00    	movq	$0, -656(%rbp)
100004b18: c7 85 78 fd ff ff 00 00 00 00       	movl	$0, -648(%rbp)
100004b22: 48 c7 85 80 fd ff ff 00 00 00 00    	movq	$0, -640(%rbp)
100004b2d: c7 85 88 fd ff ff 00 00 00 00       	movl	$0, -632(%rbp)
100004b37: 48 c7 85 90 fd ff ff 00 00 00 00    	movq	$0, -624(%rbp)
100004b42: c7 85 98 fd ff ff 00 00 00 00       	movl	$0, -616(%rbp)
100004b4c: 48 c7 85 a0 fd ff ff 00 00 00 00    	movq	$0, -608(%rbp)
100004b57: c7 85 a8 fd ff ff 00 00 00 00       	movl	$0, -600(%rbp)
100004b61: 48 c7 85 b0 fd ff ff 00 00 00 00    	movq	$0, -592(%rbp)
100004b6c: c7 85 b8 fd ff ff 00 00 00 00       	movl	$0, -584(%rbp)
100004b76: 48 c7 85 c0 fd ff ff 00 00 00 00    	movq	$0, -576(%rbp)
100004b81: c7 85 c8 fd ff ff 00 00 00 00       	movl	$0, -568(%rbp)
100004b8b: 48 c7 85 d0 fd ff ff 00 00 00 00    	movq	$0, -560(%rbp)
100004b96: c7 85 d8 fd ff ff 00 00 00 00       	movl	$0, -552(%rbp)
100004ba0: 48 c7 85 e0 fd ff ff 00 00 00 00    	movq	$0, -544(%rbp)
100004bab: c7 85 e8 fd ff ff 00 00 00 00       	movl	$0, -536(%rbp)
100004bb5: 48 c7 85 f0 fd ff ff 00 00 00 00    	movq	$0, -528(%rbp)
100004bc0: c7 85 f8 fd ff ff 00 00 00 00       	movl	$0, -520(%rbp)
100004bca: 48 c7 85 00 fe ff ff 00 00 00 00    	movq	$0, -512(%rbp)
100004bd5: c7 85 08 fe ff ff 00 00 00 00       	movl	$0, -504(%rbp)
100004bdf: 48 c7 85 10 fe ff ff 00 00 00 00    	movq	$0, -496(%rbp)
100004bea: c7 85 18 fe ff ff 00 00 00 00       	movl	$0, -488(%rbp)
100004bf4: 48 c7 85 20 fe ff ff 00 00 00 00    	movq	$0, -480(%rbp)
100004bff: c7 85 28 fe ff ff 00 00 00 00       	movl	$0, -472(%rbp)
100004c09: 48 c7 85 30 fe ff ff 00 00 00 00    	movq	$0, -464(%rbp)
100004c14: c7 85 38 fe ff ff 00 00 00 00       	movl	$0, -456(%rbp)
100004c1e: 48 c7 85 40 fe ff ff 00 00 00 00    	movq	$0, -448(%rbp)
100004c29: c7 85 48 fe ff ff 00 00 00 00       	movl	$0, -440(%rbp)
100004c33: 48 c7 85 50 fe ff ff 00 00 00 00    	movq	$0, -432(%rbp)
100004c3e: c7 85 58 fe ff ff 00 00 00 00       	movl	$0, -424(%rbp)
100004c48: 48 c7 85 60 fe ff ff 00 00 00 00    	movq	$0, -416(%rbp)
100004c53: c7 85 68 fe ff ff 00 00 00 00       	movl	$0, -408(%rbp)
100004c5d: 48 c7 85 70 fe ff ff 00 00 00 00    	movq	$0, -400(%rbp)
100004c68: c7 85 78 fe ff ff 00 00 00 00       	movl	$0, -392(%rbp)
100004c72: 48 c7 85 80 fe ff ff 00 00 00 00    	movq	$0, -384(%rbp)
100004c7d: c7 85 88 fe ff ff 00 00 00 00       	movl	$0, -376(%rbp)
100004c87: 48 c7 85 90 fe ff ff 00 00 00 00    	movq	$0, -368(%rbp)
100004c92: c7 85 98 fe ff ff 00 00 00 00       	movl	$0, -360(%rbp)
100004c9c: 48 c7 85 a0 fe ff ff 00 00 00 00    	movq	$0, -352(%rbp)
100004ca7: c7 85 a8 fe ff ff 00 00 00 00       	movl	$0, -344(%rbp)
100004cb1: 48 c7 85 b0 fe ff ff 00 00 00 00    	movq	$0, -336(%rbp)
100004cbc: c7 85 b8 fe ff ff 00 00 00 00       	movl	$0, -328(%rbp)
100004cc6: 48 c7 85 c0 fe ff ff 00 00 00 00    	movq	$0, -320(%rbp)
100004cd1: c7 85 c8 fe ff ff 00 00 00 00       	movl	$0, -312(%rbp)
100004cdb: 48 c7 85 d0 fe ff ff 00 00 00 00    	movq	$0, -304(%rbp)
100004ce6: c7 85 d8 fe ff ff 00 00 00 00       	movl	$0, -296(%rbp)
100004cf0: 48 c7 85 e0 fe ff ff 00 00 00 00    	movq	$0, -288(%rbp)
100004cfb: c7 85 e8 fe ff ff 00 00 00 00       	movl	$0, -280(%rbp)
100004d05: 48 c7 85 f0 fe ff ff 00 00 00 00    	movq	$0, -272(%rbp)
100004d10: c7 85 f8 fe ff ff 00 00 00 00       	movl	$0, -264(%rbp)
100004d1a: 48 c7 85 00 ff ff ff 00 00 00 00    	movq	$0, -256(%rbp)
100004d25: c7 85 08 ff ff ff 00 00 00 00       	movl	$0, -248(%rbp)
100004d2f: 48 c7 85 10 ff ff ff 00 00 00 00    	movq	$0, -240(%rbp)
100004d3a: c7 85 18 ff ff ff 00 00 00 00       	movl	$0, -232(%rbp)
100004d44: 48 c7 85 20 ff ff ff 00 00 00 00    	movq	$0, -224(%rbp)
100004d4f: c7 85 28 ff ff ff 00 00 00 00       	movl	$0, -216(%rbp)
100004d59: 48 c7 85 30 ff ff ff 00 00 00 00    	movq	$0, -208(%rbp)
100004d64: c7 85 38 ff ff ff 00 00 00 00       	movl	$0, -200(%rbp)
100004d6e: 48 c7 85 40 ff ff ff 00 00 00 00    	movq	$0, -192(%rbp)
100004d79: c7 85 48 ff ff ff 00 00 00 00       	movl	$0, -184(%rbp)
100004d83: 48 c7 85 50 ff ff ff 00 00 00 00    	movq	$0, -176(%rbp)
100004d8e: c7 85 58 ff ff ff 00 00 00 00       	movl	$0, -168(%rbp)
100004d98: 48 c7 85 60 ff ff ff 00 00 00 00    	movq	$0, -160(%rbp)
100004da3: c7 85 68 ff ff ff 00 00 00 00       	movl	$0, -152(%rbp)
100004dad: 48 c7 85 70 ff ff ff 00 00 00 00    	movq	$0, -144(%rbp)
100004db8: c7 85 78 ff ff ff 00 00 00 00       	movl	$0, -136(%rbp)
100004dc2: 48 c7 45 80 00 00 00 00     	movq	$0, -128(%rbp)
100004dca: c7 45 88 00 00 00 00        	movl	$0, -120(%rbp)
100004dd1: 48 c7 45 90 00 00 00 00     	movq	$0, -112(%rbp)
100004dd9: c7 45 98 00 00 00 00        	movl	$0, -104(%rbp)
100004de0: 48 c7 45 a0 00 00 00 00     	movq	$0, -96(%rbp)
100004de8: c7 45 a8 00 00 00 00        	movl	$0, -88(%rbp)
100004def: 48 c7 45 b0 00 00 00 00     	movq	$0, -80(%rbp)
100004df7: c7 45 b8 00 00 00 00        	movl	$0, -72(%rbp)
100004dfe: 48 c7 45 c0 00 00 00 00     	movq	$0, -64(%rbp)
100004e06: c7 45 c8 00 00 00 00        	movl	$0, -56(%rbp)
100004e0d: 48 89 bd 90 f9 ff ff        	movq	%rdi, -1648(%rbp)
100004e14: 89 b5 98 f9 ff ff           	movl	%esi, -1640(%rbp)
100004e1a: c7 45 d4 01 00 00 00        	movl	$1, -44(%rbp)
100004e21: 41 be 01 00 00 00           	movl	$1, %r14d
100004e27: 4c 8d 2d da 7c 00 00        	leaq	31962(%rip), %r13
100004e2e: eb 0d                       	jmp	13 <__ZN4Node6insertEjR13NodeAllocator+0x85d>
100004e30: 44 89 75 d4                 	movl	%r14d, -44(%rbp)
100004e34: 45 85 f6                    	testl	%r14d, %r14d
100004e37: 0f 84 a6 01 00 00           	je	422 <__ZN4Node6insertEjR13NodeAllocator+0xa03>
100004e3d: 41 ff ce                    	decl	%r14d
100004e40: 44 89 75 d4                 	movl	%r14d, -44(%rbp)
100004e44: 4c 89 f0                    	movq	%r14, %rax
100004e47: 48 c1 e0 04                 	shlq	$4, %rax
100004e4b: 48 8b 9c 05 90 f9 ff ff     	movq	-1648(%rbp,%rax), %rbx
100004e53: 44 8b bc 05 98 f9 ff ff     	movl	-1640(%rbp,%rax), %r15d
100004e5b: 83 bb c0 00 00 00 01        	cmpl	$1, 192(%rbx)
100004e62: 75 46                       	jne	70 <__ZN4Node6insertEjR13NodeAllocator+0x8ca>
100004e64: 8b 83 a8 00 00 00           	movl	168(%rbx), %eax
100004e6a: 48 83 f8 27                 	cmpq	$39, %rax
100004e6e: 77 20                       	ja	32 <__ZN4Node6insertEjR13NodeAllocator+0x8b0>
100004e70: 8d 48 01                    	leal	1(%rax), %ecx
100004e73: 89 8b a8 00 00 00           	movl	%ecx, 168(%rbx)
100004e79: 44 89 3c 83                 	movl	%r15d, (%rbx,%rax,4)
100004e7d: 45 85 f6                    	testl	%r14d, %r14d
100004e80: 75 bb                       	jne	-69 <__ZN4Node6insertEjR13NodeAllocator+0x85d>
100004e82: e9 5c 01 00 00              	jmp	348 <__ZN4Node6insertEjR13NodeAllocator+0xa03>
100004e87: 66 0f 1f 84 00 00 00 00 00  	nopw	(%rax,%rax)
100004e90: 48 8d b5 90 f9 ff ff        	leaq	-1648(%rbp), %rsi
100004e97: 48 8d 55 d4                 	leaq	-44(%rbp), %rdx
100004e9b: 48 89 d9                    	movq	%rbx, %rcx
100004e9e: 4d 89 e0                    	movq	%r12, %r8
100004ea1: e8 5a 01 00 00              	callq	346 <__ZN4Node9subdivideERNSt3__15arrayINS0_4pairIPS_jEELm100EEERjS3_R13NodeAllocator>
100004ea6: 44 8b 75 d4                 	movl	-44(%rbp), %r14d
100004eaa: 8b b3 a0 00 00 00           	movl	160(%rbx), %esi
100004eb0: 85 f6                       	testl	%esi, %esi
100004eb2: 0f 88 88 00 00 00           	js	136 <__ZN4Node6insertEjR13NodeAllocator+0x960>
100004eb8: 4c 89 e7                    	movq	%r12, %rdi
100004ebb: e8 d0 0c 00 00              	callq	3280 <__ZN13NodeAllocator7getNodeEj>
100004ec0: 49 8b 4d 00                 	movq	(%r13), %rcx
100004ec4: f3 0f 10 80 ac 00 00 00     	movss	172(%rax), %xmm0
100004ecc: 4c 89 fa                    	movq	%r15, %rdx
100004ecf: 48 c1 e2 04                 	shlq	$4, %rdx
100004ed3: f3 0f 10 0c 11              	movss	(%rcx,%rdx), %xmm1
100004ed8: f3 0f 10 54 11 08           	movss	8(%rcx,%rdx), %xmm2
100004ede: f3 0f 58 d1                 	addss	%xmm1, %xmm2
100004ee2: 0f 2e d0                    	ucomiss	%xmm0, %xmm2
100004ee5: 76 59                       	jbe	89 <__ZN4Node6insertEjR13NodeAllocator+0x960>
100004ee7: f3 0f 58 80 b4 00 00 00     	addss	180(%rax), %xmm0
100004eef: 0f 2e c1                    	ucomiss	%xmm1, %xmm0
100004ef2: 76 4c                       	jbe	76 <__ZN4Node6insertEjR13NodeAllocator+0x960>
100004ef4: f3 0f 10 80 b0 00 00 00     	movss	176(%rax), %xmm0
100004efc: f3 0f 10 4c 11 04           	movss	4(%rcx,%rdx), %xmm1
100004f02: f3 0f 10 54 11 0c           	movss	12(%rcx,%rdx), %xmm2
100004f08: f3 0f 58 d1                 	addss	%xmm1, %xmm2
100004f0c: 0f 2e d0                    	ucomiss	%xmm0, %xmm2
100004f0f: 76 2f                       	jbe	47 <__ZN4Node6insertEjR13NodeAllocator+0x960>
100004f11: f3 0f 58 80 b8 00 00 00     	addss	184(%rax), %xmm0
100004f19: 0f 2e c1                    	ucomiss	%xmm1, %xmm0
100004f1c: 76 22                       	jbe	34 <__ZN4Node6insertEjR13NodeAllocator+0x960>
100004f1e: 44 89 f1                    	movl	%r14d, %ecx
100004f21: 48 c1 e1 04                 	shlq	$4, %rcx
100004f25: 48 89 84 0d 90 f9 ff ff     	movq	%rax, -1648(%rbp,%rcx)
100004f2d: 44 89 bc 0d 98 f9 ff ff     	movl	%r15d, -1640(%rbp,%rcx)
100004f35: 41 ff c6                    	incl	%r14d
100004f38: 0f 1f 84 00 00 00 00 00     	nopl	(%rax,%rax)
100004f40: 8b b3 a4 00 00 00           	movl	164(%rbx), %esi
100004f46: 85 f6                       	testl	%esi, %esi
100004f48: 0f 88 e2 fe ff ff           	js	-286 <__ZN4Node6insertEjR13NodeAllocator+0x850>
100004f4e: 4c 89 e7                    	movq	%r12, %rdi
100004f51: e8 3a 0c 00 00              	callq	3130 <__ZN13NodeAllocator7getNodeEj>
100004f56: 49 8b 4d 00                 	movq	(%r13), %rcx
100004f5a: f3 0f 10 80 ac 00 00 00     	movss	172(%rax), %xmm0
100004f62: 4c 89 fa                    	movq	%r15, %rdx
100004f65: 48 c1 e2 04                 	shlq	$4, %rdx
100004f69: f3 0f 10 0c 11              	movss	(%rcx,%rdx), %xmm1
100004f6e: f3 0f 10 54 11 08           	movss	8(%rcx,%rdx), %xmm2
100004f74: f3 0f 58 d1                 	addss	%xmm1, %xmm2
100004f78: 0f 2e d0                    	ucomiss	%xmm0, %xmm2
100004f7b: 0f 86 af fe ff ff           	jbe	-337 <__ZN4Node6insertEjR13NodeAllocator+0x850>
100004f81: f3 0f 58 80 b4 00 00 00     	addss	180(%rax), %xmm0
100004f89: 0f 2e c1                    	ucomiss	%xmm1, %xmm0
100004f8c: 0f 86 9e fe ff ff           	jbe	-354 <__ZN4Node6insertEjR13NodeAllocator+0x850>
100004f92: f3 0f 10 80 b0 00 00 00     	movss	176(%rax), %xmm0
100004f9a: f3 0f 10 4c 11 04           	movss	4(%rcx,%rdx), %xmm1
100004fa0: f3 0f 10 54 11 0c           	movss	12(%rcx,%rdx), %xmm2
100004fa6: f3 0f 58 d1                 	addss	%xmm1, %xmm2
100004faa: 0f 2e d0                    	ucomiss	%xmm0, %xmm2
100004fad: 0f 86 7d fe ff ff           	jbe	-387 <__ZN4Node6insertEjR13NodeAllocator+0x850>
100004fb3: f3 0f 58 80 b8 00 00 00     	addss	184(%rax), %xmm0
100004fbb: 0f 2e c1                    	ucomiss	%xmm1, %xmm0
100004fbe: 0f 86 6c fe ff ff           	jbe	-404 <__ZN4Node6insertEjR13NodeAllocator+0x850>
100004fc4: 44 89 f1                    	movl	%r14d, %ecx
100004fc7: 48 c1 e1 04                 	shlq	$4, %rcx
100004fcb: 48 89 84 0d 90 f9 ff ff     	movq	%rax, -1648(%rbp,%rcx)
100004fd3: 44 89 bc 0d 98 f9 ff ff     	movl	%r15d, -1640(%rbp,%rcx)
100004fdb: 41 ff c6                    	incl	%r14d
100004fde: e9 4d fe ff ff              	jmp	-435 <__ZN4Node6insertEjR13NodeAllocator+0x850>
100004fe3: 48 81 c4 48 06 00 00        	addq	$1608, %rsp
100004fea: 5b                          	popq	%rbx
100004feb: 41 5c                       	popq	%r12
100004fed: 41 5d                       	popq	%r13
100004fef: 41 5e                       	popq	%r14
100004ff1: 41 5f                       	popq	%r15
100004ff3: 5d                          	popq	%rbp
100004ff4: c3                          	retq
100004ff5: 66 2e 0f 1f 84 00 00 00 00 00       	nopw	%cs:(%rax,%rax)
100004fff: 90                          	nop

0000000100005000 __ZN4Node9subdivideERNSt3__15arrayINS0_4pairIPS_jEELm100EEERjS3_R13NodeAllocator:
100005000: 55                          	pushq	%rbp
100005001: 48 89 e5                    	movq	%rsp, %rbp
100005004: 41 57                       	pushq	%r15
100005006: 41 56                       	pushq	%r14
100005008: 41 55                       	pushq	%r13
10000500a: 41 54                       	pushq	%r12
10000500c: 53                          	pushq	%rbx
10000500d: 48 83 ec 48                 	subq	$72, %rsp
100005011: 4c 89 45 d0                 	movq	%r8, -48(%rbp)
100005015: 48 89 cb                    	movq	%rcx, %rbx
100005018: 48 89 55 a0                 	movq	%rdx, -96(%rbp)
10000501c: 48 89 75 a8                 	movq	%rsi, -88(%rbp)
100005020: c7 81 c0 00 00 00 00 00 00 00       	movl	$0, 192(%rcx)
10000502a: f3 0f 10 b1 b4 00 00 00     	movss	180(%rcx), %xmm6
100005032: f3 0f 10 15 b6 2b 00 00     	movss	11190(%rip), %xmm2
10000503a: 0f 28 ee                    	movaps	%xmm6, %xmm5
10000503d: f3 0f 59 ea                 	mulss	%xmm2, %xmm5
100005041: f3 0f 10 89 b8 00 00 00     	movss	184(%rcx), %xmm1
100005049: f3 0f 10 81 ac 00 00 00     	movss	172(%rcx), %xmm0
100005051: f3 0f 10 99 b0 00 00 00     	movss	176(%rcx), %xmm3
100005059: f3 0f 11 45 b0              	movss	%xmm0, -80(%rbp)
10000505e: f3 0f 11 5d b4              	movss	%xmm3, -76(%rbp)
100005063: 83 b9 c4 00 00 00 00        	cmpl	$0, 196(%rcx)
10000506a: 0f 28 e5                    	movaps	%xmm5, %xmm4
10000506d: 0f 85 f4 01 00 00           	jne	500 <__ZN4Node9subdivideERNSt3__15arrayINS0_4pairIPS_jEELm100EEERjS3_R13NodeAllocator+0x267>
100005073: f3 0f 59 d1                 	mulss	%xmm1, %xmm2
100005077: f3 0f 11 65 b8              	movss	%xmm4, -72(%rbp)
10000507c: 0f 85 f7 01 00 00           	jne	503 <__ZN4Node9subdivideERNSt3__15arrayINS0_4pairIPS_jEELm100EEERjS3_R13NodeAllocator+0x279>
100005082: f3 0f 11 4d bc              	movss	%xmm1, -68(%rbp)
100005087: 0f 57 f6                    	xorps	%xmm6, %xmm6
10000508a: 0f 85 fa 01 00 00           	jne	506 <__ZN4Node9subdivideERNSt3__15arrayINS0_4pairIPS_jEELm100EEERjS3_R13NodeAllocator+0x28a>
100005090: f3 0f 58 e8                 	addss	%xmm0, %xmm5
100005094: f3 0f 11 6d c0              	movss	%xmm5, -64(%rbp)
100005099: 74 03                       	je	3 <__ZN4Node9subdivideERNSt3__15arrayINS0_4pairIPS_jEELm100EEERjS3_R13NodeAllocator+0x9e>
10000509b: 0f 28 f2                    	movaps	%xmm2, %xmm6
10000509e: f3 0f 58 de                 	addss	%xmm6, %xmm3
1000050a2: f3 0f 11 5d c4              	movss	%xmm3, -60(%rbp)
1000050a7: f3 0f 11 65 c8              	movss	%xmm4, -56(%rbp)
1000050ac: f3 0f 11 4d cc              	movss	%xmm1, -52(%rbp)
1000050b1: 83 bb a8 00 00 00 00        	cmpl	$0, 168(%rbx)
1000050b8: 0f 84 9a 01 00 00           	je	410 <__ZN4Node9subdivideERNSt3__15arrayINS0_4pairIPS_jEELm100EEERjS3_R13NodeAllocator+0x258>
1000050be: 41 bd 01 00 00 00           	movl	$1, %r13d
1000050c4: 4c 8d 35 3d 7a 00 00        	leaq	31293(%rip), %r14
1000050cb: 0f 1f 44 00 00              	nopl	(%rax,%rax)
1000050d0: 46 8b 7c ab fc              	movl	-4(%rbx,%r13,4), %r15d
1000050d5: 49 8b 06                    	movq	(%r14), %rax
1000050d8: 4c 89 f9                    	movq	%r15, %rcx
1000050db: 48 c1 e1 04                 	shlq	$4, %rcx
1000050df: 4c 8d 64 08 04              	leaq	4(%rax,%rcx), %r12
1000050e4: f3 0f 10 0c 08              	movss	(%rax,%rcx), %xmm1
1000050e9: f3 0f 10 54 08 08           	movss	8(%rax,%rcx), %xmm2
1000050ef: f3 0f 58 d1                 	addss	%xmm1, %xmm2
1000050f3: 0f 2e d0                    	ucomiss	%xmm0, %xmm2
1000050f6: 0f 86 b4 00 00 00           	jbe	180 <__ZN4Node9subdivideERNSt3__15arrayINS0_4pairIPS_jEELm100EEERjS3_R13NodeAllocator+0x1b0>
1000050fc: f3 0f 58 45 b8              	addss	-72(%rbp), %xmm0
100005101: 0f 2e c1                    	ucomiss	%xmm1, %xmm0
100005104: 0f 86 a6 00 00 00           	jbe	166 <__ZN4Node9subdivideERNSt3__15arrayINS0_4pairIPS_jEELm100EEERjS3_R13NodeAllocator+0x1b0>
10000510a: f3 0f 10 45 b4              	movss	-76(%rbp), %xmm0
10000510f: f3 41 0f 10 1c 24           	movss	(%r12), %xmm3
100005115: f3 41 0f 10 64 24 08        	movss	8(%r12), %xmm4
10000511c: f3 0f 58 e3                 	addss	%xmm3, %xmm4
100005120: 0f 2e e0                    	ucomiss	%xmm0, %xmm4
100005123: 0f 86 87 00 00 00           	jbe	135 <__ZN4Node9subdivideERNSt3__15arrayINS0_4pairIPS_jEELm100EEERjS3_R13NodeAllocator+0x1b0>
100005129: f3 0f 58 45 bc              	addss	-68(%rbp), %xmm0
10000512e: 0f 2e c3                    	ucomiss	%xmm3, %xmm0
100005131: 76 7d                       	jbe	125 <__ZN4Node9subdivideERNSt3__15arrayINS0_4pairIPS_jEELm100EEERjS3_R13NodeAllocator+0x1b0>
100005133: 48 8d 14 08                 	leaq	(%rax,%rcx), %rdx
100005137: 48 89 55 90                 	movq	%rdx, -112(%rbp)
10000513b: 48 8d 44 08 08              	leaq	8(%rax,%rcx), %rax
100005140: 48 89 45 98                 	movq	%rax, -104(%rbp)
100005144: 8b b3 a0 00 00 00           	movl	160(%rbx), %esi
10000514a: 85 f6                       	testl	%esi, %esi
10000514c: 78 0b                       	js	11 <__ZN4Node9subdivideERNSt3__15arrayINS0_4pairIPS_jEELm100EEERjS3_R13NodeAllocator+0x159>
10000514e: 48 8b 7d d0                 	movq	-48(%rbp), %rdi
100005152: e8 39 0a 00 00              	callq	2617 <__ZN13NodeAllocator7getNodeEj>
100005157: eb 25                       	jmp	37 <__ZN4Node9subdivideERNSt3__15arrayINS0_4pairIPS_jEELm100EEERjS3_R13NodeAllocator+0x17e>
100005159: 31 d2                       	xorl	%edx, %edx
10000515b: 83 bb c4 00 00 00 00        	cmpl	$0, 196(%rbx)
100005162: 0f 94 c2                    	sete	%dl
100005165: 48 8b 7d d0                 	movq	-48(%rbp), %rdi
100005169: 48 8d 75 b0                 	leaq	-80(%rbp), %rsi
10000516d: e8 9e 08 00 00              	callq	2206 <__ZN13NodeAllocator12allocateNodeERK3Rec15NodeOrientation>
100005172: 8b 88 bc 00 00 00           	movl	188(%rax), %ecx
100005178: 89 8b a0 00 00 00           	movl	%ecx, 160(%rbx)
10000517e: 48 8b 55 a0                 	movq	-96(%rbp), %rdx
100005182: 8b 0a                       	movl	(%rdx), %ecx
100005184: 48 c1 e1 04                 	shlq	$4, %rcx
100005188: 48 8b 75 a8                 	movq	-88(%rbp), %rsi
10000518c: 48 89 04 0e                 	movq	%rax, (%rsi,%rcx)
100005190: 44 89 7c 0e 08              	movl	%r15d, 8(%rsi,%rcx)
100005195: ff 02                       	incl	(%rdx)
100005197: 48 8b 45 90                 	movq	-112(%rbp), %rax
10000519b: f3 0f 10 08                 	movss	(%rax), %xmm1
10000519f: 48 8b 45 98                 	movq	-104(%rbp), %rax
1000051a3: f3 0f 10 10                 	movss	(%rax), %xmm2
1000051a7: f3 0f 58 d1                 	addss	%xmm1, %xmm2
1000051ab: 0f 1f 44 00 00              	nopl	(%rax,%rax)
1000051b0: f3 0f 10 45 c0              	movss	-64(%rbp), %xmm0
1000051b5: 0f 2e d0                    	ucomiss	%xmm0, %xmm2
1000051b8: 0f 86 82 00 00 00           	jbe	130 <__ZN4Node9subdivideERNSt3__15arrayINS0_4pairIPS_jEELm100EEERjS3_R13NodeAllocator+0x240>
1000051be: f3 0f 58 45 c8              	addss	-56(%rbp), %xmm0
1000051c3: 0f 2e c1                    	ucomiss	%xmm1, %xmm0
1000051c6: 76 78                       	jbe	120 <__ZN4Node9subdivideERNSt3__15arrayINS0_4pairIPS_jEELm100EEERjS3_R13NodeAllocator+0x240>
1000051c8: f3 0f 10 45 c4              	movss	-60(%rbp), %xmm0
1000051cd: f3 41 0f 10 0c 24           	movss	(%r12), %xmm1
1000051d3: f3 41 0f 10 54 24 08        	movss	8(%r12), %xmm2
1000051da: f3 0f 58 d1                 	addss	%xmm1, %xmm2
1000051de: 0f 2e d0                    	ucomiss	%xmm0, %xmm2
1000051e1: 76 5d                       	jbe	93 <__ZN4Node9subdivideERNSt3__15arrayINS0_4pairIPS_jEELm100EEERjS3_R13NodeAllocator+0x240>
1000051e3: f3 0f 58 45 cc              	addss	-52(%rbp), %xmm0
1000051e8: 0f 2e c1                    	ucomiss	%xmm1, %xmm0
1000051eb: 76 53                       	jbe	83 <__ZN4Node9subdivideERNSt3__15arrayINS0_4pairIPS_jEELm100EEERjS3_R13NodeAllocator+0x240>
1000051ed: 8b b3 a4 00 00 00           	movl	164(%rbx), %esi
1000051f3: 85 f6                       	testl	%esi, %esi
1000051f5: 78 0b                       	js	11 <__ZN4Node9subdivideERNSt3__15arrayINS0_4pairIPS_jEELm100EEERjS3_R13NodeAllocator+0x202>
1000051f7: 48 8b 7d d0                 	movq	-48(%rbp), %rdi
1000051fb: e8 90 09 00 00              	callq	2448 <__ZN13NodeAllocator7getNodeEj>
100005200: eb 25                       	jmp	37 <__ZN4Node9subdivideERNSt3__15arrayINS0_4pairIPS_jEELm100EEERjS3_R13NodeAllocator+0x227>
100005202: 31 d2                       	xorl	%edx, %edx
100005204: 83 bb c4 00 00 00 00        	cmpl	$0, 196(%rbx)
10000520b: 0f 94 c2                    	sete	%dl
10000520e: 48 8b 7d d0                 	movq	-48(%rbp), %rdi
100005212: 48 8d 75 c0                 	leaq	-64(%rbp), %rsi
100005216: e8 f5 07 00 00              	callq	2037 <__ZN13NodeAllocator12allocateNodeERK3Rec15NodeOrientation>
10000521b: 8b 88 bc 00 00 00           	movl	188(%rax), %ecx
100005221: 89 8b a4 00 00 00           	movl	%ecx, 164(%rbx)
100005227: 48 8b 55 a0                 	movq	-96(%rbp), %rdx
10000522b: 8b 0a                       	movl	(%rdx), %ecx
10000522d: 48 c1 e1 04                 	shlq	$4, %rcx
100005231: 48 8b 75 a8                 	movq	-88(%rbp), %rsi
100005235: 48 89 04 0e                 	movq	%rax, (%rsi,%rcx)
100005239: 44 89 7c 0e 08              	movl	%r15d, 8(%rsi,%rcx)
10000523e: ff 02                       	incl	(%rdx)
100005240: 8b 83 a8 00 00 00           	movl	168(%rbx), %eax
100005246: 49 39 c5                    	cmpq	%rax, %r13
100005249: 73 0d                       	jae	13 <__ZN4Node9subdivideERNSt3__15arrayINS0_4pairIPS_jEELm100EEERjS3_R13NodeAllocator+0x258>
10000524b: f3 0f 10 45 b0              	movss	-80(%rbp), %xmm0
100005250: 49 ff c5                    	incq	%r13
100005253: e9 78 fe ff ff              	jmp	-392 <__ZN4Node9subdivideERNSt3__15arrayINS0_4pairIPS_jEELm100EEERjS3_R13NodeAllocator+0xd0>
100005258: 48 83 c4 48                 	addq	$72, %rsp
10000525c: 5b                          	popq	%rbx
10000525d: 41 5c                       	popq	%r12
10000525f: 41 5d                       	popq	%r13
100005261: 41 5e                       	popq	%r14
100005263: 41 5f                       	popq	%r15
100005265: 5d                          	popq	%rbp
100005266: c3                          	retq
100005267: 0f 28 e6                    	movaps	%xmm6, %xmm4
10000526a: f3 0f 59 d1                 	mulss	%xmm1, %xmm2
10000526e: f3 0f 11 65 b8              	movss	%xmm4, -72(%rbp)
100005273: 0f 84 09 fe ff ff           	je	-503 <__ZN4Node9subdivideERNSt3__15arrayINS0_4pairIPS_jEELm100EEERjS3_R13NodeAllocator+0x82>
100005279: 0f 28 ca                    	movaps	%xmm2, %xmm1
10000527c: f3 0f 11 4d bc              	movss	%xmm1, -68(%rbp)
100005281: 0f 57 f6                    	xorps	%xmm6, %xmm6
100005284: 0f 84 06 fe ff ff           	je	-506 <__ZN4Node9subdivideERNSt3__15arrayINS0_4pairIPS_jEELm100EEERjS3_R13NodeAllocator+0x90>
10000528a: 0f 57 ed                    	xorps	%xmm5, %xmm5
10000528d: f3 0f 58 e8                 	addss	%xmm0, %xmm5
100005291: f3 0f 11 6d c0              	movss	%xmm5, -64(%rbp)
100005296: 0f 85 ff fd ff ff           	jne	-513 <__ZN4Node9subdivideERNSt3__15arrayINS0_4pairIPS_jEELm100EEERjS3_R13NodeAllocator+0x9b>
10000529c: e9 fd fd ff ff              	jmp	-515 <__ZN4Node9subdivideERNSt3__15arrayINS0_4pairIPS_jEELm100EEERjS3_R13NodeAllocator+0x9e>
1000052a1: 66 2e 0f 1f 84 00 00 00 00 00       	nopw	%cs:(%rax,%rax)
1000052ab: 0f 1f 44 00 00              	nopl	(%rax,%rax)

00000001000052b0 __ZNK4Node18checkIntersectionsER13NodeAllocator:
1000052b0: 55                          	pushq	%rbp
1000052b1: 48 89 e5                    	movq	%rsp, %rbp
1000052b4: 41 56                       	pushq	%r14
1000052b6: 53                          	pushq	%rbx
1000052b7: 49 89 f0                    	movq	%rsi, %r8
1000052ba: 49 81 c0 80 96 98 00        	addq	$10000000, %r8
1000052c1: 48 8d 05 40 78 00 00        	leaq	30784(%rip), %rax
1000052c8: 48 8b 10                    	movq	(%rax), %rdx
1000052cb: 31 c0                       	xorl	%eax, %eax
1000052cd: eb 11                       	jmp	17 <__ZNK4Node18checkIntersectionsER13NodeAllocator+0x30>
1000052cf: 90                          	nop
1000052d0: 48 81 c6 c8 00 00 00        	addq	$200, %rsi
1000052d7: 4c 39 c6                    	cmpq	%r8, %rsi
1000052da: 0f 84 bb 00 00 00           	je	187 <__ZNK4Node18checkIntersectionsER13NodeAllocator+0xeb>
1000052e0: 83 be bc 00 00 00 00        	cmpl	$0, 188(%rsi)
1000052e7: 78 e7                       	js	-25 <__ZNK4Node18checkIntersectionsER13NodeAllocator+0x20>
1000052e9: 83 be c0 00 00 00 00        	cmpl	$0, 192(%rsi)
1000052f0: 74 de                       	je	-34 <__ZNK4Node18checkIntersectionsER13NodeAllocator+0x20>
1000052f2: 44 8b 8e a8 00 00 00        	movl	168(%rsi), %r9d
1000052f9: 45 85 c9                    	testl	%r9d, %r9d
1000052fc: 74 d2                       	je	-46 <__ZNK4Node18checkIntersectionsER13NodeAllocator+0x20>
1000052fe: 4d 89 ce                    	movq	%r9, %r14
100005301: 48 89 f1                    	movq	%rsi, %rcx
100005304: 45 31 d2                    	xorl	%r10d, %r10d
100005307: eb 13                       	jmp	19 <__ZNK4Node18checkIntersectionsER13NodeAllocator+0x6c>
100005309: 0f 1f 80 00 00 00 00        	nopl	(%rax)
100005310: 48 83 c1 04                 	addq	$4, %rcx
100005314: 49 ff ce                    	decq	%r14
100005317: 4d 39 ca                    	cmpq	%r9, %r10
10000531a: 74 b4                       	je	-76 <__ZNK4Node18checkIntersectionsER13NodeAllocator+0x20>
10000531c: 4c 89 d7                    	movq	%r10, %rdi
10000531f: 49 ff c2                    	incq	%r10
100005322: 4d 39 ca                    	cmpq	%r9, %r10
100005325: 73 e9                       	jae	-23 <__ZNK4Node18checkIntersectionsER13NodeAllocator+0x60>
100005327: 8b 3c be                    	movl	(%rsi,%rdi,4), %edi
10000532a: 48 c1 e7 04                 	shlq	$4, %rdi
10000532e: f3 0f 10 04 3a              	movss	(%rdx,%rdi), %xmm0
100005333: 4c 8d 5c 3a 08              	leaq	8(%rdx,%rdi), %r11
100005338: bb 01 00 00 00              	movl	$1, %ebx
10000533d: eb 09                       	jmp	9 <__ZNK4Node18checkIntersectionsER13NodeAllocator+0x98>
10000533f: 90                          	nop
100005340: 48 ff c3                    	incq	%rbx
100005343: 41 39 de                    	cmpl	%ebx, %r14d
100005346: 74 c8                       	je	-56 <__ZNK4Node18checkIntersectionsER13NodeAllocator+0x60>
100005348: 8b 3c 99                    	movl	(%rcx,%rbx,4), %edi
10000534b: 48 c1 e7 04                 	shlq	$4, %rdi
10000534f: f3 0f 10 0c 3a              	movss	(%rdx,%rdi), %xmm1
100005354: f3 0f 10 54 3a 08           	movss	8(%rdx,%rdi), %xmm2
10000535a: f3 0f 58 d1                 	addss	%xmm1, %xmm2
10000535e: 0f 2e d0                    	ucomiss	%xmm0, %xmm2
100005361: 76 dd                       	jbe	-35 <__ZNK4Node18checkIntersectionsER13NodeAllocator+0x90>
100005363: f3 41 0f 10 13              	movss	(%r11), %xmm2
100005368: f3 0f 58 d0                 	addss	%xmm0, %xmm2
10000536c: 0f 2e d1                    	ucomiss	%xmm1, %xmm2
10000536f: 76 cf                       	jbe	-49 <__ZNK4Node18checkIntersectionsER13NodeAllocator+0x90>
100005371: f3 41 0f 10 4b fc           	movss	-4(%r11), %xmm1
100005377: f3 0f 10 54 3a 04           	movss	4(%rdx,%rdi), %xmm2
10000537d: f3 0f 10 5c 3a 0c           	movss	12(%rdx,%rdi), %xmm3
100005383: f3 0f 58 da                 	addss	%xmm2, %xmm3
100005387: 0f 2e d9                    	ucomiss	%xmm1, %xmm3
10000538a: 76 b4                       	jbe	-76 <__ZNK4Node18checkIntersectionsER13NodeAllocator+0x90>
10000538c: f3 41 0f 58 4b 04           	addss	4(%r11), %xmm1
100005392: 0f 2e ca                    	ucomiss	%xmm2, %xmm1
100005395: 76 a9                       	jbe	-87 <__ZNK4Node18checkIntersectionsER13NodeAllocator+0x90>
100005397: ff c0                       	incl	%eax
100005399: eb a5                       	jmp	-91 <__ZNK4Node18checkIntersectionsER13NodeAllocator+0x90>
10000539b: 5b                          	popq	%rbx
10000539c: 41 5e                       	popq	%r14
10000539e: 5d                          	popq	%rbp
10000539f: c3                          	retq

00000001000053a0 __ZNK4Node11printBoundsEiR13NodeAllocator:
1000053a0: 55                          	pushq	%rbp
1000053a1: 48 89 e5                    	movq	%rsp, %rbp
1000053a4: 41 57                       	pushq	%r15
1000053a6: 41 56                       	pushq	%r14
1000053a8: 41 55                       	pushq	%r13
1000053aa: 41 54                       	pushq	%r12
1000053ac: 53                          	pushq	%rbx
1000053ad: 50                          	pushq	%rax
1000053ae: 85 f6                       	testl	%esi, %esi
1000053b0: 0f 8e dc 00 00 00           	jle	220 <__ZNK4Node11printBoundsEiR13NodeAllocator+0xf2>
1000053b6: 48 89 d3                    	movq	%rdx, %rbx
1000053b9: 41 89 f6                    	movl	%esi, %r14d
1000053bc: 48 81 c3 ac 00 00 00        	addq	$172, %rbx
1000053c3: 41 bf b8 95 98 00           	movl	$9999800, %r15d
1000053c9: 0f 1f 80 00 00 00 00        	nopl	(%rax)
1000053d0: 83 7b 10 00                 	cmpl	$0, 16(%rbx)
1000053d4: 0f 88 98 00 00 00           	js	152 <__ZNK4Node11printBoundsEiR13NodeAllocator+0xd2>
1000053da: ba 0c 00 00 00              	movl	$12, %edx
1000053df: 48 8b 3d 3a 2c 00 00        	movq	11322(%rip), %rdi
1000053e6: 48 8d 35 db 29 00 00        	leaq	10715(%rip), %rsi
1000053ed: e8 ce 00 00 00              	callq	206 <__ZNSt3__124__put_character_sequenceIcNS_11char_traitsIcEEEERNS_13basic_ostreamIT_T0_EES7_PKS4_m>
1000053f2: 8b 73 10                    	movl	16(%rbx), %esi
1000053f5: 48 89 c7                    	movq	%rax, %rdi
1000053f8: e8 0b 26 00 00              	callq	9739 <dyld_stub_binder+0x100007a08>
1000053fd: ba 09 00 00 00              	movl	$9, %edx
100005402: 48 89 c7                    	movq	%rax, %rdi
100005405: 48 8d 35 c9 29 00 00        	leaq	10697(%rip), %rsi
10000540c: e8 af 00 00 00              	callq	175 <__ZNSt3__124__put_character_sequenceIcNS_11char_traitsIcEEEERNS_13basic_ostreamIT_T0_EES7_PKS4_m>
100005411: 48 89 c7                    	movq	%rax, %rdi
100005414: 48 89 de                    	movq	%rbx, %rsi
100005417: e8 d4 08 00 00              	callq	2260 <__ZlsRNSt3__113basic_ostreamIcNS_11char_traitsIcEEEERK3Rec>
10000541c: 49 89 c5                    	movq	%rax, %r13
10000541f: 48 8b 00                    	movq	(%rax), %rax
100005422: 48 8b 70 e8                 	movq	-24(%rax), %rsi
100005426: 4c 01 ee                    	addq	%r13, %rsi
100005429: 4c 8d 65 d0                 	leaq	-48(%rbp), %r12
10000542d: 4c 89 e7                    	movq	%r12, %rdi
100005430: e8 a9 25 00 00              	callq	9641 <dyld_stub_binder+0x1000079de>
100005435: 4c 89 e7                    	movq	%r12, %rdi
100005438: 48 8b 35 e9 2b 00 00        	movq	11241(%rip), %rsi
10000543f: e8 94 25 00 00              	callq	9620 <dyld_stub_binder+0x1000079d8>
100005444: 48 8b 08                    	movq	(%rax), %rcx
100005447: 48 89 c7                    	movq	%rax, %rdi
10000544a: be 0a 00 00 00              	movl	$10, %esi
10000544f: ff 51 38                    	callq	*56(%rcx)
100005452: 41 89 c4                    	movl	%eax, %r12d
100005455: 48 8d 7d d0                 	leaq	-48(%rbp), %rdi
100005459: e8 c8 25 00 00              	callq	9672 <dyld_stub_binder+0x100007a26>
10000545e: 41 0f be f4                 	movsbl	%r12b, %esi
100005462: 4c 89 ef                    	movq	%r13, %rdi
100005465: e8 80 25 00 00              	callq	9600 <dyld_stub_binder+0x1000079ea>
10000546a: 4c 89 ef                    	movq	%r13, %rdi
10000546d: e8 7e 25 00 00              	callq	9598 <dyld_stub_binder+0x1000079f0>
100005472: 41 83 fe 02                 	cmpl	$2, %r14d
100005476: 7c 1a                       	jl	26 <__ZNK4Node11printBoundsEiR13NodeAllocator+0xf2>
100005478: 41 ff ce                    	decl	%r14d
10000547b: 48 81 c3 c8 00 00 00        	addq	$200, %rbx
100005482: 4d 85 ff                    	testq	%r15, %r15
100005485: 4d 8d bf 38 ff ff ff        	leaq	-200(%r15), %r15
10000548c: 0f 85 3e ff ff ff           	jne	-194 <__ZNK4Node11printBoundsEiR13NodeAllocator+0x30>
100005492: 48 83 c4 08                 	addq	$8, %rsp
100005496: 5b                          	popq	%rbx
100005497: 41 5c                       	popq	%r12
100005499: 41 5d                       	popq	%r13
10000549b: 41 5e                       	popq	%r14
10000549d: 41 5f                       	popq	%r15
10000549f: 5d                          	popq	%rbp
1000054a0: c3                          	retq
1000054a1: 48 89 c3                    	movq	%rax, %rbx
1000054a4: 48 8d 7d d0                 	leaq	-48(%rbp), %rdi
1000054a8: e8 79 25 00 00              	callq	9593 <dyld_stub_binder+0x100007a26>
1000054ad: 48 89 df                    	movq	%rbx, %rdi
1000054b0: e8 17 25 00 00              	callq	9495 <dyld_stub_binder+0x1000079cc>
1000054b5: 0f 0b                       	ud2
1000054b7: 66 0f 1f 84 00 00 00 00 00  	nopw	(%rax,%rax)

00000001000054c0 __ZNSt3__124__put_character_sequenceIcNS_11char_traitsIcEEEERNS_13basic_ostreamIT_T0_EES7_PKS4_m:
1000054c0: 55                          	pushq	%rbp
1000054c1: 48 89 e5                    	movq	%rsp, %rbp
1000054c4: 41 57                       	pushq	%r15
1000054c6: 41 56                       	pushq	%r14
1000054c8: 41 55                       	pushq	%r13
1000054ca: 41 54                       	pushq	%r12
1000054cc: 53                          	pushq	%rbx
1000054cd: 48 83 ec 28                 	subq	$40, %rsp
1000054d1: 49 89 d6                    	movq	%rdx, %r14
1000054d4: 49 89 f7                    	movq	%rsi, %r15
1000054d7: 48 89 fb                    	movq	%rdi, %rbx
1000054da: 48 8d 7d b0                 	leaq	-80(%rbp), %rdi
1000054de: 48 89 de                    	movq	%rbx, %rsi
1000054e1: e8 10 25 00 00              	callq	9488 <dyld_stub_binder+0x1000079f6>
1000054e6: 80 7d b0 00                 	cmpb	$0, -80(%rbp)
1000054ea: 0f 84 ae 00 00 00           	je	174 <__ZNSt3__124__put_character_sequenceIcNS_11char_traitsIcEEEERNS_13basic_ostreamIT_T0_EES7_PKS4_m+0xde>
1000054f0: 48 8b 03                    	movq	(%rbx), %rax
1000054f3: 48 8b 40 e8                 	movq	-24(%rax), %rax
1000054f7: 4c 8d 24 03                 	leaq	(%rbx,%rax), %r12
1000054fb: 48 8b 7c 03 28              	movq	40(%rbx,%rax), %rdi
100005500: 44 8b 6c 03 08              	movl	8(%rbx,%rax), %r13d
100005505: 8b 84 03 90 00 00 00        	movl	144(%rbx,%rax), %eax
10000550c: 83 f8 ff                    	cmpl	$-1, %eax
10000550f: 75 4a                       	jne	74 <__ZNSt3__124__put_character_sequenceIcNS_11char_traitsIcEEEERNS_13basic_ostreamIT_T0_EES7_PKS4_m+0x9b>
100005511: 48 89 7d c0                 	movq	%rdi, -64(%rbp)
100005515: 48 8d 7d c8                 	leaq	-56(%rbp), %rdi
100005519: 4c 89 e6                    	movq	%r12, %rsi
10000551c: e8 bd 24 00 00              	callq	9405 <dyld_stub_binder+0x1000079de>
100005521: 48 8b 35 00 2b 00 00        	movq	11008(%rip), %rsi
100005528: 48 8d 7d c8                 	leaq	-56(%rbp), %rdi
10000552c: e8 a7 24 00 00              	callq	9383 <dyld_stub_binder+0x1000079d8>
100005531: 48 8b 08                    	movq	(%rax), %rcx
100005534: 48 89 c7                    	movq	%rax, %rdi
100005537: be 20 00 00 00              	movl	$32, %esi
10000553c: ff 51 38                    	callq	*56(%rcx)
10000553f: 88 45 d7                    	movb	%al, -41(%rbp)
100005542: 48 8d 7d c8                 	leaq	-56(%rbp), %rdi
100005546: e8 db 24 00 00              	callq	9435 <dyld_stub_binder+0x100007a26>
10000554b: 0f be 45 d7                 	movsbl	-41(%rbp), %eax
10000554f: 41 89 84 24 90 00 00 00     	movl	%eax, 144(%r12)
100005557: 48 8b 7d c0                 	movq	-64(%rbp), %rdi
10000555b: 4d 01 fe                    	addq	%r15, %r14
10000555e: 41 81 e5 b0 00 00 00        	andl	$176, %r13d
100005565: 41 83 fd 20                 	cmpl	$32, %r13d
100005569: 4c 89 fa                    	movq	%r15, %rdx
10000556c: 49 0f 44 d6                 	cmoveq	%r14, %rdx
100005570: 44 0f be c8                 	movsbl	%al, %r9d
100005574: 4c 89 fe                    	movq	%r15, %rsi
100005577: 4c 89 f1                    	movq	%r14, %rcx
10000557a: 4d 89 e0                    	movq	%r12, %r8
10000557d: e8 9e 00 00 00              	callq	158 <__ZNSt3__116__pad_and_outputIcNS_11char_traitsIcEEEENS_19ostreambuf_iteratorIT_T0_EES6_PKS4_S8_S8_RNS_8ios_baseES4_>
100005582: 48 85 c0                    	testq	%rax, %rax
100005585: 75 17                       	jne	23 <__ZNSt3__124__put_character_sequenceIcNS_11char_traitsIcEEEERNS_13basic_ostreamIT_T0_EES7_PKS4_m+0xde>
100005587: 48 8b 03                    	movq	(%rbx), %rax
10000558a: 48 8b 40 e8                 	movq	-24(%rax), %rax
10000558e: 48 8d 3c 03                 	leaq	(%rbx,%rax), %rdi
100005592: 8b 74 03 20                 	movl	32(%rbx,%rax), %esi
100005596: 83 ce 05                    	orl	$5, %esi
100005599: e8 94 24 00 00              	callq	9364 <dyld_stub_binder+0x100007a32>
10000559e: 48 8d 7d b0                 	leaq	-80(%rbp), %rdi
1000055a2: e8 55 24 00 00              	callq	9301 <dyld_stub_binder+0x1000079fc>
1000055a7: 48 89 d8                    	movq	%rbx, %rax
1000055aa: 48 83 c4 28                 	addq	$40, %rsp
1000055ae: 5b                          	popq	%rbx
1000055af: 41 5c                       	popq	%r12
1000055b1: 41 5d                       	popq	%r13
1000055b3: 41 5e                       	popq	%r14
1000055b5: 41 5f                       	popq	%r15
1000055b7: 5d                          	popq	%rbp
1000055b8: c3                          	retq
1000055b9: eb 0e                       	jmp	14 <__ZNSt3__124__put_character_sequenceIcNS_11char_traitsIcEEEERNS_13basic_ostreamIT_T0_EES7_PKS4_m+0x109>
1000055bb: 49 89 c6                    	movq	%rax, %r14
1000055be: 48 8d 7d c8                 	leaq	-56(%rbp), %rdi
1000055c2: e8 5f 24 00 00              	callq	9311 <dyld_stub_binder+0x100007a26>
1000055c7: eb 03                       	jmp	3 <__ZNSt3__124__put_character_sequenceIcNS_11char_traitsIcEEEERNS_13basic_ostreamIT_T0_EES7_PKS4_m+0x10c>
1000055c9: 49 89 c6                    	movq	%rax, %r14
1000055cc: 48 8d 7d b0                 	leaq	-80(%rbp), %rdi
1000055d0: e8 27 24 00 00              	callq	9255 <dyld_stub_binder+0x1000079fc>
1000055d5: eb 03                       	jmp	3 <__ZNSt3__124__put_character_sequenceIcNS_11char_traitsIcEEEERNS_13basic_ostreamIT_T0_EES7_PKS4_m+0x11a>
1000055d7: 49 89 c6                    	movq	%rax, %r14
1000055da: 4c 89 f7                    	movq	%r14, %rdi
1000055dd: e8 74 24 00 00              	callq	9332 <dyld_stub_binder+0x100007a56>
1000055e2: 48 8b 03                    	movq	(%rbx), %rax
1000055e5: 48 8b 78 e8                 	movq	-24(%rax), %rdi
1000055e9: 48 01 df                    	addq	%rbx, %rdi
1000055ec: e8 3b 24 00 00              	callq	9275 <dyld_stub_binder+0x100007a2c>
1000055f1: e8 66 24 00 00              	callq	9318 <dyld_stub_binder+0x100007a5c>
1000055f6: eb af                       	jmp	-81 <__ZNSt3__124__put_character_sequenceIcNS_11char_traitsIcEEEERNS_13basic_ostreamIT_T0_EES7_PKS4_m+0xe7>
1000055f8: 48 89 c3                    	movq	%rax, %rbx
1000055fb: e8 5c 24 00 00              	callq	9308 <dyld_stub_binder+0x100007a5c>
100005600: 48 89 df                    	movq	%rbx, %rdi
100005603: e8 c4 23 00 00              	callq	9156 <dyld_stub_binder+0x1000079cc>
100005608: 0f 0b                       	ud2
10000560a: 48 89 c7                    	movq	%rax, %rdi
10000560d: e8 6e 01 00 00              	callq	366 <___clang_call_terminate>
100005612: 66 2e 0f 1f 84 00 00 00 00 00       	nopw	%cs:(%rax,%rax)
10000561c: 0f 1f 40 00                 	nopl	(%rax)

0000000100005620 __ZNSt3__116__pad_and_outputIcNS_11char_traitsIcEEEENS_19ostreambuf_iteratorIT_T0_EES6_PKS4_S8_S8_RNS_8ios_baseES4_:
100005620: 55                          	pushq	%rbp
100005621: 48 89 e5                    	movq	%rsp, %rbp
100005624: 41 57                       	pushq	%r15
100005626: 41 56                       	pushq	%r14
100005628: 41 55                       	pushq	%r13
10000562a: 41 54                       	pushq	%r12
10000562c: 53                          	pushq	%rbx
10000562d: 48 83 ec 38                 	subq	$56, %rsp
100005631: 48 85 ff                    	testq	%rdi, %rdi
100005634: 0f 84 08 01 00 00           	je	264 <__ZNSt3__116__pad_and_outputIcNS_11char_traitsIcEEEENS_19ostreambuf_iteratorIT_T0_EES6_PKS4_S8_S8_RNS_8ios_baseES4_+0x122>
10000563a: 4d 89 c4                    	movq	%r8, %r12
10000563d: 49 89 cf                    	movq	%rcx, %r15
100005640: 49 89 fd                    	movq	%rdi, %r13
100005643: 44 89 4d bc                 	movl	%r9d, -68(%rbp)
100005647: 48 89 c8                    	movq	%rcx, %rax
10000564a: 48 29 f0                    	subq	%rsi, %rax
10000564d: 49 8b 48 18                 	movq	24(%r8), %rcx
100005651: 45 31 f6                    	xorl	%r14d, %r14d
100005654: 48 29 c1                    	subq	%rax, %rcx
100005657: 4c 0f 4f f1                 	cmovgq	%rcx, %r14
10000565b: 48 89 55 a8                 	movq	%rdx, -88(%rbp)
10000565f: 48 89 d3                    	movq	%rdx, %rbx
100005662: 48 29 f3                    	subq	%rsi, %rbx
100005665: 48 85 db                    	testq	%rbx, %rbx
100005668: 7e 16                       	jle	22 <__ZNSt3__116__pad_and_outputIcNS_11char_traitsIcEEEENS_19ostreambuf_iteratorIT_T0_EES6_PKS4_S8_S8_RNS_8ios_baseES4_+0x60>
10000566a: 49 8b 45 00                 	movq	(%r13), %rax
10000566e: 4c 89 ef                    	movq	%r13, %rdi
100005671: 48 89 da                    	movq	%rbx, %rdx
100005674: ff 50 60                    	callq	*96(%rax)
100005677: 48 39 d8                    	cmpq	%rbx, %rax
10000567a: 0f 85 c2 00 00 00           	jne	194 <__ZNSt3__116__pad_and_outputIcNS_11char_traitsIcEEEENS_19ostreambuf_iteratorIT_T0_EES6_PKS4_S8_S8_RNS_8ios_baseES4_+0x122>
100005680: 4d 85 f6                    	testq	%r14, %r14
100005683: 0f 8e 90 00 00 00           	jle	144 <__ZNSt3__116__pad_and_outputIcNS_11char_traitsIcEEEENS_19ostreambuf_iteratorIT_T0_EES6_PKS4_S8_S8_RNS_8ios_baseES4_+0xf9>
100005689: 4c 89 65 b0                 	movq	%r12, -80(%rbp)
10000568d: 49 83 fe 17                 	cmpq	$23, %r14
100005691: 73 11                       	jae	17 <__ZNSt3__116__pad_and_outputIcNS_11char_traitsIcEEEENS_19ostreambuf_iteratorIT_T0_EES6_PKS4_S8_S8_RNS_8ios_baseES4_+0x84>
100005693: 43 8d 04 36                 	leal	(%r14,%r14), %eax
100005697: 88 45 c0                    	movb	%al, -64(%rbp)
10000569a: 48 8d 5d c0                 	leaq	-64(%rbp), %rbx
10000569e: 4c 8d 65 c1                 	leaq	-63(%rbp), %r12
1000056a2: eb 27                       	jmp	39 <__ZNSt3__116__pad_and_outputIcNS_11char_traitsIcEEEENS_19ostreambuf_iteratorIT_T0_EES6_PKS4_S8_S8_RNS_8ios_baseES4_+0xab>
1000056a4: 49 8d 5e 10                 	leaq	16(%r14), %rbx
1000056a8: 48 83 e3 f0                 	andq	$-16, %rbx
1000056ac: 48 89 df                    	movq	%rbx, %rdi
1000056af: e8 90 23 00 00              	callq	9104 <dyld_stub_binder+0x100007a44>
1000056b4: 49 89 c4                    	movq	%rax, %r12
1000056b7: 48 89 45 d0                 	movq	%rax, -48(%rbp)
1000056bb: 48 83 cb 01                 	orq	$1, %rbx
1000056bf: 48 89 5d c0                 	movq	%rbx, -64(%rbp)
1000056c3: 4c 89 75 c8                 	movq	%r14, -56(%rbp)
1000056c7: 48 8d 5d c0                 	leaq	-64(%rbp), %rbx
1000056cb: 0f b6 75 bc                 	movzbl	-68(%rbp), %esi
1000056cf: 4c 89 e7                    	movq	%r12, %rdi
1000056d2: 4c 89 f2                    	movq	%r14, %rdx
1000056d5: e8 b2 23 00 00              	callq	9138 <dyld_stub_binder+0x100007a8c>
1000056da: 43 c6 04 34 00              	movb	$0, (%r12,%r14)
1000056df: f6 45 c0 01                 	testb	$1, -64(%rbp)
1000056e3: 74 06                       	je	6 <__ZNSt3__116__pad_and_outputIcNS_11char_traitsIcEEEENS_19ostreambuf_iteratorIT_T0_EES6_PKS4_S8_S8_RNS_8ios_baseES4_+0xcb>
1000056e5: 48 8b 5d d0                 	movq	-48(%rbp), %rbx
1000056e9: eb 03                       	jmp	3 <__ZNSt3__116__pad_and_outputIcNS_11char_traitsIcEEEENS_19ostreambuf_iteratorIT_T0_EES6_PKS4_S8_S8_RNS_8ios_baseES4_+0xce>
1000056eb: 48 ff c3                    	incq	%rbx
1000056ee: 4c 8b 65 b0                 	movq	-80(%rbp), %r12
1000056f2: 49 8b 45 00                 	movq	(%r13), %rax
1000056f6: 4c 89 ef                    	movq	%r13, %rdi
1000056f9: 48 89 de                    	movq	%rbx, %rsi
1000056fc: 4c 89 f2                    	movq	%r14, %rdx
1000056ff: ff 50 60                    	callq	*96(%rax)
100005702: 48 89 c3                    	movq	%rax, %rbx
100005705: f6 45 c0 01                 	testb	$1, -64(%rbp)
100005709: 74 09                       	je	9 <__ZNSt3__116__pad_and_outputIcNS_11char_traitsIcEEEENS_19ostreambuf_iteratorIT_T0_EES6_PKS4_S8_S8_RNS_8ios_baseES4_+0xf4>
10000570b: 48 8b 7d d0                 	movq	-48(%rbp), %rdi
10000570f: e8 2a 23 00 00              	callq	9002 <dyld_stub_binder+0x100007a3e>
100005714: 4c 39 f3                    	cmpq	%r14, %rbx
100005717: 75 29                       	jne	41 <__ZNSt3__116__pad_and_outputIcNS_11char_traitsIcEEEENS_19ostreambuf_iteratorIT_T0_EES6_PKS4_S8_S8_RNS_8ios_baseES4_+0x122>
100005719: 48 8b 75 a8                 	movq	-88(%rbp), %rsi
10000571d: 49 29 f7                    	subq	%rsi, %r15
100005720: 4d 85 ff                    	testq	%r15, %r15
100005723: 7e 12                       	jle	18 <__ZNSt3__116__pad_and_outputIcNS_11char_traitsIcEEEENS_19ostreambuf_iteratorIT_T0_EES6_PKS4_S8_S8_RNS_8ios_baseES4_+0x117>
100005725: 49 8b 45 00                 	movq	(%r13), %rax
100005729: 4c 89 ef                    	movq	%r13, %rdi
10000572c: 4c 89 fa                    	movq	%r15, %rdx
10000572f: ff 50 60                    	callq	*96(%rax)
100005732: 4c 39 f8                    	cmpq	%r15, %rax
100005735: 75 0b                       	jne	11 <__ZNSt3__116__pad_and_outputIcNS_11char_traitsIcEEEENS_19ostreambuf_iteratorIT_T0_EES6_PKS4_S8_S8_RNS_8ios_baseES4_+0x122>
100005737: 49 c7 44 24 18 00 00 00 00  	movq	$0, 24(%r12)
100005740: eb 03                       	jmp	3 <__ZNSt3__116__pad_and_outputIcNS_11char_traitsIcEEEENS_19ostreambuf_iteratorIT_T0_EES6_PKS4_S8_S8_RNS_8ios_baseES4_+0x125>
100005742: 45 31 ed                    	xorl	%r13d, %r13d
100005745: 4c 89 e8                    	movq	%r13, %rax
100005748: 48 83 c4 38                 	addq	$56, %rsp
10000574c: 5b                          	popq	%rbx
10000574d: 41 5c                       	popq	%r12
10000574f: 41 5d                       	popq	%r13
100005751: 41 5e                       	popq	%r14
100005753: 41 5f                       	popq	%r15
100005755: 5d                          	popq	%rbp
100005756: c3                          	retq
100005757: 48 89 c3                    	movq	%rax, %rbx
10000575a: f6 45 c0 01                 	testb	$1, -64(%rbp)
10000575e: 74 09                       	je	9 <__ZNSt3__116__pad_and_outputIcNS_11char_traitsIcEEEENS_19ostreambuf_iteratorIT_T0_EES6_PKS4_S8_S8_RNS_8ios_baseES4_+0x149>
100005760: 48 8b 7d d0                 	movq	-48(%rbp), %rdi
100005764: e8 d5 22 00 00              	callq	8917 <dyld_stub_binder+0x100007a3e>
100005769: 48 89 df                    	movq	%rbx, %rdi
10000576c: e8 5b 22 00 00              	callq	8795 <dyld_stub_binder+0x1000079cc>
100005771: 0f 0b                       	ud2
100005773: 66 2e 0f 1f 84 00 00 00 00 00       	nopw	%cs:(%rax,%rax)
10000577d: 0f 1f 00                    	nopl	(%rax)

0000000100005780 ___clang_call_terminate:
100005780: 50                          	pushq	%rax
100005781: e8 d0 22 00 00              	callq	8912 <dyld_stub_binder+0x100007a56>
100005786: e8 ad 22 00 00              	callq	8877 <dyld_stub_binder+0x100007a38>
10000578b: 90                          	nop
10000578c: 90                          	nop
10000578d: 90                          	nop
10000578e: 90                          	nop
10000578f: 90                          	nop

0000000100005790 __ZN13NodeAllocatorC2Ev:
100005790: 55                          	pushq	%rbp
100005791: 48 89 e5                    	movq	%rsp, %rbp
100005794: 66 0f 6f 05 64 24 00 00     	movdqa	9316(%rip), %xmm0
10000579c: 31 c0                       	xorl	%eax, %eax
10000579e: 66 44 0f 6f 05 69 24 00 00  	movdqa	9321(%rip), %xmm8
1000057a7: 66 44 0f 6f 0d 70 24 00 00  	movdqa	9328(%rip), %xmm9
1000057b0: 66 44 0f 6f 15 77 24 00 00  	movdqa	9335(%rip), %xmm10
1000057b9: 66 44 0f 6f 1d 7e 24 00 00  	movdqa	9342(%rip), %xmm11
1000057c2: 66 44 0f 6f 25 85 24 00 00  	movdqa	9349(%rip), %xmm12
1000057cb: 66 0f 6f 35 8d 24 00 00     	movdqa	9357(%rip), %xmm6
1000057d3: 66 0f 6f 3d 95 24 00 00     	movdqa	9365(%rip), %xmm7
1000057db: 66 0f 6f 0d 9d 24 00 00     	movdqa	9373(%rip), %xmm1
1000057e3: 66 0f 6f 15 a5 24 00 00     	movdqa	9381(%rip), %xmm2
1000057eb: 66 0f 6f 1d ad 24 00 00     	movdqa	9389(%rip), %xmm3
1000057f3: 66 2e 0f 1f 84 00 00 00 00 00       	nopw	%cs:(%rax,%rax)
1000057fd: 0f 1f 00                    	nopl	(%rax)
100005800: 66 0f 6f e0                 	movdqa	%xmm0, %xmm4
100005804: 66 41 0f fe e0              	paddd	%xmm8, %xmm4
100005809: f3 0f 7f 84 87 80 96 98 00  	movdqu	%xmm0, 10000000(%rdi,%rax,4)
100005812: f3 0f 7f a4 87 90 96 98 00  	movdqu	%xmm4, 10000016(%rdi,%rax,4)
10000581b: 66 0f 6f e0                 	movdqa	%xmm0, %xmm4
10000581f: 66 41 0f fe e1              	paddd	%xmm9, %xmm4
100005824: 66 0f 6f e8                 	movdqa	%xmm0, %xmm5
100005828: 66 41 0f fe ea              	paddd	%xmm10, %xmm5
10000582d: f3 0f 7f a4 87 a0 96 98 00  	movdqu	%xmm4, 10000032(%rdi,%rax,4)
100005836: f3 0f 7f ac 87 b0 96 98 00  	movdqu	%xmm5, 10000048(%rdi,%rax,4)
10000583f: 66 0f 6f e0                 	movdqa	%xmm0, %xmm4
100005843: 66 41 0f fe e3              	paddd	%xmm11, %xmm4
100005848: 66 0f 6f e8                 	movdqa	%xmm0, %xmm5
10000584c: 66 41 0f fe ec              	paddd	%xmm12, %xmm5
100005851: f3 0f 7f a4 87 c0 96 98 00  	movdqu	%xmm4, 10000064(%rdi,%rax,4)
10000585a: f3 0f 7f ac 87 d0 96 98 00  	movdqu	%xmm5, 10000080(%rdi,%rax,4)
100005863: 66 0f 6f e0                 	movdqa	%xmm0, %xmm4
100005867: 66 0f fe e6                 	paddd	%xmm6, %xmm4
10000586b: 66 0f 6f e8                 	movdqa	%xmm0, %xmm5
10000586f: 66 0f fe ef                 	paddd	%xmm7, %xmm5
100005873: f3 0f 7f a4 87 e0 96 98 00  	movdqu	%xmm4, 10000096(%rdi,%rax,4)
10000587c: f3 0f 7f ac 87 f0 96 98 00  	movdqu	%xmm5, 10000112(%rdi,%rax,4)
100005885: 66 0f 6f e0                 	movdqa	%xmm0, %xmm4
100005889: 66 0f fe e1                 	paddd	%xmm1, %xmm4
10000588d: 66 0f 6f e8                 	movdqa	%xmm0, %xmm5
100005891: 66 0f fe ea                 	paddd	%xmm2, %xmm5
100005895: f3 0f 7f a4 87 00 97 98 00  	movdqu	%xmm4, 10000128(%rdi,%rax,4)
10000589e: f3 0f 7f ac 87 10 97 98 00  	movdqu	%xmm5, 10000144(%rdi,%rax,4)
1000058a7: 48 83 c0 28                 	addq	$40, %rax
1000058ab: 66 0f fe c3                 	paddd	%xmm3, %xmm0
1000058af: 48 3d 50 c3 00 00           	cmpq	$50000, %rax
1000058b5: 0f 85 45 ff ff ff           	jne	-187 <__ZN13NodeAllocatorC2Ev+0x70>
1000058bb: c7 87 c0 a3 9b 00 00 00 00 00       	movl	$0, 10200000(%rdi)
1000058c5: 5d                          	popq	%rbp
1000058c6: c3                          	retq
1000058c7: 66 0f 1f 84 00 00 00 00 00  	nopw	(%rax,%rax)

00000001000058d0 __ZN13NodeAllocatorC1Ev:
1000058d0: 55                          	pushq	%rbp
1000058d1: 48 89 e5                    	movq	%rsp, %rbp
1000058d4: 66 0f 6f 05 24 23 00 00     	movdqa	8996(%rip), %xmm0
1000058dc: 31 c0                       	xorl	%eax, %eax
1000058de: 66 44 0f 6f 05 29 23 00 00  	movdqa	9001(%rip), %xmm8
1000058e7: 66 44 0f 6f 0d 30 23 00 00  	movdqa	9008(%rip), %xmm9
1000058f0: 66 44 0f 6f 15 37 23 00 00  	movdqa	9015(%rip), %xmm10
1000058f9: 66 44 0f 6f 1d 3e 23 00 00  	movdqa	9022(%rip), %xmm11
100005902: 66 44 0f 6f 25 45 23 00 00  	movdqa	9029(%rip), %xmm12
10000590b: 66 0f 6f 35 4d 23 00 00     	movdqa	9037(%rip), %xmm6
100005913: 66 0f 6f 3d 55 23 00 00     	movdqa	9045(%rip), %xmm7
10000591b: 66 0f 6f 0d 5d 23 00 00     	movdqa	9053(%rip), %xmm1
100005923: 66 0f 6f 15 65 23 00 00     	movdqa	9061(%rip), %xmm2
10000592b: 66 0f 6f 1d 6d 23 00 00     	movdqa	9069(%rip), %xmm3
100005933: 66 2e 0f 1f 84 00 00 00 00 00       	nopw	%cs:(%rax,%rax)
10000593d: 0f 1f 00                    	nopl	(%rax)
100005940: 66 0f 6f e0                 	movdqa	%xmm0, %xmm4
100005944: 66 41 0f fe e0              	paddd	%xmm8, %xmm4
100005949: f3 0f 7f 84 87 80 96 98 00  	movdqu	%xmm0, 10000000(%rdi,%rax,4)
100005952: f3 0f 7f a4 87 90 96 98 00  	movdqu	%xmm4, 10000016(%rdi,%rax,4)
10000595b: 66 0f 6f e0                 	movdqa	%xmm0, %xmm4
10000595f: 66 41 0f fe e1              	paddd	%xmm9, %xmm4
100005964: 66 0f 6f e8                 	movdqa	%xmm0, %xmm5
100005968: 66 41 0f fe ea              	paddd	%xmm10, %xmm5
10000596d: f3 0f 7f a4 87 a0 96 98 00  	movdqu	%xmm4, 10000032(%rdi,%rax,4)
100005976: f3 0f 7f ac 87 b0 96 98 00  	movdqu	%xmm5, 10000048(%rdi,%rax,4)
10000597f: 66 0f 6f e0                 	movdqa	%xmm0, %xmm4
100005983: 66 41 0f fe e3              	paddd	%xmm11, %xmm4
100005988: 66 0f 6f e8                 	movdqa	%xmm0, %xmm5
10000598c: 66 41 0f fe ec              	paddd	%xmm12, %xmm5
100005991: f3 0f 7f a4 87 c0 96 98 00  	movdqu	%xmm4, 10000064(%rdi,%rax,4)
10000599a: f3 0f 7f ac 87 d0 96 98 00  	movdqu	%xmm5, 10000080(%rdi,%rax,4)
1000059a3: 66 0f 6f e0                 	movdqa	%xmm0, %xmm4
1000059a7: 66 0f fe e6                 	paddd	%xmm6, %xmm4
1000059ab: 66 0f 6f e8                 	movdqa	%xmm0, %xmm5
1000059af: 66 0f fe ef                 	paddd	%xmm7, %xmm5
1000059b3: f3 0f 7f a4 87 e0 96 98 00  	movdqu	%xmm4, 10000096(%rdi,%rax,4)
1000059bc: f3 0f 7f ac 87 f0 96 98 00  	movdqu	%xmm5, 10000112(%rdi,%rax,4)
1000059c5: 66 0f 6f e0                 	movdqa	%xmm0, %xmm4
1000059c9: 66 0f fe e1                 	paddd	%xmm1, %xmm4
1000059cd: 66 0f 6f e8                 	movdqa	%xmm0, %xmm5
1000059d1: 66 0f fe ea                 	paddd	%xmm2, %xmm5
1000059d5: f3 0f 7f a4 87 00 97 98 00  	movdqu	%xmm4, 10000128(%rdi,%rax,4)
1000059de: f3 0f 7f ac 87 10 97 98 00  	movdqu	%xmm5, 10000144(%rdi,%rax,4)
1000059e7: 48 83 c0 28                 	addq	$40, %rax
1000059eb: 66 0f fe c3                 	paddd	%xmm3, %xmm0
1000059ef: 48 3d 50 c3 00 00           	cmpq	$50000, %rax
1000059f5: 0f 85 45 ff ff ff           	jne	-187 <__ZN13NodeAllocatorC1Ev+0x70>
1000059fb: c7 87 c0 a3 9b 00 00 00 00 00       	movl	$0, 10200000(%rdi)
100005a05: 5d                          	popq	%rbp
100005a06: c3                          	retq
100005a07: 66 0f 1f 84 00 00 00 00 00  	nopw	(%rax,%rax)

0000000100005a10 __ZN13NodeAllocator12allocateNodeERK3Rec15NodeOrientation:
100005a10: 55                          	pushq	%rbp
100005a11: 48 89 e5                    	movq	%rsp, %rbp
100005a14: 44 8b 87 c0 a3 9b 00        	movl	10200000(%rdi), %r8d
100005a1b: 49 81 f8 50 c3 00 00        	cmpq	$50000, %r8
100005a22: 75 04                       	jne	4 <__ZN13NodeAllocator12allocateNodeERK3Rec15NodeOrientation+0x18>
100005a24: 31 c0                       	xorl	%eax, %eax
100005a26: 5d                          	popq	%rbp
100005a27: c3                          	retq
100005a28: 41 8d 40 01                 	leal	1(%r8), %eax
100005a2c: 89 87 c0 a3 9b 00           	movl	%eax, 10200000(%rdi)
100005a32: 42 8b 84 87 80 96 98 00     	movl	10000000(%rdi,%r8,4), %eax
100005a3a: 48 69 c8 c8 00 00 00        	imulq	$200, %rax, %rcx
100005a41: 48 8d 04 0f                 	leaq	(%rdi,%rcx), %rax
100005a45: c7 84 0f a8 00 00 00 00 00 00 00    	movl	$0, 168(%rdi,%rcx)
100005a50: 4c 8b 0e                    	movq	(%rsi), %r9
100005a53: 48 8b 76 08                 	movq	8(%rsi), %rsi
100005a57: 4c 89 8c 0f ac 00 00 00     	movq	%r9, 172(%rdi,%rcx)
100005a5f: 48 89 b4 0f b4 00 00 00     	movq	%rsi, 180(%rdi,%rcx)
100005a67: 44 89 84 0f bc 00 00 00     	movl	%r8d, 188(%rdi,%rcx)
100005a6f: c7 84 0f c0 00 00 00 01 00 00 00    	movl	$1, 192(%rdi,%rcx)
100005a7a: 89 94 0f c4 00 00 00        	movl	%edx, 196(%rdi,%rcx)
100005a81: 48 c7 84 0f a0 00 00 00 ff ff ff ff 	movq	$-1, 160(%rdi,%rcx)
100005a8d: 5d                          	popq	%rbp
100005a8e: c3                          	retq
100005a8f: 90                          	nop

0000000100005a90 __ZN13NodeAllocator10deleteNodeEP4Node:
100005a90: 55                          	pushq	%rbp
100005a91: 48 89 e5                    	movq	%rsp, %rbp
100005a94: 41 57                       	pushq	%r15
100005a96: 41 56                       	pushq	%r14
100005a98: 41 54                       	pushq	%r12
100005a9a: 53                          	pushq	%rbx
100005a9b: 48 83 ec 10                 	subq	$16, %rsp
100005a9f: 49 89 f6                    	movq	%rsi, %r14
100005aa2: 49 89 ff                    	movq	%rdi, %r15
100005aa5: 48 8b 3d 74 25 00 00        	movq	9588(%rip), %rdi
100005aac: 48 8d 35 2c 23 00 00        	leaq	9004(%rip), %rsi
100005ab3: ba 09 00 00 00              	movl	$9, %edx
100005ab8: e8 03 fa ff ff              	callq	-1533 <__ZNSt3__124__put_character_sequenceIcNS_11char_traitsIcEEEERNS_13basic_ostreamIT_T0_EES7_PKS4_m>
100005abd: 41 8b b6 bc 00 00 00        	movl	188(%r14), %esi
100005ac4: 48 89 c7                    	movq	%rax, %rdi
100005ac7: e8 3c 1f 00 00              	callq	7996 <dyld_stub_binder+0x100007a08>
100005acc: 48 89 c3                    	movq	%rax, %rbx
100005acf: 48 8b 00                    	movq	(%rax), %rax
100005ad2: 48 8b 70 e8                 	movq	-24(%rax), %rsi
100005ad6: 48 01 de                    	addq	%rbx, %rsi
100005ad9: 4c 8d 65 d8                 	leaq	-40(%rbp), %r12
100005add: 4c 89 e7                    	movq	%r12, %rdi
100005ae0: e8 f9 1e 00 00              	callq	7929 <dyld_stub_binder+0x1000079de>
100005ae5: 48 8b 35 3c 25 00 00        	movq	9532(%rip), %rsi
100005aec: 4c 89 e7                    	movq	%r12, %rdi
100005aef: e8 e4 1e 00 00              	callq	7908 <dyld_stub_binder+0x1000079d8>
100005af4: 48 8b 08                    	movq	(%rax), %rcx
100005af7: 48 89 c7                    	movq	%rax, %rdi
100005afa: be 0a 00 00 00              	movl	$10, %esi
100005aff: ff 51 38                    	callq	*56(%rcx)
100005b02: 41 89 c4                    	movl	%eax, %r12d
100005b05: 48 8d 7d d8                 	leaq	-40(%rbp), %rdi
100005b09: e8 18 1f 00 00              	callq	7960 <dyld_stub_binder+0x100007a26>
100005b0e: 41 0f be f4                 	movsbl	%r12b, %esi
100005b12: 48 89 df                    	movq	%rbx, %rdi
100005b15: e8 d0 1e 00 00              	callq	7888 <dyld_stub_binder+0x1000079ea>
100005b1a: 48 89 df                    	movq	%rbx, %rdi
100005b1d: e8 ce 1e 00 00              	callq	7886 <dyld_stub_binder+0x1000079f0>
100005b22: 49 63 87 c0 a3 9b 00        	movslq	10200000(%r15), %rax
100005b29: 48 8d 48 ff                 	leaq	-1(%rax), %rcx
100005b2d: 41 89 8f c0 a3 9b 00        	movl	%ecx, 10200000(%r15)
100005b34: 41 8b 8c 87 7c 96 98 00     	movl	9999996(%r15,%rax,4), %ecx
100005b3c: 48 69 c9 c8 00 00 00        	imulq	$200, %rcx, %rcx
100005b43: 41 c7 84 0f bc 00 00 00 ff ff ff ff 	movl	$4294967295, 188(%r15,%rcx)
100005b4f: 41 8b 8e bc 00 00 00        	movl	188(%r14), %ecx
100005b56: 41 89 8c 87 7c 96 98 00     	movl	%ecx, 9999996(%r15,%rax,4)
100005b5e: 48 83 c4 10                 	addq	$16, %rsp
100005b62: 5b                          	popq	%rbx
100005b63: 41 5c                       	popq	%r12
100005b65: 41 5e                       	popq	%r14
100005b67: 41 5f                       	popq	%r15
100005b69: 5d                          	popq	%rbp
100005b6a: c3                          	retq
100005b6b: 48 89 c3                    	movq	%rax, %rbx
100005b6e: 48 8d 7d d8                 	leaq	-40(%rbp), %rdi
100005b72: e8 af 1e 00 00              	callq	7855 <dyld_stub_binder+0x100007a26>
100005b77: 48 89 df                    	movq	%rbx, %rdi
100005b7a: e8 4d 1e 00 00              	callq	7757 <dyld_stub_binder+0x1000079cc>
100005b7f: 0f 0b                       	ud2
100005b81: 66 2e 0f 1f 84 00 00 00 00 00       	nopw	%cs:(%rax,%rax)
100005b8b: 0f 1f 44 00 00              	nopl	(%rax,%rax)

0000000100005b90 __ZN13NodeAllocator7getNodeEj:
100005b90: 55                          	pushq	%rbp
100005b91: 48 89 e5                    	movq	%rsp, %rbp
100005b94: 89 f0                       	movl	%esi, %eax
100005b96: 48 69 c0 c8 00 00 00        	imulq	$200, %rax, %rax
100005b9d: 48 01 f8                    	addq	%rdi, %rax
100005ba0: 5d                          	popq	%rbp
100005ba1: c3                          	retq
100005ba2: 66 2e 0f 1f 84 00 00 00 00 00       	nopw	%cs:(%rax,%rax)
100005bac: 0f 1f 40 00                 	nopl	(%rax)

0000000100005bb0 __ZN13NodeAllocator5clearEv:
100005bb0: 55                          	pushq	%rbp
100005bb1: 48 89 e5                    	movq	%rsp, %rbp
100005bb4: 66 0f 6f 05 44 20 00 00     	movdqa	8260(%rip), %xmm0
100005bbc: 31 c0                       	xorl	%eax, %eax
100005bbe: 66 44 0f 6f 05 49 20 00 00  	movdqa	8265(%rip), %xmm8
100005bc7: 66 44 0f 6f 0d 50 20 00 00  	movdqa	8272(%rip), %xmm9
100005bd0: 66 44 0f 6f 15 57 20 00 00  	movdqa	8279(%rip), %xmm10
100005bd9: 66 44 0f 6f 1d 5e 20 00 00  	movdqa	8286(%rip), %xmm11
100005be2: 66 44 0f 6f 25 65 20 00 00  	movdqa	8293(%rip), %xmm12
100005beb: 66 0f 6f 35 6d 20 00 00     	movdqa	8301(%rip), %xmm6
100005bf3: 66 0f 6f 3d 75 20 00 00     	movdqa	8309(%rip), %xmm7
100005bfb: 66 0f 6f 0d 7d 20 00 00     	movdqa	8317(%rip), %xmm1
100005c03: 66 0f 6f 15 85 20 00 00     	movdqa	8325(%rip), %xmm2
100005c0b: 66 0f 6f 1d 8d 20 00 00     	movdqa	8333(%rip), %xmm3
100005c13: 66 2e 0f 1f 84 00 00 00 00 00       	nopw	%cs:(%rax,%rax)
100005c1d: 0f 1f 00                    	nopl	(%rax)
100005c20: 66 0f 6f e0                 	movdqa	%xmm0, %xmm4
100005c24: 66 41 0f fe e0              	paddd	%xmm8, %xmm4
100005c29: f3 0f 7f 84 87 80 96 98 00  	movdqu	%xmm0, 10000000(%rdi,%rax,4)
100005c32: f3 0f 7f a4 87 90 96 98 00  	movdqu	%xmm4, 10000016(%rdi,%rax,4)
100005c3b: 66 0f 6f e0                 	movdqa	%xmm0, %xmm4
100005c3f: 66 41 0f fe e1              	paddd	%xmm9, %xmm4
100005c44: 66 0f 6f e8                 	movdqa	%xmm0, %xmm5
100005c48: 66 41 0f fe ea              	paddd	%xmm10, %xmm5
100005c4d: f3 0f 7f a4 87 a0 96 98 00  	movdqu	%xmm4, 10000032(%rdi,%rax,4)
100005c56: f3 0f 7f ac 87 b0 96 98 00  	movdqu	%xmm5, 10000048(%rdi,%rax,4)
100005c5f: 66 0f 6f e0                 	movdqa	%xmm0, %xmm4
100005c63: 66 41 0f fe e3              	paddd	%xmm11, %xmm4
100005c68: 66 0f 6f e8                 	movdqa	%xmm0, %xmm5
100005c6c: 66 41 0f fe ec              	paddd	%xmm12, %xmm5
100005c71: f3 0f 7f a4 87 c0 96 98 00  	movdqu	%xmm4, 10000064(%rdi,%rax,4)
100005c7a: f3 0f 7f ac 87 d0 96 98 00  	movdqu	%xmm5, 10000080(%rdi,%rax,4)
100005c83: 66 0f 6f e0                 	movdqa	%xmm0, %xmm4
100005c87: 66 0f fe e6                 	paddd	%xmm6, %xmm4
100005c8b: 66 0f 6f e8                 	movdqa	%xmm0, %xmm5
100005c8f: 66 0f fe ef                 	paddd	%xmm7, %xmm5
100005c93: f3 0f 7f a4 87 e0 96 98 00  	movdqu	%xmm4, 10000096(%rdi,%rax,4)
100005c9c: f3 0f 7f ac 87 f0 96 98 00  	movdqu	%xmm5, 10000112(%rdi,%rax,4)
100005ca5: 66 0f 6f e0                 	movdqa	%xmm0, %xmm4
100005ca9: 66 0f fe e1                 	paddd	%xmm1, %xmm4
100005cad: 66 0f 6f e8                 	movdqa	%xmm0, %xmm5
100005cb1: 66 0f fe ea                 	paddd	%xmm2, %xmm5
100005cb5: f3 0f 7f a4 87 00 97 98 00  	movdqu	%xmm4, 10000128(%rdi,%rax,4)
100005cbe: f3 0f 7f ac 87 10 97 98 00  	movdqu	%xmm5, 10000144(%rdi,%rax,4)
100005cc7: 48 83 c0 28                 	addq	$40, %rax
100005ccb: 66 0f fe c3                 	paddd	%xmm3, %xmm0
100005ccf: 48 3d 50 c3 00 00           	cmpq	$50000, %rax
100005cd5: 0f 85 45 ff ff ff           	jne	-187 <__ZN13NodeAllocator5clearEv+0x70>
100005cdb: c7 87 c0 a3 9b 00 00 00 00 00       	movl	$0, 10200000(%rdi)
100005ce5: 5d                          	popq	%rbp
100005ce6: c3                          	retq
100005ce7: 66 0f 1f 84 00 00 00 00 00  	nopw	(%rax,%rax)

0000000100005cf0 __ZlsRNSt3__113basic_ostreamIcNS_11char_traitsIcEEEERK3Rec:
100005cf0: 55                          	pushq	%rbp
100005cf1: 48 89 e5                    	movq	%rsp, %rbp
100005cf4: 41 57                       	pushq	%r15
100005cf6: 41 56                       	pushq	%r14
100005cf8: 53                          	pushq	%rbx
100005cf9: 50                          	pushq	%rax
100005cfa: 48 89 f3                    	movq	%rsi, %rbx
100005cfd: 49 89 fe                    	movq	%rdi, %r14
100005d00: f3 0f 10 06                 	movss	(%rsi), %xmm0
100005d04: e8 f9 1c 00 00              	callq	7417 <dyld_stub_binder+0x100007a02>
100005d09: 4c 8d 3d d9 20 00 00        	leaq	8409(%rip), %r15
100005d10: ba 01 00 00 00              	movl	$1, %edx
100005d15: 48 89 c7                    	movq	%rax, %rdi
100005d18: 4c 89 fe                    	movq	%r15, %rsi
100005d1b: e8 a0 f7 ff ff              	callq	-2144 <__ZNSt3__124__put_character_sequenceIcNS_11char_traitsIcEEEERNS_13basic_ostreamIT_T0_EES7_PKS4_m>
100005d20: f3 0f 10 43 04              	movss	4(%rbx), %xmm0
100005d25: 48 89 c7                    	movq	%rax, %rdi
100005d28: e8 d5 1c 00 00              	callq	7381 <dyld_stub_binder+0x100007a02>
100005d2d: ba 01 00 00 00              	movl	$1, %edx
100005d32: 48 89 c7                    	movq	%rax, %rdi
100005d35: 4c 89 fe                    	movq	%r15, %rsi
100005d38: e8 83 f7 ff ff              	callq	-2173 <__ZNSt3__124__put_character_sequenceIcNS_11char_traitsIcEEEERNS_13basic_ostreamIT_T0_EES7_PKS4_m>
100005d3d: f3 0f 10 43 08              	movss	8(%rbx), %xmm0
100005d42: 48 89 c7                    	movq	%rax, %rdi
100005d45: e8 b8 1c 00 00              	callq	7352 <dyld_stub_binder+0x100007a02>
100005d4a: ba 01 00 00 00              	movl	$1, %edx
100005d4f: 48 89 c7                    	movq	%rax, %rdi
100005d52: 4c 89 fe                    	movq	%r15, %rsi
100005d55: e8 66 f7 ff ff              	callq	-2202 <__ZNSt3__124__put_character_sequenceIcNS_11char_traitsIcEEEERNS_13basic_ostreamIT_T0_EES7_PKS4_m>
100005d5a: f3 0f 10 43 0c              	movss	12(%rbx), %xmm0
100005d5f: 48 89 c7                    	movq	%rax, %rdi
100005d62: e8 9b 1c 00 00              	callq	7323 <dyld_stub_binder+0x100007a02>
100005d67: 4c 89 f0                    	movq	%r14, %rax
100005d6a: 48 83 c4 08                 	addq	$8, %rsp
100005d6e: 5b                          	popq	%rbx
100005d6f: 41 5e                       	popq	%r14
100005d71: 41 5f                       	popq	%r15
100005d73: 5d                          	popq	%rbp
100005d74: c3                          	retq
100005d75: 66 2e 0f 1f 84 00 00 00 00 00       	nopw	%cs:(%rax,%rax)
100005d7f: 90                          	nop

0000000100005d80 __ZNSt3__16vectorI3RecNS_9allocatorIS1_EEED1Ev:
100005d80: 55                          	pushq	%rbp
100005d81: 48 89 e5                    	movq	%rsp, %rbp
100005d84: 48 89 f8                    	movq	%rdi, %rax
100005d87: 48 8b 3f                    	movq	(%rdi), %rdi
100005d8a: 48 85 ff                    	testq	%rdi, %rdi
100005d8d: 74 0a                       	je	10 <__ZNSt3__16vectorI3RecNS_9allocatorIS1_EEED1Ev+0x19>
100005d8f: 48 89 78 08                 	movq	%rdi, 8(%rax)
100005d93: 5d                          	popq	%rbp
100005d94: e9 a5 1c 00 00              	jmp	7333 <dyld_stub_binder+0x100007a3e>
100005d99: 5d                          	popq	%rbp
100005d9a: c3                          	retq
100005d9b: 0f 1f 44 00 00              	nopl	(%rax,%rax)

0000000100005da0 _main:
100005da0: 55                          	pushq	%rbp
100005da1: 48 89 e5                    	movq	%rsp, %rbp
100005da4: 41 57                       	pushq	%r15
100005da6: 41 56                       	pushq	%r14
100005da8: 41 55                       	pushq	%r13
100005daa: 41 54                       	pushq	%r12
100005dac: 53                          	pushq	%rbx
100005dad: 48 83 ec 38                 	subq	$56, %rsp
100005db1: 49 bf ff ff ff ff ff ff ff 0f       	movabsq	$1152921504606846975, %r15
100005dbb: bf 2a 00 00 00              	movl	$42, %edi
100005dc0: e8 cd 1c 00 00              	callq	7373 <dyld_stub_binder+0x100007a92>
100005dc5: 41 bd 00 7d 00 00           	movl	$32000, %r13d
100005dcb: 4c 8d 35 46 63 00 00        	leaq	25414(%rip), %r14
100005dd2: eb 42                       	jmp	66 <_main+0x76>
100005dd4: 66 2e 0f 1f 84 00 00 00 00 00       	nopw	%cs:(%rax,%rax)
100005dde: 66 90                       	nop
100005de0: f3 0f 10 4d c8              	movss	-56(%rbp), %xmm1
100005de5: f3 0f 11 0b                 	movss	%xmm1, (%rbx)
100005de9: f3 0f 10 4d b8              	movss	-72(%rbp), %xmm1
100005dee: f3 0f 11 4b 04              	movss	%xmm1, 4(%rbx)
100005df3: f3 0f 10 4d c4              	movss	-60(%rbp), %xmm1
100005df8: f3 0f 11 4b 08              	movss	%xmm1, 8(%rbx)
100005dfd: f3 0f 11 43 0c              	movss	%xmm0, 12(%rbx)
100005e02: 48 83 c3 10                 	addq	$16, %rbx
100005e06: 48 89 1d 03 6d 00 00        	movq	%rbx, 27907(%rip)
100005e0d: 41 ff cd                    	decl	%r13d
100005e10: 0f 84 95 01 00 00           	je	405 <_main+0x20b>
100005e16: f3 41 0f 10 06              	movss	(%r14), %xmm0
100005e1b: f3 41 0f 10 4e 08           	movss	8(%r14), %xmm1
100005e21: f3 0f 58 c8                 	addss	%xmm0, %xmm1
100005e25: e8 b6 06 00 00              	callq	1718 <__Z7getRandff>
100005e2a: f3 0f 11 45 c8              	movss	%xmm0, -56(%rbp)
100005e2f: f3 41 0f 10 46 04           	movss	4(%r14), %xmm0
100005e35: f3 41 0f 10 4e 0c           	movss	12(%r14), %xmm1
100005e3b: f3 0f 58 c8                 	addss	%xmm0, %xmm1
100005e3f: e8 9c 06 00 00              	callq	1692 <__Z7getRandff>
100005e44: f3 0f 11 45 b8              	movss	%xmm0, -72(%rbp)
100005e49: f3 0f 10 05 5f 1e 00 00     	movss	7775(%rip), %xmm0
100005e51: f3 0f 10 0d 5b 1e 00 00     	movss	7771(%rip), %xmm1
100005e59: e8 82 06 00 00              	callq	1666 <__Z7getRandff>
100005e5e: f3 0f 11 45 c4              	movss	%xmm0, -60(%rbp)
100005e63: f3 0f 10 05 45 1e 00 00     	movss	7749(%rip), %xmm0
100005e6b: f3 0f 10 0d 41 1e 00 00     	movss	7745(%rip), %xmm1
100005e73: e8 68 06 00 00              	callq	1640 <__Z7getRandff>
100005e78: 48 8b 1d 91 6c 00 00        	movq	27793(%rip), %rbx
100005e7f: 4c 8b 25 92 6c 00 00        	movq	27794(%rip), %r12
100005e86: 4c 39 e3                    	cmpq	%r12, %rbx
100005e89: 0f 85 51 ff ff ff           	jne	-175 <_main+0x40>
100005e8f: 48 8b 15 72 6c 00 00        	movq	27762(%rip), %rdx
100005e96: 48 29 d3                    	subq	%rdx, %rbx
100005e99: 49 89 de                    	movq	%rbx, %r14
100005e9c: 49 c1 fe 04                 	sarq	$4, %r14
100005ea0: 49 8d 46 01                 	leaq	1(%r14), %rax
100005ea4: 4c 39 f8                    	cmpq	%r15, %rax
100005ea7: 0f 87 f2 05 00 00           	ja	1522 <_main+0x6ff>
100005ead: 49 29 d4                    	subq	%rdx, %r12
100005eb0: 4c 89 e1                    	movq	%r12, %rcx
100005eb3: 48 c1 f9 04                 	sarq	$4, %rcx
100005eb7: 49 c1 fc 03                 	sarq	$3, %r12
100005ebb: 49 39 c4                    	cmpq	%rax, %r12
100005ebe: 4c 0f 42 e0                 	cmovbq	%rax, %r12
100005ec2: 48 b8 ff ff ff ff ff ff ff 07       	movabsq	$576460752303423487, %rax
100005ecc: 48 39 c1                    	cmpq	%rax, %rcx
100005ecf: 4d 0f 43 e7                 	cmovaeq	%r15, %r12
100005ed3: 4d 85 e4                    	testq	%r12, %r12
100005ed6: f3 0f 10 5d c8              	movss	-56(%rbp), %xmm3
100005edb: f3 0f 10 4d b8              	movss	-72(%rbp), %xmm1
100005ee0: f3 0f 10 55 c4              	movss	-60(%rbp), %xmm2
100005ee5: 74 3b                       	je	59 <_main+0x182>
100005ee7: f3 0f 11 45 b4              	movss	%xmm0, -76(%rbp)
100005eec: 48 89 55 a8                 	movq	%rdx, -88(%rbp)
100005ef0: 4d 39 fc                    	cmpq	%r15, %r12
100005ef3: 0f 87 b2 05 00 00           	ja	1458 <_main+0x70b>
100005ef9: 4c 89 e7                    	movq	%r12, %rdi
100005efc: 48 c1 e7 04                 	shlq	$4, %rdi
100005f00: e8 3f 1b 00 00              	callq	6975 <dyld_stub_binder+0x100007a44>
100005f05: 49 89 c7                    	movq	%rax, %r15
100005f08: f3 0f 10 5d c8              	movss	-56(%rbp), %xmm3
100005f0d: f3 0f 10 4d b8              	movss	-72(%rbp), %xmm1
100005f12: 48 8b 55 a8                 	movq	-88(%rbp), %rdx
100005f16: f3 0f 10 55 c4              	movss	-60(%rbp), %xmm2
100005f1b: f3 0f 10 45 b4              	movss	-76(%rbp), %xmm0
100005f20: eb 03                       	jmp	3 <_main+0x185>
100005f22: 45 31 ff                    	xorl	%r15d, %r15d
100005f25: 49 c1 e6 04                 	shlq	$4, %r14
100005f29: 49 c1 e4 04                 	shlq	$4, %r12
100005f2d: 4d 01 fc                    	addq	%r15, %r12
100005f30: f3 43 0f 11 1c 37           	movss	%xmm3, (%r15,%r14)
100005f36: f3 43 0f 11 4c 37 04        	movss	%xmm1, 4(%r15,%r14)
100005f3d: f3 43 0f 11 54 37 08        	movss	%xmm2, 8(%r15,%r14)
100005f44: f3 43 0f 11 44 37 0c        	movss	%xmm0, 12(%r15,%r14)
100005f4b: 4b 8d 44 37 10              	leaq	16(%r15,%r14), %rax
100005f50: 48 85 db                    	testq	%rbx, %rbx
100005f53: 7e 1a                       	jle	26 <_main+0x1cf>
100005f55: 4c 89 ff                    	movq	%r15, %rdi
100005f58: 49 89 d6                    	movq	%rdx, %r14
100005f5b: 48 89 d6                    	movq	%rdx, %rsi
100005f5e: 48 89 da                    	movq	%rbx, %rdx
100005f61: 48 89 c3                    	movq	%rax, %rbx
100005f64: e8 1d 1b 00 00              	callq	6941 <dyld_stub_binder+0x100007a86>
100005f69: 48 89 d8                    	movq	%rbx, %rax
100005f6c: 4c 89 f2                    	movq	%r14, %rdx
100005f6f: 4c 89 3d 92 6b 00 00        	movq	%r15, 27538(%rip)
100005f76: 48 89 05 93 6b 00 00        	movq	%rax, 27539(%rip)
100005f7d: 4c 89 25 94 6b 00 00        	movq	%r12, 27540(%rip)
100005f84: 48 85 d2                    	testq	%rdx, %rdx
100005f87: 49 bf ff ff ff ff ff ff ff 0f       	movabsq	$1152921504606846975, %r15
100005f91: 4c 8d 35 80 61 00 00        	leaq	24960(%rip), %r14
100005f98: 0f 84 6f fe ff ff           	je	-401 <_main+0x6d>
100005f9e: 48 89 d7                    	movq	%rdx, %rdi
100005fa1: e8 98 1a 00 00              	callq	6808 <dyld_stub_binder+0x100007a3e>
100005fa6: e9 62 fe ff ff              	jmp	-414 <_main+0x6d>
100005fab: 48 8b 3d 56 6b 00 00        	movq	27478(%rip), %rdi
100005fb2: 48 8b 35 57 6b 00 00        	movq	27479(%rip), %rsi
100005fb9: e8 f2 07 00 00              	callq	2034 <__ZNSt3__16__sortIRZ4mainE3$_0P3RecEEvT0_S5_T_>
100005fbe: 48 8b 3d 5b 20 00 00        	movq	8283(%rip), %rdi
100005fc5: 48 8d 35 1f 1e 00 00        	leaq	7711(%rip), %rsi
100005fcc: ba 16 00 00 00              	movl	$22, %edx
100005fd1: e8 ea f4 ff ff              	callq	-2838 <__ZNSt3__124__put_character_sequenceIcNS_11char_traitsIcEEEERNS_13basic_ostreamIT_T0_EES7_PKS4_m>
100005fd6: 48 89 c7                    	movq	%rax, %rdi
100005fd9: be 00 7d 00 00              	movl	$32000, %esi
100005fde: e8 25 1a 00 00              	callq	6693 <dyld_stub_binder+0x100007a08>
100005fe3: 48 89 c3                    	movq	%rax, %rbx
100005fe6: 48 8b 00                    	movq	(%rax), %rax
100005fe9: 48 8b 70 e8                 	movq	-24(%rax), %rsi
100005fed: 48 01 de                    	addq	%rbx, %rsi
100005ff0: 4c 8d 75 d0                 	leaq	-48(%rbp), %r14
100005ff4: 4c 89 f7                    	movq	%r14, %rdi
100005ff7: e8 e2 19 00 00              	callq	6626 <dyld_stub_binder+0x1000079de>
100005ffc: 48 8b 35 25 20 00 00        	movq	8229(%rip), %rsi
100006003: 4c 89 f7                    	movq	%r14, %rdi
100006006: e8 cd 19 00 00              	callq	6605 <dyld_stub_binder+0x1000079d8>
10000600b: 48 8b 08                    	movq	(%rax), %rcx
10000600e: 48 89 c7                    	movq	%rax, %rdi
100006011: be 0a 00 00 00              	movl	$10, %esi
100006016: ff 51 38                    	callq	*56(%rcx)
100006019: 41 89 c6                    	movl	%eax, %r14d
10000601c: 48 8d 7d d0                 	leaq	-48(%rbp), %rdi
100006020: e8 01 1a 00 00              	callq	6657 <dyld_stub_binder+0x100007a26>
100006025: 41 0f be f6                 	movsbl	%r14b, %esi
100006029: 48 89 df                    	movq	%rbx, %rdi
10000602c: e8 b9 19 00 00              	callq	6585 <dyld_stub_binder+0x1000079ea>
100006031: 48 89 df                    	movq	%rbx, %rdi
100006034: e8 b7 19 00 00              	callq	6583 <dyld_stub_binder+0x1000079f0>
100006039: 45 31 ff                    	xorl	%r15d, %r15d
10000603c: 4c 8d 25 dd 6a 00 00        	leaq	27357(%rip), %r12
100006043: 45 31 ed                    	xorl	%r13d, %r13d
100006046: 31 c0                       	xorl	%eax, %eax
100006048: 48 89 45 c8                 	movq	%rax, -56(%rbp)
10000604c: eb 43                       	jmp	67 <_main+0x2f1>
10000604e: 66 90                       	nop
100006050: e8 2b 1a 00 00              	callq	6699 <dyld_stub_binder+0x100007a80>
100006055: 48 8b 4d c8                 	movq	-56(%rbp), %rcx
100006059: 4c 29 f1                    	subq	%r14, %rcx
10000605c: 48 01 c1                    	addq	%rax, %rcx
10000605f: 48 89 4d c8                 	movq	%rcx, -56(%rbp)
100006063: e8 18 1a 00 00              	callq	6680 <dyld_stub_binder+0x100007a80>
100006068: 48 89 c3                    	movq	%rax, %rbx
10000606b: 4c 89 ef                    	movq	%r13, %rdi
10000606e: 4c 89 e6                    	movq	%r12, %rsi
100006071: e8 3a f2 ff ff              	callq	-3526 <__ZNK4Node18checkIntersectionsER13NodeAllocator>
100006076: 41 89 c6                    	movl	%eax, %r14d
100006079: e8 02 1a 00 00              	callq	6658 <dyld_stub_binder+0x100007a80>
10000607e: 4c 8b 6d b8                 	movq	-72(%rbp), %r13
100006082: 49 29 dd                    	subq	%rbx, %r13
100006085: 49 01 c5                    	addq	%rax, %r13
100006088: 41 ff c7                    	incl	%r15d
10000608b: 41 83 ff 3c                 	cmpl	$60, %r15d
10000608f: 74 6a                       	je	106 <_main+0x35b>
100006091: 4c 89 6d b8                 	movq	%r13, -72(%rbp)
100006095: 4c 89 e7                    	movq	%r12, %rdi
100006098: e8 13 fb ff ff              	callq	-1261 <__ZN13NodeAllocator5clearEv>
10000609d: 4c 89 e7                    	movq	%r12, %rdi
1000060a0: 48 8d 35 71 60 00 00        	leaq	24689(%rip), %rsi
1000060a7: ba 01 00 00 00              	movl	$1, %edx
1000060ac: e8 5f f9 ff ff              	callq	-1697 <__ZN13NodeAllocator12allocateNodeERK3Rec15NodeOrientation>
1000060b1: 49 89 c5                    	movq	%rax, %r13
1000060b4: e8 c7 19 00 00              	callq	6599 <dyld_stub_binder+0x100007a80>
1000060b9: 49 89 c6                    	movq	%rax, %r14
1000060bc: 48 8b 05 4d 6a 00 00        	movq	27213(%rip), %rax
1000060c3: 48 3b 05 3e 6a 00 00        	cmpq	27198(%rip), %rax
1000060ca: 74 84                       	je	-124 <_main+0x2b0>
1000060cc: 31 db                       	xorl	%ebx, %ebx
1000060ce: 66 90                       	nop
1000060d0: 4c 89 ef                    	movq	%r13, %rdi
1000060d3: 89 de                       	movl	%ebx, %esi
1000060d5: 4c 89 e2                    	movq	%r12, %rdx
1000060d8: e8 03 e5 ff ff              	callq	-6909 <__ZN4Node6insertEjR13NodeAllocator>
1000060dd: ff c3                       	incl	%ebx
1000060df: 48 8b 05 2a 6a 00 00        	movq	27178(%rip), %rax
1000060e6: 48 2b 05 1b 6a 00 00        	subq	27163(%rip), %rax
1000060ed: 48 c1 f8 04                 	sarq	$4, %rax
1000060f1: 48 39 d8                    	cmpq	%rbx, %rax
1000060f4: 77 da                       	ja	-38 <_main+0x330>
1000060f6: e9 55 ff ff ff              	jmp	-171 <_main+0x2b0>
1000060fb: 48 8b 3d 1e 1f 00 00        	movq	7966(%rip), %rdi
100006102: 48 8d 35 f9 1c 00 00        	leaq	7417(%rip), %rsi
100006109: ba 11 00 00 00              	movl	$17, %edx
10000610e: e8 ad f3 ff ff              	callq	-3155 <__ZNSt3__124__put_character_sequenceIcNS_11char_traitsIcEEEERNS_13basic_ostreamIT_T0_EES7_PKS4_m>
100006113: 48 89 c7                    	movq	%rax, %rdi
100006116: be 50 c3 00 00              	movl	$50000, %esi
10000611b: e8 e8 18 00 00              	callq	6376 <dyld_stub_binder+0x100007a08>
100006120: 48 8d 35 ed 1c 00 00        	leaq	7405(%rip), %rsi
100006127: ba 10 00 00 00              	movl	$16, %edx
10000612c: 48 89 c7                    	movq	%rax, %rdi
10000612f: e8 8c f3 ff ff              	callq	-3188 <__ZNSt3__124__put_character_sequenceIcNS_11char_traitsIcEEEERNS_13basic_ostreamIT_T0_EES7_PKS4_m>
100006134: f3 0f 10 05 7c 1b 00 00     	movss	7036(%rip), %xmm0
10000613c: 48 89 c7                    	movq	%rax, %rdi
10000613f: e8 be 18 00 00              	callq	6334 <dyld_stub_binder+0x100007a02>
100006144: 48 89 c3                    	movq	%rax, %rbx
100006147: 48 8b 00                    	movq	(%rax), %rax
10000614a: 48 8b 70 e8                 	movq	-24(%rax), %rsi
10000614e: 48 01 de                    	addq	%rbx, %rsi
100006151: 4c 8d 65 d0                 	leaq	-48(%rbp), %r12
100006155: 4c 89 e7                    	movq	%r12, %rdi
100006158: e8 81 18 00 00              	callq	6273 <dyld_stub_binder+0x1000079de>
10000615d: 48 8b 35 c4 1e 00 00        	movq	7876(%rip), %rsi
100006164: 4c 89 e7                    	movq	%r12, %rdi
100006167: e8 6c 18 00 00              	callq	6252 <dyld_stub_binder+0x1000079d8>
10000616c: 48 8b 08                    	movq	(%rax), %rcx
10000616f: 48 89 c7                    	movq	%rax, %rdi
100006172: be 0a 00 00 00              	movl	$10, %esi
100006177: ff 51 38                    	callq	*56(%rcx)
10000617a: 41 89 c4                    	movl	%eax, %r12d
10000617d: 48 8d 7d d0                 	leaq	-48(%rbp), %rdi
100006181: e8 a0 18 00 00              	callq	6304 <dyld_stub_binder+0x100007a26>
100006186: 41 0f be f4                 	movsbl	%r12b, %esi
10000618a: 48 89 df                    	movq	%rbx, %rdi
10000618d: e8 58 18 00 00              	callq	6232 <dyld_stub_binder+0x1000079ea>
100006192: 48 89 df                    	movq	%rbx, %rdi
100006195: e8 56 18 00 00              	callq	6230 <dyld_stub_binder+0x1000079f0>
10000619a: 48 8b 3d 7f 1e 00 00        	movq	7807(%rip), %rdi
1000061a1: 48 8d 35 7d 1c 00 00        	leaq	7293(%rip), %rsi
1000061a8: ba 19 00 00 00              	movl	$25, %edx
1000061ad: e8 0e f3 ff ff              	callq	-3314 <__ZNSt3__124__put_character_sequenceIcNS_11char_traitsIcEEEERNS_13basic_ostreamIT_T0_EES7_PKS4_m>
1000061b2: be c8 00 00 00              	movl	$200, %esi
1000061b7: 48 89 c7                    	movq	%rax, %rdi
1000061ba: e8 55 18 00 00              	callq	6229 <dyld_stub_binder+0x100007a14>
1000061bf: 48 89 c3                    	movq	%rax, %rbx
1000061c2: 48 8b 00                    	movq	(%rax), %rax
1000061c5: 48 8b 70 e8                 	movq	-24(%rax), %rsi
1000061c9: 48 01 de                    	addq	%rbx, %rsi
1000061cc: 4c 8d 65 d0                 	leaq	-48(%rbp), %r12
1000061d0: 4c 89 e7                    	movq	%r12, %rdi
1000061d3: e8 06 18 00 00              	callq	6150 <dyld_stub_binder+0x1000079de>
1000061d8: 48 8b 35 49 1e 00 00        	movq	7753(%rip), %rsi
1000061df: 4c 89 e7                    	movq	%r12, %rdi
1000061e2: e8 f1 17 00 00              	callq	6129 <dyld_stub_binder+0x1000079d8>
1000061e7: 48 8b 08                    	movq	(%rax), %rcx
1000061ea: 48 89 c7                    	movq	%rax, %rdi
1000061ed: be 0a 00 00 00              	movl	$10, %esi
1000061f2: ff 51 38                    	callq	*56(%rcx)
1000061f5: 41 89 c4                    	movl	%eax, %r12d
1000061f8: 48 8d 7d d0                 	leaq	-48(%rbp), %rdi
1000061fc: e8 25 18 00 00              	callq	6181 <dyld_stub_binder+0x100007a26>
100006201: 41 0f be f4                 	movsbl	%r12b, %esi
100006205: 48 89 df                    	movq	%rbx, %rdi
100006208: e8 dd 17 00 00              	callq	6109 <dyld_stub_binder+0x1000079ea>
10000620d: 48 89 df                    	movq	%rbx, %rdi
100006210: e8 db 17 00 00              	callq	6107 <dyld_stub_binder+0x1000079f0>
100006215: 48 8b 3d 04 1e 00 00        	movq	7684(%rip), %rdi
10000621c: 48 8d 35 1c 1c 00 00        	leaq	7196(%rip), %rsi
100006223: ba 0f 00 00 00              	movl	$15, %edx
100006228: e8 93 f2 ff ff              	callq	-3437 <__ZNSt3__124__put_character_sequenceIcNS_11char_traitsIcEEEERNS_13basic_ostreamIT_T0_EES7_PKS4_m>
10000622d: 48 89 c7                    	movq	%rax, %rdi
100006230: be 28 00 00 00              	movl	$40, %esi
100006235: e8 ce 17 00 00              	callq	6094 <dyld_stub_binder+0x100007a08>
10000623a: 48 8d 35 0e 1c 00 00        	leaq	7182(%rip), %rsi
100006241: ba 0b 00 00 00              	movl	$11, %edx
100006246: 48 89 c7                    	movq	%rax, %rdi
100006249: e8 72 f2 ff ff              	callq	-3470 <__ZNSt3__124__put_character_sequenceIcNS_11char_traitsIcEEEERNS_13basic_ostreamIT_T0_EES7_PKS4_m>
10000624e: 48 89 c3                    	movq	%rax, %rbx
100006251: 48 8b 00                    	movq	(%rax), %rax
100006254: 48 8b 70 e8                 	movq	-24(%rax), %rsi
100006258: 48 01 de                    	addq	%rbx, %rsi
10000625b: 4c 8d 65 d0                 	leaq	-48(%rbp), %r12
10000625f: 4c 89 e7                    	movq	%r12, %rdi
100006262: e8 77 17 00 00              	callq	6007 <dyld_stub_binder+0x1000079de>
100006267: 48 8b 35 ba 1d 00 00        	movq	7610(%rip), %rsi
10000626e: 4c 89 e7                    	movq	%r12, %rdi
100006271: e8 62 17 00 00              	callq	5986 <dyld_stub_binder+0x1000079d8>
100006276: 48 8b 08                    	movq	(%rax), %rcx
100006279: 48 89 c7                    	movq	%rax, %rdi
10000627c: be 0a 00 00 00              	movl	$10, %esi
100006281: ff 51 38                    	callq	*56(%rcx)
100006284: 41 89 c4                    	movl	%eax, %r12d
100006287: 48 8d 7d d0                 	leaq	-48(%rbp), %rdi
10000628b: e8 96 17 00 00              	callq	6038 <dyld_stub_binder+0x100007a26>
100006290: 41 0f be f4                 	movsbl	%r12b, %esi
100006294: 48 89 df                    	movq	%rbx, %rdi
100006297: e8 4e 17 00 00              	callq	5966 <dyld_stub_binder+0x1000079ea>
10000629c: 48 89 df                    	movq	%rbx, %rdi
10000629f: e8 4c 17 00 00              	callq	5964 <dyld_stub_binder+0x1000079f0>
1000062a4: 48 8b 3d 75 1d 00 00        	movq	7541(%rip), %rdi
1000062ab: 48 8d 35 a9 1b 00 00        	leaq	7081(%rip), %rsi
1000062b2: ba 19 00 00 00              	movl	$25, %edx
1000062b7: e8 04 f2 ff ff              	callq	-3580 <__ZNSt3__124__put_character_sequenceIcNS_11char_traitsIcEEEERNS_13basic_ostreamIT_T0_EES7_PKS4_m>
1000062bc: 48 89 c7                    	movq	%rax, %rdi
1000062bf: 44 89 f6                    	movl	%r14d, %esi
1000062c2: e8 47 17 00 00              	callq	5959 <dyld_stub_binder+0x100007a0e>
1000062c7: 48 89 c3                    	movq	%rax, %rbx
1000062ca: 48 8b 00                    	movq	(%rax), %rax
1000062cd: 48 8b 70 e8                 	movq	-24(%rax), %rsi
1000062d1: 48 01 de                    	addq	%rbx, %rsi
1000062d4: 4c 8d 75 d0                 	leaq	-48(%rbp), %r14
1000062d8: 4c 89 f7                    	movq	%r14, %rdi
1000062db: e8 fe 16 00 00              	callq	5886 <dyld_stub_binder+0x1000079de>
1000062e0: 48 8b 35 41 1d 00 00        	movq	7489(%rip), %rsi
1000062e7: 4c 89 f7                    	movq	%r14, %rdi
1000062ea: e8 e9 16 00 00              	callq	5865 <dyld_stub_binder+0x1000079d8>
1000062ef: 48 8b 08                    	movq	(%rax), %rcx
1000062f2: 48 89 c7                    	movq	%rax, %rdi
1000062f5: be 0a 00 00 00              	movl	$10, %esi
1000062fa: ff 51 38                    	callq	*56(%rcx)
1000062fd: 41 89 c6                    	movl	%eax, %r14d
100006300: 48 8d 7d d0                 	leaq	-48(%rbp), %rdi
100006304: e8 1d 17 00 00              	callq	5917 <dyld_stub_binder+0x100007a26>
100006309: 41 0f be f6                 	movsbl	%r14b, %esi
10000630d: 48 89 df                    	movq	%rbx, %rdi
100006310: e8 d5 16 00 00              	callq	5845 <dyld_stub_binder+0x1000079ea>
100006315: 48 89 df                    	movq	%rbx, %rdi
100006318: e8 d3 16 00 00              	callq	5843 <dyld_stub_binder+0x1000079f0>
10000631d: 48 8b 3d fc 1c 00 00        	movq	7420(%rip), %rdi
100006324: 48 8d 35 4a 1b 00 00        	leaq	6986(%rip), %rsi
10000632b: ba 1a 00 00 00              	movl	$26, %edx
100006330: e8 8b f1 ff ff              	callq	-3701 <__ZNSt3__124__put_character_sequenceIcNS_11char_traitsIcEEEERNS_13basic_ostreamIT_T0_EES7_PKS4_m>
100006335: 48 8b 55 c8                 	movq	-56(%rbp), %rdx
100006339: 48 85 d2                    	testq	%rdx, %rdx
10000633c: 78 07                       	js	7 <_main+0x5a5>
10000633e: f3 48 0f 2a c2              	cvtsi2ss	%rdx, %xmm0
100006343: eb 15                       	jmp	21 <_main+0x5ba>
100006345: 48 89 d1                    	movq	%rdx, %rcx
100006348: 48 d1 e9                    	shrq	%rcx
10000634b: 83 e2 01                    	andl	$1, %edx
10000634e: 48 09 ca                    	orq	%rcx, %rdx
100006351: f3 48 0f 2a c2              	cvtsi2ss	%rdx, %xmm0
100006356: f3 0f 58 c0                 	addss	%xmm0, %xmm0
10000635a: f3 0f 5e 05 5a 19 00 00     	divss	6490(%rip), %xmm0
100006362: 48 89 c7                    	movq	%rax, %rdi
100006365: e8 98 16 00 00              	callq	5784 <dyld_stub_binder+0x100007a02>
10000636a: 48 8d 35 1f 1b 00 00        	leaq	6943(%rip), %rsi
100006371: ba 01 00 00 00              	movl	$1, %edx
100006376: 48 89 c7                    	movq	%rax, %rdi
100006379: e8 42 f1 ff ff              	callq	-3774 <__ZNSt3__124__put_character_sequenceIcNS_11char_traitsIcEEEERNS_13basic_ostreamIT_T0_EES7_PKS4_m>
10000637e: 48 89 c3                    	movq	%rax, %rbx
100006381: 48 8b 00                    	movq	(%rax), %rax
100006384: 48 8b 70 e8                 	movq	-24(%rax), %rsi
100006388: 48 01 de                    	addq	%rbx, %rsi
10000638b: 4c 8d 75 d0                 	leaq	-48(%rbp), %r14
10000638f: 4c 89 f7                    	movq	%r14, %rdi
100006392: e8 47 16 00 00              	callq	5703 <dyld_stub_binder+0x1000079de>
100006397: 48 8b 35 8a 1c 00 00        	movq	7306(%rip), %rsi
10000639e: 4c 89 f7                    	movq	%r14, %rdi
1000063a1: e8 32 16 00 00              	callq	5682 <dyld_stub_binder+0x1000079d8>
1000063a6: 48 8b 08                    	movq	(%rax), %rcx
1000063a9: 48 89 c7                    	movq	%rax, %rdi
1000063ac: be 0a 00 00 00              	movl	$10, %esi
1000063b1: ff 51 38                    	callq	*56(%rcx)
1000063b4: 41 89 c6                    	movl	%eax, %r14d
1000063b7: 48 8d 7d d0                 	leaq	-48(%rbp), %rdi
1000063bb: e8 66 16 00 00              	callq	5734 <dyld_stub_binder+0x100007a26>
1000063c0: 41 0f be f6                 	movsbl	%r14b, %esi
1000063c4: 48 89 df                    	movq	%rbx, %rdi
1000063c7: e8 1e 16 00 00              	callq	5662 <dyld_stub_binder+0x1000079ea>
1000063cc: 48 89 df                    	movq	%rbx, %rdi
1000063cf: e8 1c 16 00 00              	callq	5660 <dyld_stub_binder+0x1000079f0>
1000063d4: 48 8b 3d 45 1c 00 00        	movq	7237(%rip), %rdi
1000063db: 48 8d 35 b0 1a 00 00        	leaq	6832(%rip), %rsi
1000063e2: ba 23 00 00 00              	movl	$35, %edx
1000063e7: e8 d4 f0 ff ff              	callq	-3884 <__ZNSt3__124__put_character_sequenceIcNS_11char_traitsIcEEEERNS_13basic_ostreamIT_T0_EES7_PKS4_m>
1000063ec: 4d 85 ed                    	testq	%r13, %r13
1000063ef: 78 0a                       	js	10 <_main+0x65b>
1000063f1: 0f 57 c0                    	xorps	%xmm0, %xmm0
1000063f4: f3 49 0f 2a c5              	cvtsi2ss	%r13, %xmm0
1000063f9: eb 19                       	jmp	25 <_main+0x674>
1000063fb: 4c 89 e9                    	movq	%r13, %rcx
1000063fe: 48 d1 e9                    	shrq	%rcx
100006401: 41 83 e5 01                 	andl	$1, %r13d
100006405: 49 09 cd                    	orq	%rcx, %r13
100006408: 0f 57 c0                    	xorps	%xmm0, %xmm0
10000640b: f3 49 0f 2a c5              	cvtsi2ss	%r13, %xmm0
100006410: f3 0f 58 c0                 	addss	%xmm0, %xmm0
100006414: f3 0f 5e 05 a0 18 00 00     	divss	6304(%rip), %xmm0
10000641c: 48 89 c7                    	movq	%rax, %rdi
10000641f: e8 de 15 00 00              	callq	5598 <dyld_stub_binder+0x100007a02>
100006424: 48 8d 35 65 1a 00 00        	leaq	6757(%rip), %rsi
10000642b: ba 01 00 00 00              	movl	$1, %edx
100006430: 48 89 c7                    	movq	%rax, %rdi
100006433: e8 88 f0 ff ff              	callq	-3960 <__ZNSt3__124__put_character_sequenceIcNS_11char_traitsIcEEEERNS_13basic_ostreamIT_T0_EES7_PKS4_m>
100006438: 48 89 c3                    	movq	%rax, %rbx
10000643b: 48 8b 00                    	movq	(%rax), %rax
10000643e: 48 8b 70 e8                 	movq	-24(%rax), %rsi
100006442: 48 01 de                    	addq	%rbx, %rsi
100006445: 4c 8d 75 d0                 	leaq	-48(%rbp), %r14
100006449: 4c 89 f7                    	movq	%r14, %rdi
10000644c: e8 8d 15 00 00              	callq	5517 <dyld_stub_binder+0x1000079de>
100006451: 48 8b 35 d0 1b 00 00        	movq	7120(%rip), %rsi
100006458: 4c 89 f7                    	movq	%r14, %rdi
10000645b: e8 78 15 00 00              	callq	5496 <dyld_stub_binder+0x1000079d8>
100006460: 48 8b 08                    	movq	(%rax), %rcx
100006463: 48 89 c7                    	movq	%rax, %rdi
100006466: be 0a 00 00 00              	movl	$10, %esi
10000646b: ff 51 38                    	callq	*56(%rcx)
10000646e: 41 89 c6                    	movl	%eax, %r14d
100006471: 48 8d 7d d0                 	leaq	-48(%rbp), %rdi
100006475: e8 ac 15 00 00              	callq	5548 <dyld_stub_binder+0x100007a26>
10000647a: 41 0f be f6                 	movsbl	%r14b, %esi
10000647e: 48 89 df                    	movq	%rbx, %rdi
100006481: e8 64 15 00 00              	callq	5476 <dyld_stub_binder+0x1000079ea>
100006486: 48 89 df                    	movq	%rbx, %rdi
100006489: e8 62 15 00 00              	callq	5474 <dyld_stub_binder+0x1000079f0>
10000648e: 31 c0                       	xorl	%eax, %eax
100006490: 48 83 c4 38                 	addq	$56, %rsp
100006494: 5b                          	popq	%rbx
100006495: 41 5c                       	popq	%r12
100006497: 41 5d                       	popq	%r13
100006499: 41 5e                       	popq	%r14
10000649b: 41 5f                       	popq	%r15
10000649d: 5d                          	popq	%rbp
10000649e: c3                          	retq
10000649f: 48 8d 3d 62 66 00 00        	leaq	26210(%rip), %rdi
1000064a6: e8 27 15 00 00              	callq	5415 <dyld_stub_binder+0x1000079d2>
1000064ab: e8 80 02 00 00              	callq	640 <__ZNSt3__1L20__throw_length_errorEPKc>
1000064b0: eb 0a                       	jmp	10 <_main+0x71c>
1000064b2: eb 08                       	jmp	8 <_main+0x71c>
1000064b4: eb 06                       	jmp	6 <_main+0x71c>
1000064b6: eb 04                       	jmp	4 <_main+0x71c>
1000064b8: eb 02                       	jmp	2 <_main+0x71c>
1000064ba: eb 00                       	jmp	0 <_main+0x71c>
1000064bc: 48 89 c3                    	movq	%rax, %rbx
1000064bf: 48 8d 7d d0                 	leaq	-48(%rbp), %rdi
1000064c3: e8 5e 15 00 00              	callq	5470 <dyld_stub_binder+0x100007a26>
1000064c8: 48 89 df                    	movq	%rbx, %rdi
1000064cb: e8 fc 14 00 00              	callq	5372 <dyld_stub_binder+0x1000079cc>
1000064d0: 0f 0b                       	ud2
1000064d2: 66 2e 0f 1f 84 00 00 00 00 00       	nopw	%cs:(%rax,%rax)
1000064dc: 0f 1f 40 00                 	nopl	(%rax)

00000001000064e0 __Z7getRandff:
1000064e0: 55                          	pushq	%rbp
1000064e1: 48 89 e5                    	movq	%rsp, %rbp
1000064e4: 41 56                       	pushq	%r14
1000064e6: 53                          	pushq	%rbx
1000064e7: 48 83 ec 20                 	subq	$32, %rsp
1000064eb: f3 0f 11 4d ec              	movss	%xmm1, -20(%rbp)
1000064f0: f3 0f 11 45 e8              	movss	%xmm0, -24(%rbp)
1000064f5: 48 8b 05 04 1b 00 00        	movq	6916(%rip), %rax
1000064fc: 8a 00                       	movb	(%rax), %al
1000064fe: 84 c0                       	testb	%al, %al
100006500: 0f 84 ef 00 00 00           	je	239 <__Z7getRandff+0x115>
100006506: 48 8b 05 fb 1a 00 00        	movq	6907(%rip), %rax
10000650d: 8a 00                       	movb	(%rax), %al
10000650f: 84 c0                       	testb	%al, %al
100006511: 0f 84 5c 01 00 00           	je	348 <__Z7getRandff+0x193>
100006517: 4c 8b 0d 2a 1b 00 00        	movq	6954(%rip), %r9
10000651e: 49 8b b1 c0 09 00 00        	movq	2496(%r9), %rsi
100006525: 48 8d 46 01                 	leaq	1(%rsi), %rax
100006529: 48 c1 e8 04                 	shrq	$4, %rax
10000652d: 49 b8 21 0d d2 20 0d d2 20 0d       	movabsq	$945986875574848801, %r8
100006537: 49 f7 e0                    	mulq	%r8
10000653a: f3 0f 10 4d e8              	movss	-24(%rbp), %xmm1
10000653f: f3 0f 10 55 ec              	movss	-20(%rbp), %xmm2
100006544: f3 0f 5c d1                 	subss	%xmm1, %xmm2
100006548: 48 d1 ea                    	shrq	%rdx
10000654b: 48 69 c2 70 02 00 00        	imulq	$624, %rdx, %rax
100006552: 48 f7 d8                    	negq	%rax
100006555: 48 8d 7c 06 01              	leaq	1(%rsi,%rax), %rdi
10000655a: b8 00 00 00 80              	movl	$2147483648, %eax
10000655f: 41 23 04 b1                 	andl	(%r9,%rsi,4), %eax
100006563: 41 8b 0c b9                 	movl	(%r9,%rdi,4), %ecx
100006567: 89 cb                       	movl	%ecx, %ebx
100006569: 81 e3 fe ff ff 7f           	andl	$2147483646, %ebx
10000656f: 09 c3                       	orl	%eax, %ebx
100006571: 48 8d 86 8d 01 00 00        	leaq	397(%rsi), %rax
100006578: 48 c1 e8 04                 	shrq	$4, %rax
10000657c: 49 f7 e0                    	mulq	%r8
10000657f: 48 d1 ea                    	shrq	%rdx
100006582: 48 69 c2 70 02 00 00        	imulq	$624, %rdx, %rax
100006589: 48 f7 d8                    	negq	%rax
10000658c: 48 8d 84 06 8d 01 00 00     	leaq	397(%rsi,%rax), %rax
100006594: d1 eb                       	shrl	%ebx
100006596: 83 e1 01                    	andl	$1, %ecx
100006599: 69 c9 df b0 08 99           	imull	$2567483615, %ecx, %ecx
10000659f: 41 33 0c 81                 	xorl	(%r9,%rax,4), %ecx
1000065a3: 31 d9                       	xorl	%ebx, %ecx
1000065a5: 41 89 0c b1                 	movl	%ecx, (%r9,%rsi,4)
1000065a9: 89 c8                       	movl	%ecx, %eax
1000065ab: c1 e8 0b                    	shrl	$11, %eax
1000065ae: 31 c8                       	xorl	%ecx, %eax
1000065b0: 49 89 b9 c0 09 00 00        	movq	%rdi, 2496(%r9)
1000065b7: 89 c1                       	movl	%eax, %ecx
1000065b9: c1 e1 07                    	shll	$7, %ecx
1000065bc: 81 e1 80 56 2c 9d           	andl	$2636928640, %ecx
1000065c2: 31 c1                       	xorl	%eax, %ecx
1000065c4: 89 c8                       	movl	%ecx, %eax
1000065c6: c1 e0 0f                    	shll	$15, %eax
1000065c9: 25 00 00 c6 ef              	andl	$4022730752, %eax
1000065ce: 31 c8                       	xorl	%ecx, %eax
1000065d0: 89 c1                       	movl	%eax, %ecx
1000065d2: c1 e9 12                    	shrl	$18, %ecx
1000065d5: 31 c1                       	xorl	%eax, %ecx
1000065d7: f3 48 0f 2a c1              	cvtsi2ss	%rcx, %xmm0
1000065dc: f3 0f 59 05 dc 16 00 00     	mulss	5852(%rip), %xmm0
1000065e4: f3 0f 59 c2                 	mulss	%xmm2, %xmm0
1000065e8: f3 0f 58 c1                 	addss	%xmm1, %xmm0
1000065ec: 48 83 c4 20                 	addq	$32, %rsp
1000065f0: 5b                          	popq	%rbx
1000065f1: 41 5e                       	popq	%r14
1000065f3: 5d                          	popq	%rbp
1000065f4: c3                          	retq
1000065f5: 48 8b 1d 04 1a 00 00        	movq	6660(%rip), %rbx
1000065fc: 48 89 df                    	movq	%rbx, %rdi
1000065ff: e8 6a 14 00 00              	callq	5226 <dyld_stub_binder+0x100007a6e>
100006604: 85 c0                       	testl	%eax, %eax
100006606: 0f 84 fa fe ff ff           	je	-262 <__Z7getRandff+0x26>
10000660c: c6 45 d0 18                 	movb	$24, -48(%rbp)
100006610: 48 b8 2f 64 65 76 2f 75 72 61       	movabsq	$7021803615734293551, %rax
10000661a: 48 89 45 d1                 	movq	%rax, -47(%rbp)
10000661e: c7 45 d9 6e 64 6f 6d        	movl	$1836016750, -39(%rbp)
100006625: c6 45 dd 00                 	movb	$0, -35(%rbp)
100006629: 48 8b 3d 10 1a 00 00        	movq	6672(%rip), %rdi
100006630: 48 8d 75 d0                 	leaq	-48(%rbp), %rsi
100006634: e8 e1 13 00 00              	callq	5089 <dyld_stub_binder+0x100007a1a>
100006639: f6 45 d0 01                 	testb	$1, -48(%rbp)
10000663d: 74 09                       	je	9 <__Z7getRandff+0x168>
10000663f: 48 8b 7d e0                 	movq	-32(%rbp), %rdi
100006643: e8 f6 13 00 00              	callq	5110 <dyld_stub_binder+0x100007a3e>
100006648: 48 8b 3d c9 19 00 00        	movq	6601(%rip), %rdi
10000664f: 48 8b 35 ea 19 00 00        	movq	6634(%rip), %rsi
100006656: 48 8d 15 a3 99 ff ff        	leaq	-26205(%rip), %rdx
10000665d: e8 ee 13 00 00              	callq	5102 <dyld_stub_binder+0x100007a50>
100006662: 48 8b 3d 97 19 00 00        	movq	6551(%rip), %rdi
100006669: e8 06 14 00 00              	callq	5126 <dyld_stub_binder+0x100007a74>
10000666e: e9 93 fe ff ff              	jmp	-365 <__Z7getRandff+0x26>
100006673: 48 8b 1d 8e 19 00 00        	movq	6542(%rip), %rbx
10000667a: 48 89 df                    	movq	%rbx, %rdi
10000667d: e8 ec 13 00 00              	callq	5100 <dyld_stub_binder+0x100007a6e>
100006682: 85 c0                       	testl	%eax, %eax
100006684: 0f 84 8d fe ff ff           	je	-371 <__Z7getRandff+0x37>
10000668a: 48 8b 3d af 19 00 00        	movq	6575(%rip), %rdi
100006691: e8 8a 13 00 00              	callq	5002 <dyld_stub_binder+0x100007a20>
100006696: 48 8b 0d ab 19 00 00        	movq	6571(%rip), %rcx
10000669d: 89 01                       	movl	%eax, (%rcx)
10000669f: ba 01 00 00 00              	movl	$1, %edx
1000066a4: be 02 00 00 00              	movl	$2, %esi
1000066a9: 89 c7                       	movl	%eax, %edi
1000066ab: c1 ef 1e                    	shrl	$30, %edi
1000066ae: 31 c7                       	xorl	%eax, %edi
1000066b0: 69 df 65 89 07 6c           	imull	$1812433253, %edi, %ebx
1000066b6: 01 d3                       	addl	%edx, %ebx
1000066b8: 89 5c b1 fc                 	movl	%ebx, -4(%rcx,%rsi,4)
1000066bc: 48 81 fe 70 02 00 00        	cmpq	$624, %rsi
1000066c3: 74 22                       	je	34 <__Z7getRandff+0x207>
1000066c5: 48 8d 42 01                 	leaq	1(%rdx), %rax
1000066c9: 89 df                       	movl	%ebx, %edi
1000066cb: c1 ef 1e                    	shrl	$30, %edi
1000066ce: 31 df                       	xorl	%ebx, %edi
1000066d0: 69 ff 65 89 07 6c           	imull	$1812433253, %edi, %edi
1000066d6: 01 f8                       	addl	%edi, %eax
1000066d8: 01 f7                       	addl	%esi, %edi
1000066da: 89 3c b1                    	movl	%edi, (%rcx,%rsi,4)
1000066dd: 48 83 c2 02                 	addq	$2, %rdx
1000066e1: 48 83 c6 02                 	addq	$2, %rsi
1000066e5: eb c2                       	jmp	-62 <__Z7getRandff+0x1c9>
1000066e7: 48 c7 81 c0 09 00 00 00 00 00 00    	movq	$0, 2496(%rcx)
1000066f2: 48 8b 3d 0f 19 00 00        	movq	6415(%rip), %rdi
1000066f9: e8 76 13 00 00              	callq	4982 <dyld_stub_binder+0x100007a74>
1000066fe: e9 14 fe ff ff              	jmp	-492 <__Z7getRandff+0x37>
100006703: 49 89 c6                    	movq	%rax, %r14
100006706: eb 12                       	jmp	18 <__Z7getRandff+0x23a>
100006708: 49 89 c6                    	movq	%rax, %r14
10000670b: f6 45 d0 01                 	testb	$1, -48(%rbp)
10000670f: 74 09                       	je	9 <__Z7getRandff+0x23a>
100006711: 48 8b 7d e0                 	movq	-32(%rbp), %rdi
100006715: e8 24 13 00 00              	callq	4900 <dyld_stub_binder+0x100007a3e>
10000671a: 48 89 df                    	movq	%rbx, %rdi
10000671d: e8 46 13 00 00              	callq	4934 <dyld_stub_binder+0x100007a68>
100006722: 4c 89 f7                    	movq	%r14, %rdi
100006725: e8 a2 12 00 00              	callq	4770 <dyld_stub_binder+0x1000079cc>
10000672a: 0f 0b                       	ud2
10000672c: 0f 1f 40 00                 	nopl	(%rax)

0000000100006730 __ZNSt3__1L20__throw_length_errorEPKc:
100006730: 55                          	pushq	%rbp
100006731: 48 89 e5                    	movq	%rsp, %rbp
100006734: 41 56                       	pushq	%r14
100006736: 53                          	pushq	%rbx
100006737: bf 10 00 00 00              	movl	$16, %edi
10000673c: e8 09 13 00 00              	callq	4873 <dyld_stub_binder+0x100007a4a>
100006741: 48 89 c3                    	movq	%rax, %rbx
100006744: 48 89 c7                    	movq	%rax, %rdi
100006747: e8 34 00 00 00              	callq	52 <__ZNSt12length_errorC1EPKc>
10000674c: 48 8b 35 dd 18 00 00        	movq	6365(%rip), %rsi
100006753: 48 8b 15 b6 18 00 00        	movq	6326(%rip), %rdx
10000675a: 48 89 df                    	movq	%rbx, %rdi
10000675d: e8 18 13 00 00              	callq	4888 <dyld_stub_binder+0x100007a7a>
100006762: 49 89 c6                    	movq	%rax, %r14
100006765: 48 89 df                    	movq	%rbx, %rdi
100006768: e8 f5 12 00 00              	callq	4853 <dyld_stub_binder+0x100007a62>
10000676d: 4c 89 f7                    	movq	%r14, %rdi
100006770: e8 57 12 00 00              	callq	4695 <dyld_stub_binder+0x1000079cc>
100006775: 0f 0b                       	ud2
100006777: 66 0f 1f 84 00 00 00 00 00  	nopw	(%rax,%rax)

0000000100006780 __ZNSt12length_errorC1EPKc:
100006780: 55                          	pushq	%rbp
100006781: 48 89 e5                    	movq	%rsp, %rbp
100006784: 53                          	pushq	%rbx
100006785: 50                          	pushq	%rax
100006786: 48 89 fb                    	movq	%rdi, %rbx
100006789: 48 8d 35 33 17 00 00        	leaq	5939(%rip), %rsi
100006790: e8 4f 12 00 00              	callq	4687 <dyld_stub_binder+0x1000079e4>
100006795: 48 8b 05 9c 18 00 00        	movq	6300(%rip), %rax
10000679c: 48 83 c0 10                 	addq	$16, %rax
1000067a0: 48 89 03                    	movq	%rax, (%rbx)
1000067a3: 48 83 c4 08                 	addq	$8, %rsp
1000067a7: 5b                          	popq	%rbx
1000067a8: 5d                          	popq	%rbp
1000067a9: c3                          	retq
1000067aa: 66 0f 1f 44 00 00           	nopw	(%rax,%rax)

00000001000067b0 __ZNSt3__16__sortIRZ4mainE3$_0P3RecEEvT0_S5_T_:
1000067b0: 55                          	pushq	%rbp
1000067b1: 48 89 e5                    	movq	%rsp, %rbp
1000067b4: 41 57                       	pushq	%r15
1000067b6: 41 56                       	pushq	%r14
1000067b8: 41 55                       	pushq	%r13
1000067ba: 41 54                       	pushq	%r12
1000067bc: 53                          	pushq	%rbx
1000067bd: 48 83 ec 28                 	subq	$40, %rsp
1000067c1: 49 89 f6                    	movq	%rsi, %r14
1000067c4: 49 89 fc                    	movq	%rdi, %r12
1000067c7: 4d 8d 46 f0                 	leaq	-16(%r14), %r8
1000067cb: 49 8d 46 e0                 	leaq	-32(%r14), %rax
1000067cf: 48 89 45 b0                 	movq	%rax, -80(%rbp)
1000067d3: 4d 89 e7                    	movq	%r12, %r15
1000067d6: 4c 89 45 c0                 	movq	%r8, -64(%rbp)
1000067da: 4d 89 fc                    	movq	%r15, %r12
1000067dd: 4c 89 f1                    	movq	%r14, %rcx
1000067e0: 4c 29 e1                    	subq	%r12, %rcx
1000067e3: 48 89 c8                    	movq	%rcx, %rax
1000067e6: 48 c1 f8 04                 	sarq	$4, %rax
1000067ea: 48 83 f8 05                 	cmpq	$5, %rax
1000067ee: 0f 86 22 06 00 00           	jbe	1570 <__ZNSt3__16__sortIRZ4mainE3$_0P3RecEEvT0_S5_T_+0x666>
1000067f4: 48 81 f9 ef 01 00 00        	cmpq	$495, %rcx
1000067fb: 0f 8e 3a 06 00 00           	jle	1594 <__ZNSt3__16__sortIRZ4mainE3$_0P3RecEEvT0_S5_T_+0x68b>
100006801: 48 89 c2                    	movq	%rax, %rdx
100006804: 48 c1 ea 3f                 	shrq	$63, %rdx
100006808: 48 01 c2                    	addq	%rax, %rdx
10000680b: 48 83 e2 fe                 	andq	$-2, %rdx
10000680f: 4d 8d 2c d4                 	leaq	(%r12,%rdx,8), %r13
100006813: 48 81 f9 71 3e 00 00        	cmpq	$15985, %rcx
10000681a: 0f 8c 50 01 00 00           	jl	336 <__ZNSt3__16__sortIRZ4mainE3$_0P3RecEEvT0_S5_T_+0x1c0>
100006820: 4c 89 f3                    	movq	%r14, %rbx
100006823: 4c 8d 70 03                 	leaq	3(%rax), %r14
100006827: 48 85 c0                    	testq	%rax, %rax
10000682a: 4c 0f 49 f0                 	cmovnsq	%rax, %r14
10000682e: 49 c1 e6 02                 	shlq	$2, %r14
100006832: 49 83 e6 f0                 	andq	$-16, %r14
100006836: 4b 8d 34 34                 	leaq	(%r12,%r14), %rsi
10000683a: 4f 8d 7c 35 00              	leaq	(%r13,%r14), %r15
10000683f: 4c 89 e7                    	movq	%r12, %rdi
100006842: 48 89 75 b8                 	movq	%rsi, -72(%rbp)
100006846: 4c 89 ea                    	movq	%r13, %rdx
100006849: 4c 89 f9                    	movq	%r15, %rcx
10000684c: e8 4f 0a 00 00              	callq	2639 <__ZNSt3__17__sort4IRZ4mainE3$_0P3RecEEjT0_S5_S5_S5_T_>
100006851: 4c 8b 45 c0                 	movq	-64(%rbp), %r8
100006855: f3 43 0f 10 44 35 00        	movss	(%r13,%r14), %xmm0
10000685c: 49 89 de                    	movq	%rbx, %r14
10000685f: 41 0f 2e 00                 	ucomiss	(%r8), %xmm0
100006863: 0f 86 b7 02 00 00           	jbe	695 <__ZNSt3__16__sortIRZ4mainE3$_0P3RecEEvT0_S5_T_+0x370>
100006869: 49 8b 0f                    	movq	(%r15), %rcx
10000686c: 49 8b 57 08                 	movq	8(%r15), %rdx
100006870: 48 89 55 d0                 	movq	%rdx, -48(%rbp)
100006874: 48 89 4d c8                 	movq	%rcx, -56(%rbp)
100006878: 49 8b 08                    	movq	(%r8), %rcx
10000687b: 49 8b 50 08                 	movq	8(%r8), %rdx
10000687f: 49 89 57 08                 	movq	%rdx, 8(%r15)
100006883: 49 89 0f                    	movq	%rcx, (%r15)
100006886: 48 8b 4d c8                 	movq	-56(%rbp), %rcx
10000688a: 48 8b 55 d0                 	movq	-48(%rbp), %rdx
10000688e: 49 89 50 08                 	movq	%rdx, 8(%r8)
100006892: 49 89 08                    	movq	%rcx, (%r8)
100006895: f3 41 0f 10 45 00           	movss	(%r13), %xmm0
10000689b: 41 0f 2e 07                 	ucomiss	(%r15), %xmm0
10000689f: 0f 86 c1 01 00 00           	jbe	449 <__ZNSt3__16__sortIRZ4mainE3$_0P3RecEEvT0_S5_T_+0x2b6>
1000068a5: 49 8b 4d 00                 	movq	(%r13), %rcx
1000068a9: 49 8b 55 08                 	movq	8(%r13), %rdx
1000068ad: 48 89 55 d0                 	movq	%rdx, -48(%rbp)
1000068b1: 48 89 4d c8                 	movq	%rcx, -56(%rbp)
1000068b5: 49 8b 0f                    	movq	(%r15), %rcx
1000068b8: 49 8b 57 08                 	movq	8(%r15), %rdx
1000068bc: 49 89 55 08                 	movq	%rdx, 8(%r13)
1000068c0: 49 89 4d 00                 	movq	%rcx, (%r13)
1000068c4: 48 8b 4d c8                 	movq	-56(%rbp), %rcx
1000068c8: 48 8b 55 d0                 	movq	-48(%rbp), %rdx
1000068cc: 49 89 57 08                 	movq	%rdx, 8(%r15)
1000068d0: 49 89 0f                    	movq	%rcx, (%r15)
1000068d3: 48 8b 75 b8                 	movq	-72(%rbp), %rsi
1000068d7: f3 0f 10 06                 	movss	(%rsi), %xmm0
1000068db: 41 0f 2e 45 00              	ucomiss	(%r13), %xmm0
1000068e0: 0f 86 28 02 00 00           	jbe	552 <__ZNSt3__16__sortIRZ4mainE3$_0P3RecEEvT0_S5_T_+0x35e>
1000068e6: 48 8b 0e                    	movq	(%rsi), %rcx
1000068e9: 48 8b 56 08                 	movq	8(%rsi), %rdx
1000068ed: 48 89 55 d0                 	movq	%rdx, -48(%rbp)
1000068f1: 48 89 4d c8                 	movq	%rcx, -56(%rbp)
1000068f5: 49 8b 4d 00                 	movq	(%r13), %rcx
1000068f9: 49 8b 55 08                 	movq	8(%r13), %rdx
1000068fd: 48 89 56 08                 	movq	%rdx, 8(%rsi)
100006901: 48 89 0e                    	movq	%rcx, (%rsi)
100006904: 48 8b 4d c8                 	movq	-56(%rbp), %rcx
100006908: 48 8b 55 d0                 	movq	-48(%rbp), %rdx
10000690c: 49 89 55 08                 	movq	%rdx, 8(%r13)
100006910: 49 89 4d 00                 	movq	%rcx, (%r13)
100006914: f3 41 0f 10 04 24           	movss	(%r12), %xmm0
10000691a: 0f 2e 06                    	ucomiss	(%rsi), %xmm0
10000691d: 0f 86 45 03 00 00           	jbe	837 <__ZNSt3__16__sortIRZ4mainE3$_0P3RecEEvT0_S5_T_+0x4b8>
100006923: 49 8b 0c 24                 	movq	(%r12), %rcx
100006927: 49 8b 54 24 08              	movq	8(%r12), %rdx
10000692c: 48 89 55 d0                 	movq	%rdx, -48(%rbp)
100006930: 48 89 4d c8                 	movq	%rcx, -56(%rbp)
100006934: 48 8b 0e                    	movq	(%rsi), %rcx
100006937: 48 8b 56 08                 	movq	8(%rsi), %rdx
10000693b: 49 89 54 24 08              	movq	%rdx, 8(%r12)
100006940: 49 89 0c 24                 	movq	%rcx, (%r12)
100006944: 48 8b 4d c8                 	movq	-56(%rbp), %rcx
100006948: 48 8b 55 d0                 	movq	-48(%rbp), %rdx
10000694c: 48 89 56 08                 	movq	%rdx, 8(%rsi)
100006950: 48 89 0e                    	movq	%rcx, (%rsi)
100006953: 83 c0 04                    	addl	$4, %eax
100006956: f3 41 0f 10 04 24           	movss	(%r12), %xmm0
10000695c: f3 41 0f 10 4d 00           	movss	(%r13), %xmm1
100006962: 0f 2e c8                    	ucomiss	%xmm0, %xmm1
100006965: 0f 86 ca 01 00 00           	jbe	458 <__ZNSt3__16__sortIRZ4mainE3$_0P3RecEEvT0_S5_T_+0x385>
10000696b: e9 58 03 00 00              	jmp	856 <__ZNSt3__16__sortIRZ4mainE3$_0P3RecEEvT0_S5_T_+0x518>
100006970: f3 41 0f 10 45 00           	movss	(%r13), %xmm0
100006976: f3 41 0f 10 0c 24           	movss	(%r12), %xmm1
10000697c: 0f 2e c8                    	ucomiss	%xmm0, %xmm1
10000697f: f3 41 0f 10 08              	movss	(%r8), %xmm1
100006984: 76 5a                       	jbe	90 <__ZNSt3__16__sortIRZ4mainE3$_0P3RecEEvT0_S5_T_+0x230>
100006986: 0f 2e c1                    	ucomiss	%xmm1, %xmm0
100006989: 0f 86 f3 00 00 00           	jbe	243 <__ZNSt3__16__sortIRZ4mainE3$_0P3RecEEvT0_S5_T_+0x2d2>
10000698f: 49 8b 04 24                 	movq	(%r12), %rax
100006993: 49 8b 4c 24 08              	movq	8(%r12), %rcx
100006998: 48 89 4d d0                 	movq	%rcx, -48(%rbp)
10000699c: 48 89 45 c8                 	movq	%rax, -56(%rbp)
1000069a0: 49 8b 00                    	movq	(%r8), %rax
1000069a3: 49 8b 48 08                 	movq	8(%r8), %rcx
1000069a7: 49 89 4c 24 08              	movq	%rcx, 8(%r12)
1000069ac: 49 89 04 24                 	movq	%rax, (%r12)
1000069b0: 48 8b 45 c8                 	movq	-56(%rbp), %rax
1000069b4: 48 8b 4d d0                 	movq	-48(%rbp), %rcx
1000069b8: 49 89 48 08                 	movq	%rcx, 8(%r8)
1000069bc: 49 89 00                    	movq	%rax, (%r8)
1000069bf: b8 01 00 00 00              	movl	$1, %eax
1000069c4: f3 41 0f 10 04 24           	movss	(%r12), %xmm0
1000069ca: f3 41 0f 10 4d 00           	movss	(%r13), %xmm1
1000069d0: 0f 2e c8                    	ucomiss	%xmm0, %xmm1
1000069d3: 0f 86 5c 01 00 00           	jbe	348 <__ZNSt3__16__sortIRZ4mainE3$_0P3RecEEvT0_S5_T_+0x385>
1000069d9: e9 ea 02 00 00              	jmp	746 <__ZNSt3__16__sortIRZ4mainE3$_0P3RecEEvT0_S5_T_+0x518>
1000069de: 66 90                       	nop
1000069e0: 31 c0                       	xorl	%eax, %eax
1000069e2: 0f 2e c1                    	ucomiss	%xmm1, %xmm0
1000069e5: 0f 86 35 01 00 00           	jbe	309 <__ZNSt3__16__sortIRZ4mainE3$_0P3RecEEvT0_S5_T_+0x370>
1000069eb: 49 8b 45 00                 	movq	(%r13), %rax
1000069ef: 49 8b 4d 08                 	movq	8(%r13), %rcx
1000069f3: 48 89 4d d0                 	movq	%rcx, -48(%rbp)
1000069f7: 48 89 45 c8                 	movq	%rax, -56(%rbp)
1000069fb: 49 8b 00                    	movq	(%r8), %rax
1000069fe: 49 8b 48 08                 	movq	8(%r8), %rcx
100006a02: 49 89 4d 08                 	movq	%rcx, 8(%r13)
100006a06: 49 89 45 00                 	movq	%rax, (%r13)
100006a0a: 48 8b 45 c8                 	movq	-56(%rbp), %rax
100006a0e: 48 8b 4d d0                 	movq	-48(%rbp), %rcx
100006a12: 49 89 48 08                 	movq	%rcx, 8(%r8)
100006a16: 49 89 00                    	movq	%rax, (%r8)
100006a19: f3 41 0f 10 04 24           	movss	(%r12), %xmm0
100006a1f: b8 01 00 00 00              	movl	$1, %eax
100006a24: 41 0f 2e 45 00              	ucomiss	(%r13), %xmm0
100006a29: 0f 86 f1 00 00 00           	jbe	241 <__ZNSt3__16__sortIRZ4mainE3$_0P3RecEEvT0_S5_T_+0x370>
100006a2f: 49 8b 04 24                 	movq	(%r12), %rax
100006a33: 49 8b 4c 24 08              	movq	8(%r12), %rcx
100006a38: 48 89 4d d0                 	movq	%rcx, -48(%rbp)
100006a3c: 48 89 45 c8                 	movq	%rax, -56(%rbp)
100006a40: 49 8b 45 00                 	movq	(%r13), %rax
100006a44: 49 8b 4d 08                 	movq	8(%r13), %rcx
100006a48: 49 89 4c 24 08              	movq	%rcx, 8(%r12)
100006a4d: 49 89 04 24                 	movq	%rax, (%r12)
100006a51: 48 8b 45 c8                 	movq	-56(%rbp), %rax
100006a55: 48 8b 4d d0                 	movq	-48(%rbp), %rcx
100006a59: 49 89 4d 08                 	movq	%rcx, 8(%r13)
100006a5d: 49 89 45 00                 	movq	%rax, (%r13)
100006a61: e9 8d 00 00 00              	jmp	141 <__ZNSt3__16__sortIRZ4mainE3$_0P3RecEEvT0_S5_T_+0x343>
100006a66: ff c0                       	incl	%eax
100006a68: f3 41 0f 10 04 24           	movss	(%r12), %xmm0
100006a6e: f3 41 0f 10 4d 00           	movss	(%r13), %xmm1
100006a74: 0f 2e c8                    	ucomiss	%xmm0, %xmm1
100006a77: 0f 86 b8 00 00 00           	jbe	184 <__ZNSt3__16__sortIRZ4mainE3$_0P3RecEEvT0_S5_T_+0x385>
100006a7d: e9 46 02 00 00              	jmp	582 <__ZNSt3__16__sortIRZ4mainE3$_0P3RecEEvT0_S5_T_+0x518>
100006a82: 49 8b 04 24                 	movq	(%r12), %rax
100006a86: 49 8b 4c 24 08              	movq	8(%r12), %rcx
100006a8b: 48 89 4d d0                 	movq	%rcx, -48(%rbp)
100006a8f: 48 89 45 c8                 	movq	%rax, -56(%rbp)
100006a93: 49 8b 45 00                 	movq	(%r13), %rax
100006a97: 49 8b 4d 08                 	movq	8(%r13), %rcx
100006a9b: 49 89 4c 24 08              	movq	%rcx, 8(%r12)
100006aa0: 49 89 04 24                 	movq	%rax, (%r12)
100006aa4: 48 8b 45 c8                 	movq	-56(%rbp), %rax
100006aa8: 48 8b 4d d0                 	movq	-48(%rbp), %rcx
100006aac: 49 89 4d 08                 	movq	%rcx, 8(%r13)
100006ab0: 49 89 45 00                 	movq	%rax, (%r13)
100006ab4: f3 41 0f 10 45 00           	movss	(%r13), %xmm0
100006aba: b8 01 00 00 00              	movl	$1, %eax
100006abf: 41 0f 2e 00                 	ucomiss	(%r8), %xmm0
100006ac3: 76 5b                       	jbe	91 <__ZNSt3__16__sortIRZ4mainE3$_0P3RecEEvT0_S5_T_+0x370>
100006ac5: 49 8b 45 00                 	movq	(%r13), %rax
100006ac9: 49 8b 4d 08                 	movq	8(%r13), %rcx
100006acd: 48 89 4d d0                 	movq	%rcx, -48(%rbp)
100006ad1: 48 89 45 c8                 	movq	%rax, -56(%rbp)
100006ad5: 49 8b 00                    	movq	(%r8), %rax
100006ad8: 49 8b 48 08                 	movq	8(%r8), %rcx
100006adc: 49 89 4d 08                 	movq	%rcx, 8(%r13)
100006ae0: 49 89 45 00                 	movq	%rax, (%r13)
100006ae4: 48 8b 45 c8                 	movq	-56(%rbp), %rax
100006ae8: 48 8b 4d d0                 	movq	-48(%rbp), %rcx
100006aec: 49 89 48 08                 	movq	%rcx, 8(%r8)
100006af0: 49 89 00                    	movq	%rax, (%r8)
100006af3: b8 02 00 00 00              	movl	$2, %eax
100006af8: f3 41 0f 10 04 24           	movss	(%r12), %xmm0
100006afe: f3 41 0f 10 4d 00           	movss	(%r13), %xmm1
100006b04: 0f 2e c8                    	ucomiss	%xmm0, %xmm1
100006b07: 76 2c                       	jbe	44 <__ZNSt3__16__sortIRZ4mainE3$_0P3RecEEvT0_S5_T_+0x385>
100006b09: e9 ba 01 00 00              	jmp	442 <__ZNSt3__16__sortIRZ4mainE3$_0P3RecEEvT0_S5_T_+0x518>
100006b0e: 83 c0 02                    	addl	$2, %eax
100006b11: 66 2e 0f 1f 84 00 00 00 00 00       	nopw	%cs:(%rax,%rax)
100006b1b: 0f 1f 44 00 00              	nopl	(%rax,%rax)
100006b20: f3 41 0f 10 04 24           	movss	(%r12), %xmm0
100006b26: f3 41 0f 10 4d 00           	movss	(%r13), %xmm1
100006b2c: 0f 2e c8                    	ucomiss	%xmm0, %xmm1
100006b2f: 0f 87 93 01 00 00           	ja	403 <__ZNSt3__16__sortIRZ4mainE3$_0P3RecEEvT0_S5_T_+0x518>
100006b35: 48 8b 4d b0                 	movq	-80(%rbp), %rcx
100006b39: 0f 1f 80 00 00 00 00        	nopl	(%rax)
100006b40: 49 39 cc                    	cmpq	%rcx, %r12
100006b43: 74 1b                       	je	27 <__ZNSt3__16__sortIRZ4mainE3$_0P3RecEEvT0_S5_T_+0x3b0>
100006b45: 0f 2e 09                    	ucomiss	(%rcx), %xmm1
100006b48: 48 8d 49 f0                 	leaq	-16(%rcx), %rcx
100006b4c: 76 f2                       	jbe	-14 <__ZNSt3__16__sortIRZ4mainE3$_0P3RecEEvT0_S5_T_+0x390>
100006b4e: e9 3d 01 00 00              	jmp	317 <__ZNSt3__16__sortIRZ4mainE3$_0P3RecEEvT0_S5_T_+0x4e0>
100006b53: 66 2e 0f 1f 84 00 00 00 00 00       	nopw	%cs:(%rax,%rax)
100006b5d: 0f 1f 00                    	nopl	(%rax)
100006b60: 49 8d 44 24 10              	leaq	16(%r12), %rax
100006b65: f3 41 0f 10 08              	movss	(%r8), %xmm1
100006b6a: 0f 2e c8                    	ucomiss	%xmm0, %xmm1
100006b6d: 77 57                       	ja	87 <__ZNSt3__16__sortIRZ4mainE3$_0P3RecEEvT0_S5_T_+0x416>
100006b6f: 4c 39 c0                    	cmpq	%r8, %rax
100006b72: 0f 84 fb 06 00 00           	je	1787 <__ZNSt3__16__sortIRZ4mainE3$_0P3RecEEvT0_S5_T_+0xac3>
100006b78: 49 8d 44 24 20              	leaq	32(%r12), %rax
100006b7d: 0f 1f 00                    	nopl	(%rax)
100006b80: f3 0f 10 48 f0              	movss	-16(%rax), %xmm1
100006b85: 0f 2e c8                    	ucomiss	%xmm0, %xmm1
100006b88: 77 0e                       	ja	14 <__ZNSt3__16__sortIRZ4mainE3$_0P3RecEEvT0_S5_T_+0x3e8>
100006b8a: 48 83 c0 10                 	addq	$16, %rax
100006b8e: 49 39 c6                    	cmpq	%rax, %r14
100006b91: 75 ed                       	jne	-19 <__ZNSt3__16__sortIRZ4mainE3$_0P3RecEEvT0_S5_T_+0x3d0>
100006b93: e9 db 06 00 00              	jmp	1755 <__ZNSt3__16__sortIRZ4mainE3$_0P3RecEEvT0_S5_T_+0xac3>
100006b98: 48 8b 48 f0                 	movq	-16(%rax), %rcx
100006b9c: 48 8b 50 f8                 	movq	-8(%rax), %rdx
100006ba0: 48 89 55 d0                 	movq	%rdx, -48(%rbp)
100006ba4: 48 89 4d c8                 	movq	%rcx, -56(%rbp)
100006ba8: 49 8b 08                    	movq	(%r8), %rcx
100006bab: 49 8b 50 08                 	movq	8(%r8), %rdx
100006baf: 48 89 50 f8                 	movq	%rdx, -8(%rax)
100006bb3: 48 89 48 f0                 	movq	%rcx, -16(%rax)
100006bb7: 48 8b 4d c8                 	movq	-56(%rbp), %rcx
100006bbb: 48 8b 55 d0                 	movq	-48(%rbp), %rdx
100006bbf: 49 89 50 08                 	movq	%rdx, 8(%r8)
100006bc3: 49 89 08                    	movq	%rcx, (%r8)
100006bc6: 4c 39 c0                    	cmpq	%r8, %rax
100006bc9: 0f 84 a4 06 00 00           	je	1700 <__ZNSt3__16__sortIRZ4mainE3$_0P3RecEEvT0_S5_T_+0xac3>
100006bcf: 4c 89 c1                    	movq	%r8, %rcx
100006bd2: 66 2e 0f 1f 84 00 00 00 00 00       	nopw	%cs:(%rax,%rax)
100006bdc: 0f 1f 40 00                 	nopl	(%rax)
100006be0: f3 41 0f 10 04 24           	movss	(%r12), %xmm0
100006be6: 48 83 c0 f0                 	addq	$-16, %rax
100006bea: 48 89 c2                    	movq	%rax, %rdx
100006bed: 0f 1f 00                    	nopl	(%rax)
100006bf0: f3 0f 10 4a 10              	movss	16(%rdx), %xmm1
100006bf5: 48 83 c2 10                 	addq	$16, %rdx
100006bf9: 0f 2e c8                    	ucomiss	%xmm0, %xmm1
100006bfc: 76 f2                       	jbe	-14 <__ZNSt3__16__sortIRZ4mainE3$_0P3RecEEvT0_S5_T_+0x440>
100006bfe: 48 8d 42 10                 	leaq	16(%rdx), %rax
100006c02: 66 2e 0f 1f 84 00 00 00 00 00       	nopw	%cs:(%rax,%rax)
100006c0c: 0f 1f 40 00                 	nopl	(%rax)
100006c10: f3 0f 10 49 f0              	movss	-16(%rcx), %xmm1
100006c15: 48 83 c1 f0                 	addq	$-16, %rcx
100006c19: 0f 2e c8                    	ucomiss	%xmm0, %xmm1
100006c1c: 77 f2                       	ja	-14 <__ZNSt3__16__sortIRZ4mainE3$_0P3RecEEvT0_S5_T_+0x460>
100006c1e: 48 39 ca                    	cmpq	%rcx, %rdx
100006c21: 73 3d                       	jae	61 <__ZNSt3__16__sortIRZ4mainE3$_0P3RecEEvT0_S5_T_+0x4b0>
100006c23: 48 8b 32                    	movq	(%rdx), %rsi
100006c26: 48 8b 7a 08                 	movq	8(%rdx), %rdi
100006c2a: 48 89 7d d0                 	movq	%rdi, -48(%rbp)
100006c2e: 48 89 75 c8                 	movq	%rsi, -56(%rbp)
100006c32: 48 8b 31                    	movq	(%rcx), %rsi
100006c35: 48 8b 79 08                 	movq	8(%rcx), %rdi
100006c39: 48 89 7a 08                 	movq	%rdi, 8(%rdx)
100006c3d: 48 89 32                    	movq	%rsi, (%rdx)
100006c40: 48 8b 55 c8                 	movq	-56(%rbp), %rdx
100006c44: 48 8b 75 d0                 	movq	-48(%rbp), %rsi
100006c48: 48 89 71 08                 	movq	%rsi, 8(%rcx)
100006c4c: 48 89 11                    	movq	%rdx, (%rcx)
100006c4f: eb 8f                       	jmp	-113 <__ZNSt3__16__sortIRZ4mainE3$_0P3RecEEvT0_S5_T_+0x430>
100006c51: 66 2e 0f 1f 84 00 00 00 00 00       	nopw	%cs:(%rax,%rax)
100006c5b: 0f 1f 44 00 00              	nopl	(%rax,%rax)
100006c60: 49 89 d4                    	movq	%rdx, %r12
100006c63: e9 75 fb ff ff              	jmp	-1163 <__ZNSt3__16__sortIRZ4mainE3$_0P3RecEEvT0_S5_T_+0x2d>
100006c68: 83 c0 03                    	addl	$3, %eax
100006c6b: f3 41 0f 10 04 24           	movss	(%r12), %xmm0
100006c71: f3 41 0f 10 4d 00           	movss	(%r13), %xmm1
100006c77: 0f 2e c8                    	ucomiss	%xmm0, %xmm1
100006c7a: 0f 86 b5 fe ff ff           	jbe	-331 <__ZNSt3__16__sortIRZ4mainE3$_0P3RecEEvT0_S5_T_+0x385>
100006c80: eb 46                       	jmp	70 <__ZNSt3__16__sortIRZ4mainE3$_0P3RecEEvT0_S5_T_+0x518>
100006c82: 66 2e 0f 1f 84 00 00 00 00 00       	nopw	%cs:(%rax,%rax)
100006c8c: 0f 1f 40 00                 	nopl	(%rax)
100006c90: 49 8b 14 24                 	movq	(%r12), %rdx
100006c94: 49 8b 74 24 08              	movq	8(%r12), %rsi
100006c99: 48 89 75 d0                 	movq	%rsi, -48(%rbp)
100006c9d: 48 89 55 c8                 	movq	%rdx, -56(%rbp)
100006ca1: 48 8b 51 10                 	movq	16(%rcx), %rdx
100006ca5: 48 8b 71 18                 	movq	24(%rcx), %rsi
100006ca9: 49 89 74 24 08              	movq	%rsi, 8(%r12)
100006cae: 49 89 14 24                 	movq	%rdx, (%r12)
100006cb2: 48 8b 55 c8                 	movq	-56(%rbp), %rdx
100006cb6: 48 8b 75 d0                 	movq	-48(%rbp), %rsi
100006cba: 48 89 71 18                 	movq	%rsi, 24(%rcx)
100006cbe: 48 89 51 10                 	movq	%rdx, 16(%rcx)
100006cc2: 4c 8d 41 10                 	leaq	16(%rcx), %r8
100006cc6: ff c0                       	incl	%eax
100006cc8: 49 8d 5c 24 10              	leaq	16(%r12), %rbx
100006ccd: 4c 39 c3                    	cmpq	%r8, %rbx
100006cd0: 0f 83 7d 00 00 00           	jae	125 <__ZNSt3__16__sortIRZ4mainE3$_0P3RecEEvT0_S5_T_+0x5a3>
100006cd6: 66 2e 0f 1f 84 00 00 00 00 00       	nopw	%cs:(%rax,%rax)
100006ce0: f3 41 0f 10 45 00           	movss	(%r13), %xmm0
100006ce6: 48 83 c3 f0                 	addq	$-16, %rbx
100006cea: 48 89 da                    	movq	%rbx, %rdx
100006ced: 0f 1f 00                    	nopl	(%rax)
100006cf0: 0f 2e 42 10                 	ucomiss	16(%rdx), %xmm0
100006cf4: 48 8d 52 10                 	leaq	16(%rdx), %rdx
100006cf8: 77 f6                       	ja	-10 <__ZNSt3__16__sortIRZ4mainE3$_0P3RecEEvT0_S5_T_+0x540>
100006cfa: 48 8d 5a 10                 	leaq	16(%rdx), %rbx
100006cfe: 66 90                       	nop
100006d00: 41 0f 2e 40 f0              	ucomiss	-16(%r8), %xmm0
100006d05: 4d 8d 40 f0                 	leaq	-16(%r8), %r8
100006d09: 76 f5                       	jbe	-11 <__ZNSt3__16__sortIRZ4mainE3$_0P3RecEEvT0_S5_T_+0x550>
100006d0b: 4c 39 c2                    	cmpq	%r8, %rdx
100006d0e: 77 40                       	ja	64 <__ZNSt3__16__sortIRZ4mainE3$_0P3RecEEvT0_S5_T_+0x5a0>
100006d10: 48 8b 32                    	movq	(%rdx), %rsi
100006d13: 48 8b 7a 08                 	movq	8(%rdx), %rdi
100006d17: 48 89 7d d0                 	movq	%rdi, -48(%rbp)
100006d1b: 48 89 75 c8                 	movq	%rsi, -56(%rbp)
100006d1f: 49 8b 30                    	movq	(%r8), %rsi
100006d22: 49 8b 78 08                 	movq	8(%r8), %rdi
100006d26: 48 89 7a 08                 	movq	%rdi, 8(%rdx)
100006d2a: 48 89 32                    	movq	%rsi, (%rdx)
100006d2d: 48 8b 75 c8                 	movq	-56(%rbp), %rsi
100006d31: 48 8b 7d d0                 	movq	-48(%rbp), %rdi
100006d35: 49 89 78 08                 	movq	%rdi, 8(%r8)
100006d39: 49 89 30                    	movq	%rsi, (%r8)
100006d3c: ff c0                       	incl	%eax
100006d3e: 49 39 d5                    	cmpq	%rdx, %r13
100006d41: 4d 0f 44 e8                 	cmoveq	%r8, %r13
100006d45: eb 99                       	jmp	-103 <__ZNSt3__16__sortIRZ4mainE3$_0P3RecEEvT0_S5_T_+0x530>
100006d47: 66 0f 1f 84 00 00 00 00 00  	nopw	(%rax,%rax)
100006d50: 48 89 d3                    	movq	%rdx, %rbx
100006d53: 4c 39 eb                    	cmpq	%r13, %rbx
100006d56: 74 3b                       	je	59 <__ZNSt3__16__sortIRZ4mainE3$_0P3RecEEvT0_S5_T_+0x5e3>
100006d58: f3 0f 10 03                 	movss	(%rbx), %xmm0
100006d5c: 41 0f 2e 45 00              	ucomiss	(%r13), %xmm0
100006d61: 76 30                       	jbe	48 <__ZNSt3__16__sortIRZ4mainE3$_0P3RecEEvT0_S5_T_+0x5e3>
100006d63: 48 8b 0b                    	movq	(%rbx), %rcx
100006d66: 48 8b 53 08                 	movq	8(%rbx), %rdx
100006d6a: 48 89 55 d0                 	movq	%rdx, -48(%rbp)
100006d6e: 48 89 4d c8                 	movq	%rcx, -56(%rbp)
100006d72: 49 8b 4d 00                 	movq	(%r13), %rcx
100006d76: 49 8b 55 08                 	movq	8(%r13), %rdx
100006d7a: 48 89 53 08                 	movq	%rdx, 8(%rbx)
100006d7e: 48 89 0b                    	movq	%rcx, (%rbx)
100006d81: 48 8b 4d c8                 	movq	-56(%rbp), %rcx
100006d85: 48 8b 55 d0                 	movq	-48(%rbp), %rdx
100006d89: 49 89 55 08                 	movq	%rdx, 8(%r13)
100006d8d: 49 89 4d 00                 	movq	%rcx, (%r13)
100006d91: ff c0                       	incl	%eax
100006d93: 85 c0                       	testl	%eax, %eax
100006d95: 75 2e                       	jne	46 <__ZNSt3__16__sortIRZ4mainE3$_0P3RecEEvT0_S5_T_+0x615>
100006d97: 4c 89 e7                    	movq	%r12, %rdi
100006d9a: 48 89 de                    	movq	%rbx, %rsi
100006d9d: e8 ee 06 00 00              	callq	1774 <__ZNSt3__127__insertion_sort_incompleteIRZ4mainE3$_0P3RecEEbT0_S5_T_>
100006da2: 41 89 c5                    	movl	%eax, %r13d
100006da5: 4c 8d 7b 10                 	leaq	16(%rbx), %r15
100006da9: 4c 89 ff                    	movq	%r15, %rdi
100006dac: 4c 89 f6                    	movq	%r14, %rsi
100006daf: e8 dc 06 00 00              	callq	1756 <__ZNSt3__127__insertion_sort_incompleteIRZ4mainE3$_0P3RecEEbT0_S5_T_>
100006db4: 84 c0                       	testb	%al, %al
100006db6: 75 4d                       	jne	77 <__ZNSt3__16__sortIRZ4mainE3$_0P3RecEEvT0_S5_T_+0x655>
100006db8: 45 84 ed                    	testb	%r13b, %r13b
100006dbb: 4c 8b 45 c0                 	movq	-64(%rbp), %r8
100006dbf: 0f 85 15 fa ff ff           	jne	-1515 <__ZNSt3__16__sortIRZ4mainE3$_0P3RecEEvT0_S5_T_+0x2a>
100006dc5: 48 89 d8                    	movq	%rbx, %rax
100006dc8: 4c 29 e0                    	subq	%r12, %rax
100006dcb: 4c 89 f1                    	movq	%r14, %rcx
100006dce: 48 29 d9                    	subq	%rbx, %rcx
100006dd1: 48 39 c8                    	cmpq	%rcx, %rax
100006dd4: 7d 1b                       	jge	27 <__ZNSt3__16__sortIRZ4mainE3$_0P3RecEEvT0_S5_T_+0x641>
100006dd6: 4c 89 e7                    	movq	%r12, %rdi
100006dd9: 48 89 de                    	movq	%rbx, %rsi
100006ddc: e8 cf f9 ff ff              	callq	-1585 <__ZNSt3__16__sortIRZ4mainE3$_0P3RecEEvT0_S5_T_>
100006de1: 4c 8b 45 c0                 	movq	-64(%rbp), %r8
100006de5: 48 83 c3 10                 	addq	$16, %rbx
100006de9: 49 89 df                    	movq	%rbx, %r15
100006dec: e9 e9 f9 ff ff              	jmp	-1559 <__ZNSt3__16__sortIRZ4mainE3$_0P3RecEEvT0_S5_T_+0x2a>
100006df1: 48 8d 7b 10                 	leaq	16(%rbx), %rdi
100006df5: 4c 89 f6                    	movq	%r14, %rsi
100006df8: e8 b3 f9 ff ff              	callq	-1613 <__ZNSt3__16__sortIRZ4mainE3$_0P3RecEEvT0_S5_T_>
100006dfd: 49 89 de                    	movq	%rbx, %r14
100006e00: e9 c2 f9 ff ff              	jmp	-1598 <__ZNSt3__16__sortIRZ4mainE3$_0P3RecEEvT0_S5_T_+0x17>
100006e05: 49 89 de                    	movq	%rbx, %r14
100006e08: 45 84 ed                    	testb	%r13b, %r13b
100006e0b: 0f 84 b6 f9 ff ff           	je	-1610 <__ZNSt3__16__sortIRZ4mainE3$_0P3RecEEvT0_S5_T_+0x17>
100006e11: e9 5d 04 00 00              	jmp	1117 <__ZNSt3__16__sortIRZ4mainE3$_0P3RecEEvT0_S5_T_+0xac3>
100006e16: 48 8d 0d 67 04 00 00        	leaq	1127(%rip), %rcx
100006e1d: 48 63 04 81                 	movslq	(%rcx,%rax,4), %rax
100006e21: 48 01 c8                    	addq	%rcx, %rax
100006e24: ff e0                       	jmpq	*%rax
100006e26: f3 41 0f 10 04 24           	movss	(%r12), %xmm0
100006e2c: 41 0f 2e 00                 	ucomiss	(%r8), %xmm0
100006e30: 0f 87 f1 01 00 00           	ja	497 <__ZNSt3__16__sortIRZ4mainE3$_0P3RecEEvT0_S5_T_+0x877>
100006e36: e9 38 04 00 00              	jmp	1080 <__ZNSt3__16__sortIRZ4mainE3$_0P3RecEEvT0_S5_T_+0xac3>
100006e3b: 49 8d 44 24 20              	leaq	32(%r12), %rax
100006e40: 49 8d 4c 24 10              	leaq	16(%r12), %rcx
100006e45: f3 41 0f 10 04 24           	movss	(%r12), %xmm0
100006e4b: f3 41 0f 10 54 24 10        	movss	16(%r12), %xmm2
100006e52: 0f 2e c2                    	ucomiss	%xmm2, %xmm0
100006e55: f3 41 0f 10 4c 24 20        	movss	32(%r12), %xmm1
100006e5c: 76 2f                       	jbe	47 <__ZNSt3__16__sortIRZ4mainE3$_0P3RecEEvT0_S5_T_+0x6dd>
100006e5e: 0f 2e d1                    	ucomiss	%xmm1, %xmm2
100006e61: 0f 86 96 00 00 00           	jbe	150 <__ZNSt3__16__sortIRZ4mainE3$_0P3RecEEvT0_S5_T_+0x74d>
100006e67: 49 8b 0c 24                 	movq	(%r12), %rcx
100006e6b: 49 8b 54 24 08              	movq	8(%r12), %rdx
100006e70: 48 89 55 d0                 	movq	%rdx, -48(%rbp)
100006e74: 48 89 4d c8                 	movq	%rcx, -56(%rbp)
100006e78: 48 8b 08                    	movq	(%rax), %rcx
100006e7b: 48 8b 50 08                 	movq	8(%rax), %rdx
100006e7f: 49 89 54 24 08              	movq	%rdx, 8(%r12)
100006e84: 49 89 0c 24                 	movq	%rcx, (%r12)
100006e88: e9 c9 00 00 00              	jmp	201 <__ZNSt3__16__sortIRZ4mainE3$_0P3RecEEvT0_S5_T_+0x7a6>
100006e8d: 0f 2e d1                    	ucomiss	%xmm1, %xmm2
100006e90: 0f 86 cf 00 00 00           	jbe	207 <__ZNSt3__16__sortIRZ4mainE3$_0P3RecEEvT0_S5_T_+0x7b5>
100006e96: 48 8b 11                    	movq	(%rcx), %rdx
100006e99: 48 8b 71 08                 	movq	8(%rcx), %rsi
100006e9d: 48 89 75 d0                 	movq	%rsi, -48(%rbp)
100006ea1: 48 89 55 c8                 	movq	%rdx, -56(%rbp)
100006ea5: 48 8b 10                    	movq	(%rax), %rdx
100006ea8: 48 8b 70 08                 	movq	8(%rax), %rsi
100006eac: 48 89 71 08                 	movq	%rsi, 8(%rcx)
100006eb0: 48 89 11                    	movq	%rdx, (%rcx)
100006eb3: 48 8b 55 c8                 	movq	-56(%rbp), %rdx
100006eb7: 48 8b 75 d0                 	movq	-48(%rbp), %rsi
100006ebb: 48 89 70 08                 	movq	%rsi, 8(%rax)
100006ebf: 48 89 10                    	movq	%rdx, (%rax)
100006ec2: 0f 2e 01                    	ucomiss	(%rcx), %xmm0
100006ec5: 0f 86 9a 00 00 00           	jbe	154 <__ZNSt3__16__sortIRZ4mainE3$_0P3RecEEvT0_S5_T_+0x7b5>
100006ecb: 49 8b 14 24                 	movq	(%r12), %rdx
100006ecf: 49 8b 74 24 08              	movq	8(%r12), %rsi
100006ed4: 48 89 75 d0                 	movq	%rsi, -48(%rbp)
100006ed8: 48 89 55 c8                 	movq	%rdx, -56(%rbp)
100006edc: 48 8b 11                    	movq	(%rcx), %rdx
100006edf: 48 8b 71 08                 	movq	8(%rcx), %rsi
100006ee3: 49 89 74 24 08              	movq	%rsi, 8(%r12)
100006ee8: 49 89 14 24                 	movq	%rdx, (%r12)
100006eec: 48 8b 55 c8                 	movq	-56(%rbp), %rdx
100006ef0: 48 8b 75 d0                 	movq	-48(%rbp), %rsi
100006ef4: 48 89 71 08                 	movq	%rsi, 8(%rcx)
100006ef8: 48 89 11                    	movq	%rdx, (%rcx)
100006efb: eb 68                       	jmp	104 <__ZNSt3__16__sortIRZ4mainE3$_0P3RecEEvT0_S5_T_+0x7b5>
100006efd: 49 8b 14 24                 	movq	(%r12), %rdx
100006f01: 49 8b 74 24 08              	movq	8(%r12), %rsi
100006f06: 48 89 75 d0                 	movq	%rsi, -48(%rbp)
100006f0a: 48 89 55 c8                 	movq	%rdx, -56(%rbp)
100006f0e: 48 8b 11                    	movq	(%rcx), %rdx
100006f11: 48 8b 71 08                 	movq	8(%rcx), %rsi
100006f15: 49 89 74 24 08              	movq	%rsi, 8(%r12)
100006f1a: 49 89 14 24                 	movq	%rdx, (%r12)
100006f1e: 48 8b 55 c8                 	movq	-56(%rbp), %rdx
100006f22: 48 8b 75 d0                 	movq	-48(%rbp), %rsi
100006f26: 48 89 71 08                 	movq	%rsi, 8(%rcx)
100006f2a: 48 89 11                    	movq	%rdx, (%rcx)
100006f2d: f3 41 0f 10 44 24 10        	movss	16(%r12), %xmm0
100006f34: 0f 2e c1                    	ucomiss	%xmm1, %xmm0
100006f37: 76 2c                       	jbe	44 <__ZNSt3__16__sortIRZ4mainE3$_0P3RecEEvT0_S5_T_+0x7b5>
100006f39: 48 8b 11                    	movq	(%rcx), %rdx
100006f3c: 48 8b 71 08                 	movq	8(%rcx), %rsi
100006f40: 48 89 75 d0                 	movq	%rsi, -48(%rbp)
100006f44: 48 89 55 c8                 	movq	%rdx, -56(%rbp)
100006f48: 48 8b 10                    	movq	(%rax), %rdx
100006f4b: 48 8b 70 08                 	movq	8(%rax), %rsi
100006f4f: 48 89 71 08                 	movq	%rsi, 8(%rcx)
100006f53: 48 89 11                    	movq	%rdx, (%rcx)
100006f56: 48 8b 4d c8                 	movq	-56(%rbp), %rcx
100006f5a: 48 8b 55 d0                 	movq	-48(%rbp), %rdx
100006f5e: 48 89 50 08                 	movq	%rdx, 8(%rax)
100006f62: 48 89 08                    	movq	%rcx, (%rax)
100006f65: 49 8d 54 24 30              	leaq	48(%r12), %rdx
100006f6a: 4c 39 f2                    	cmpq	%r14, %rdx
100006f6d: 0f 84 00 03 00 00           	je	768 <__ZNSt3__16__sortIRZ4mainE3$_0P3RecEEvT0_S5_T_+0xac3>
100006f73: b9 30 00 00 00              	movl	$48, %ecx
100006f78: eb 2c                       	jmp	44 <__ZNSt3__16__sortIRZ4mainE3$_0P3RecEEvT0_S5_T_+0x7f6>
100006f7a: 66 0f 1f 44 00 00           	nopw	(%rax,%rax)
100006f80: 4c 89 e2                    	movq	%r12, %rdx
100006f83: f3 0f 11 02                 	movss	%xmm0, (%rdx)
100006f87: 48 8b 75 c8                 	movq	-56(%rbp), %rsi
100006f8b: 48 89 72 04                 	movq	%rsi, 4(%rdx)
100006f8f: 8b 75 d0                    	movl	-48(%rbp), %esi
100006f92: 89 72 0c                    	movl	%esi, 12(%rdx)
100006f95: 48 8d 50 10                 	leaq	16(%rax), %rdx
100006f99: 48 83 c1 10                 	addq	$16, %rcx
100006f9d: 4c 39 f2                    	cmpq	%r14, %rdx
100006fa0: 0f 84 cd 02 00 00           	je	717 <__ZNSt3__16__sortIRZ4mainE3$_0P3RecEEvT0_S5_T_+0xac3>
100006fa6: f3 0f 10 08                 	movss	(%rax), %xmm1
100006faa: 48 89 d0                    	movq	%rdx, %rax
100006fad: f3 0f 10 02                 	movss	(%rdx), %xmm0
100006fb1: 0f 2e c8                    	ucomiss	%xmm0, %xmm1
100006fb4: 76 df                       	jbe	-33 <__ZNSt3__16__sortIRZ4mainE3$_0P3RecEEvT0_S5_T_+0x7e5>
100006fb6: 8b 50 0c                    	movl	12(%rax), %edx
100006fb9: 89 55 d0                    	movl	%edx, -48(%rbp)
100006fbc: 48 8b 50 04                 	movq	4(%rax), %rdx
100006fc0: 48 89 55 c8                 	movq	%rdx, -56(%rbp)
100006fc4: 48 89 ca                    	movq	%rcx, %rdx
100006fc7: 66 0f 1f 84 00 00 00 00 00  	nopw	(%rax,%rax)
100006fd0: 49 8b 74 14 f0              	movq	-16(%r12,%rdx), %rsi
100006fd5: 49 8b 7c 14 f8              	movq	-8(%r12,%rdx), %rdi
100006fda: 49 89 7c 14 08              	movq	%rdi, 8(%r12,%rdx)
100006fdf: 49 89 34 14                 	movq	%rsi, (%r12,%rdx)
100006fe3: 48 83 fa 10                 	cmpq	$16, %rdx
100006fe7: 74 97                       	je	-105 <__ZNSt3__16__sortIRZ4mainE3$_0P3RecEEvT0_S5_T_+0x7d0>
100006fe9: f3 41 0f 10 4c 14 e0        	movss	-32(%r12,%rdx), %xmm1
100006ff0: 48 83 c2 f0                 	addq	$-16, %rdx
100006ff4: 0f 2e c8                    	ucomiss	%xmm0, %xmm1
100006ff7: 77 d7                       	ja	-41 <__ZNSt3__16__sortIRZ4mainE3$_0P3RecEEvT0_S5_T_+0x820>
100006ff9: 4c 01 e2                    	addq	%r12, %rdx
100006ffc: eb 85                       	jmp	-123 <__ZNSt3__16__sortIRZ4mainE3$_0P3RecEEvT0_S5_T_+0x7d3>
100006ffe: 49 8d 44 24 10              	leaq	16(%r12), %rax
100007003: f3 41 0f 10 0c 24           	movss	(%r12), %xmm1
100007009: f3 41 0f 10 44 24 10        	movss	16(%r12), %xmm0
100007010: 0f 2e c8                    	ucomiss	%xmm0, %xmm1
100007013: f3 41 0f 10 08              	movss	(%r8), %xmm1
100007018: 0f 86 7d 01 00 00           	jbe	381 <__ZNSt3__16__sortIRZ4mainE3$_0P3RecEEvT0_S5_T_+0x9eb>
10000701e: 0f 2e c1                    	ucomiss	%xmm1, %xmm0
100007021: 0f 86 ed 01 00 00           	jbe	493 <__ZNSt3__16__sortIRZ4mainE3$_0P3RecEEvT0_S5_T_+0xa64>
100007027: 49 8b 04 24                 	movq	(%r12), %rax
10000702b: 49 8b 4c 24 08              	movq	8(%r12), %rcx
100007030: 48 89 4d d0                 	movq	%rcx, -48(%rbp)
100007034: 48 89 45 c8                 	movq	%rax, -56(%rbp)
100007038: 49 8b 00                    	movq	(%r8), %rax
10000703b: 49 8b 48 08                 	movq	8(%r8), %rcx
10000703f: 49 89 4c 24 08              	movq	%rcx, 8(%r12)
100007044: 49 89 04 24                 	movq	%rax, (%r12)
100007048: 48 8b 45 c8                 	movq	-56(%rbp), %rax
10000704c: 48 8b 4d d0                 	movq	-48(%rbp), %rcx
100007050: 49 89 48 08                 	movq	%rcx, 8(%r8)
100007054: 49 89 00                    	movq	%rax, (%r8)
100007057: e9 17 02 00 00              	jmp	535 <__ZNSt3__16__sortIRZ4mainE3$_0P3RecEEvT0_S5_T_+0xac3>
10000705c: 49 8d 74 24 10              	leaq	16(%r12), %rsi
100007061: 49 8d 54 24 20              	leaq	32(%r12), %rdx
100007066: 4c 89 e7                    	movq	%r12, %rdi
100007069: 4c 89 c1                    	movq	%r8, %rcx
10000706c: 48 83 c4 28                 	addq	$40, %rsp
100007070: 5b                          	popq	%rbx
100007071: 41 5c                       	popq	%r12
100007073: 41 5d                       	popq	%r13
100007075: 41 5e                       	popq	%r14
100007077: 41 5f                       	popq	%r15
100007079: 5d                          	popq	%rbp
10000707a: e9 21 02 00 00              	jmp	545 <__ZNSt3__17__sort4IRZ4mainE3$_0P3RecEEjT0_S5_S5_S5_T_>
10000707f: 4d 8d 74 24 10              	leaq	16(%r12), %r14
100007084: 4d 8d 7c 24 20              	leaq	32(%r12), %r15
100007089: 49 8d 5c 24 30              	leaq	48(%r12), %rbx
10000708e: 4c 89 e7                    	movq	%r12, %rdi
100007091: 4c 89 f6                    	movq	%r14, %rsi
100007094: 4c 89 fa                    	movq	%r15, %rdx
100007097: 48 89 d9                    	movq	%rbx, %rcx
10000709a: e8 01 02 00 00              	callq	513 <__ZNSt3__17__sort4IRZ4mainE3$_0P3RecEEjT0_S5_S5_S5_T_>
10000709f: 48 8b 55 c0                 	movq	-64(%rbp), %rdx
1000070a3: f3 41 0f 10 44 24 30        	movss	48(%r12), %xmm0
1000070aa: 0f 2e 02                    	ucomiss	(%rdx), %xmm0
1000070ad: 0f 86 c0 01 00 00           	jbe	448 <__ZNSt3__16__sortIRZ4mainE3$_0P3RecEEvT0_S5_T_+0xac3>
1000070b3: 48 8b 03                    	movq	(%rbx), %rax
1000070b6: 48 8b 4b 08                 	movq	8(%rbx), %rcx
1000070ba: 48 89 4d d0                 	movq	%rcx, -48(%rbp)
1000070be: 48 89 45 c8                 	movq	%rax, -56(%rbp)
1000070c2: 48 8b 02                    	movq	(%rdx), %rax
1000070c5: 48 8b 4a 08                 	movq	8(%rdx), %rcx
1000070c9: 48 89 4b 08                 	movq	%rcx, 8(%rbx)
1000070cd: 48 89 03                    	movq	%rax, (%rbx)
1000070d0: 48 8b 45 c8                 	movq	-56(%rbp), %rax
1000070d4: 48 8b 4d d0                 	movq	-48(%rbp), %rcx
1000070d8: 48 89 4a 08                 	movq	%rcx, 8(%rdx)
1000070dc: 48 89 02                    	movq	%rax, (%rdx)
1000070df: f3 41 0f 10 07              	movss	(%r15), %xmm0
1000070e4: 0f 2e 03                    	ucomiss	(%rbx), %xmm0
1000070e7: 0f 86 86 01 00 00           	jbe	390 <__ZNSt3__16__sortIRZ4mainE3$_0P3RecEEvT0_S5_T_+0xac3>
1000070ed: 49 8b 07                    	movq	(%r15), %rax
1000070f0: 49 8b 4f 08                 	movq	8(%r15), %rcx
1000070f4: 48 89 4d d0                 	movq	%rcx, -48(%rbp)
1000070f8: 48 89 45 c8                 	movq	%rax, -56(%rbp)
1000070fc: 48 8b 03                    	movq	(%rbx), %rax
1000070ff: 48 8b 4b 08                 	movq	8(%rbx), %rcx
100007103: 49 89 4f 08                 	movq	%rcx, 8(%r15)
100007107: 49 89 07                    	movq	%rax, (%r15)
10000710a: 48 8b 45 c8                 	movq	-56(%rbp), %rax
10000710e: 48 8b 4d d0                 	movq	-48(%rbp), %rcx
100007112: 48 89 4b 08                 	movq	%rcx, 8(%rbx)
100007116: 48 89 03                    	movq	%rax, (%rbx)
100007119: f3 41 0f 10 06              	movss	(%r14), %xmm0
10000711e: 41 0f 2e 07                 	ucomiss	(%r15), %xmm0
100007122: 0f 86 4b 01 00 00           	jbe	331 <__ZNSt3__16__sortIRZ4mainE3$_0P3RecEEvT0_S5_T_+0xac3>
100007128: 49 8b 06                    	movq	(%r14), %rax
10000712b: 49 8b 4e 08                 	movq	8(%r14), %rcx
10000712f: 48 89 4d d0                 	movq	%rcx, -48(%rbp)
100007133: 48 89 45 c8                 	movq	%rax, -56(%rbp)
100007137: 49 8b 07                    	movq	(%r15), %rax
10000713a: 49 8b 4f 08                 	movq	8(%r15), %rcx
10000713e: 49 89 4e 08                 	movq	%rcx, 8(%r14)
100007142: 49 89 06                    	movq	%rax, (%r14)
100007145: 48 8b 45 c8                 	movq	-56(%rbp), %rax
100007149: 48 8b 4d d0                 	movq	-48(%rbp), %rcx
10000714d: 49 89 4f 08                 	movq	%rcx, 8(%r15)
100007151: 49 89 07                    	movq	%rax, (%r15)
100007154: f3 41 0f 10 04 24           	movss	(%r12), %xmm0
10000715a: 41 0f 2e 44 24 10           	ucomiss	16(%r12), %xmm0
100007160: 0f 86 0d 01 00 00           	jbe	269 <__ZNSt3__16__sortIRZ4mainE3$_0P3RecEEvT0_S5_T_+0xac3>
100007166: 49 8b 04 24                 	movq	(%r12), %rax
10000716a: 49 8b 4c 24 08              	movq	8(%r12), %rcx
10000716f: 48 89 4d d0                 	movq	%rcx, -48(%rbp)
100007173: 48 89 45 c8                 	movq	%rax, -56(%rbp)
100007177: 49 8b 06                    	movq	(%r14), %rax
10000717a: 49 8b 4e 08                 	movq	8(%r14), %rcx
10000717e: 49 89 4c 24 08              	movq	%rcx, 8(%r12)
100007183: 49 89 04 24                 	movq	%rax, (%r12)
100007187: 48 8b 45 c8                 	movq	-56(%rbp), %rax
10000718b: 48 8b 4d d0                 	movq	-48(%rbp), %rcx
10000718f: 49 89 4e 08                 	movq	%rcx, 8(%r14)
100007193: 49 89 06                    	movq	%rax, (%r14)
100007196: e9 d8 00 00 00              	jmp	216 <__ZNSt3__16__sortIRZ4mainE3$_0P3RecEEvT0_S5_T_+0xac3>
10000719b: 0f 2e c1                    	ucomiss	%xmm1, %xmm0
10000719e: 0f 86 cf 00 00 00           	jbe	207 <__ZNSt3__16__sortIRZ4mainE3$_0P3RecEEvT0_S5_T_+0xac3>
1000071a4: 48 8b 08                    	movq	(%rax), %rcx
1000071a7: 48 8b 50 08                 	movq	8(%rax), %rdx
1000071ab: 48 89 55 d0                 	movq	%rdx, -48(%rbp)
1000071af: 48 89 4d c8                 	movq	%rcx, -56(%rbp)
1000071b3: 49 8b 08                    	movq	(%r8), %rcx
1000071b6: 49 8b 50 08                 	movq	8(%r8), %rdx
1000071ba: 48 89 50 08                 	movq	%rdx, 8(%rax)
1000071be: 48 89 08                    	movq	%rcx, (%rax)
1000071c1: 48 8b 4d c8                 	movq	-56(%rbp), %rcx
1000071c5: 48 8b 55 d0                 	movq	-48(%rbp), %rdx
1000071c9: 49 89 50 08                 	movq	%rdx, 8(%r8)
1000071cd: 49 89 08                    	movq	%rcx, (%r8)
1000071d0: f3 41 0f 10 04 24           	movss	(%r12), %xmm0
1000071d6: 41 0f 2e 44 24 10           	ucomiss	16(%r12), %xmm0
1000071dc: 0f 86 91 00 00 00           	jbe	145 <__ZNSt3__16__sortIRZ4mainE3$_0P3RecEEvT0_S5_T_+0xac3>
1000071e2: 49 8b 0c 24                 	movq	(%r12), %rcx
1000071e6: 49 8b 54 24 08              	movq	8(%r12), %rdx
1000071eb: 48 89 55 d0                 	movq	%rdx, -48(%rbp)
1000071ef: 48 89 4d c8                 	movq	%rcx, -56(%rbp)
1000071f3: 48 8b 08                    	movq	(%rax), %rcx
1000071f6: 48 8b 50 08                 	movq	8(%rax), %rdx
1000071fa: 49 89 54 24 08              	movq	%rdx, 8(%r12)
1000071ff: 49 89 0c 24                 	movq	%rcx, (%r12)
100007203: 48 8b 4d c8                 	movq	-56(%rbp), %rcx
100007207: 48 8b 55 d0                 	movq	-48(%rbp), %rdx
10000720b: 48 89 50 08                 	movq	%rdx, 8(%rax)
10000720f: 48 89 08                    	movq	%rcx, (%rax)
100007212: eb 5f                       	jmp	95 <__ZNSt3__16__sortIRZ4mainE3$_0P3RecEEvT0_S5_T_+0xac3>
100007214: 49 8b 0c 24                 	movq	(%r12), %rcx
100007218: 49 8b 54 24 08              	movq	8(%r12), %rdx
10000721d: 48 89 55 d0                 	movq	%rdx, -48(%rbp)
100007221: 48 89 4d c8                 	movq	%rcx, -56(%rbp)
100007225: 48 8b 08                    	movq	(%rax), %rcx
100007228: 48 8b 50 08                 	movq	8(%rax), %rdx
10000722c: 49 89 54 24 08              	movq	%rdx, 8(%r12)
100007231: 49 89 0c 24                 	movq	%rcx, (%r12)
100007235: 48 8b 4d c8                 	movq	-56(%rbp), %rcx
100007239: 48 8b 55 d0                 	movq	-48(%rbp), %rdx
10000723d: 48 89 50 08                 	movq	%rdx, 8(%rax)
100007241: 48 89 08                    	movq	%rcx, (%rax)
100007244: f3 41 0f 10 44 24 10        	movss	16(%r12), %xmm0
10000724b: 41 0f 2e 00                 	ucomiss	(%r8), %xmm0
10000724f: 76 22                       	jbe	34 <__ZNSt3__16__sortIRZ4mainE3$_0P3RecEEvT0_S5_T_+0xac3>
100007251: 48 8b 08                    	movq	(%rax), %rcx
100007254: 48 8b 50 08                 	movq	8(%rax), %rdx
100007258: 48 89 55 d0                 	movq	%rdx, -48(%rbp)
10000725c: 48 89 4d c8                 	movq	%rcx, -56(%rbp)
100007260: 49 8b 08                    	movq	(%r8), %rcx
100007263: 49 8b 50 08                 	movq	8(%r8), %rdx
100007267: 48 89 50 08                 	movq	%rdx, 8(%rax)
10000726b: 48 89 08                    	movq	%rcx, (%rax)
10000726e: e9 d5 fd ff ff              	jmp	-555 <__ZNSt3__16__sortIRZ4mainE3$_0P3RecEEvT0_S5_T_+0x898>
100007273: 48 83 c4 28                 	addq	$40, %rsp
100007277: 5b                          	popq	%rbx
100007278: 41 5c                       	popq	%r12
10000727a: 41 5d                       	popq	%r13
10000727c: 41 5e                       	popq	%r14
10000727e: 41 5f                       	popq	%r15
100007280: 5d                          	popq	%rbp
100007281: c3                          	retq
100007282: 66 90                       	nop
100007284: ef                          	outl	%eax, %dx
100007285: ff ff                       	<unknown>
100007287: ff ef                       	<unknown>
100007289: ff ff                       	<unknown>
10000728b: ff a2 fb ff ff 7a           	jmpq	*2063597563(%rdx)
100007291: fd                          	std
100007292: ff ff                       	<unknown>
100007294: d8 fd                       	fdivr	%st(5), %st
100007296: ff ff                       	<unknown>
100007298: fb                          	sti
100007299: fd                          	std
10000729a: ff ff                       	<unknown>
10000729c: 0f 1f 40 00                 	nopl	(%rax)

00000001000072a0 __ZNSt3__17__sort4IRZ4mainE3$_0P3RecEEjT0_S5_S5_S5_T_:
1000072a0: 55                          	pushq	%rbp
1000072a1: 48 89 e5                    	movq	%rsp, %rbp
1000072a4: f3 0f 10 06                 	movss	(%rsi), %xmm0
1000072a8: f3 0f 10 0f                 	movss	(%rdi), %xmm1
1000072ac: 0f 2e c8                    	ucomiss	%xmm0, %xmm1
1000072af: f3 0f 10 0a                 	movss	(%rdx), %xmm1
1000072b3: 76 3f                       	jbe	63 <__ZNSt3__17__sort4IRZ4mainE3$_0P3RecEEjT0_S5_S5_S5_T_+0x54>
1000072b5: 0f 2e c1                    	ucomiss	%xmm1, %xmm0
1000072b8: 0f 86 ad 00 00 00           	jbe	173 <__ZNSt3__17__sort4IRZ4mainE3$_0P3RecEEjT0_S5_S5_S5_T_+0xcb>
1000072be: 4c 8b 07                    	movq	(%rdi), %r8
1000072c1: 48 8b 47 08                 	movq	8(%rdi), %rax
1000072c5: 48 89 45 f8                 	movq	%rax, -8(%rbp)
1000072c9: 4c 89 45 f0                 	movq	%r8, -16(%rbp)
1000072cd: 4c 8b 02                    	movq	(%rdx), %r8
1000072d0: 48 8b 42 08                 	movq	8(%rdx), %rax
1000072d4: 48 89 47 08                 	movq	%rax, 8(%rdi)
1000072d8: 4c 89 07                    	movq	%r8, (%rdi)
1000072db: 4c 8b 45 f0                 	movq	-16(%rbp), %r8
1000072df: 48 8b 45 f8                 	movq	-8(%rbp), %rax
1000072e3: 48 89 42 08                 	movq	%rax, 8(%rdx)
1000072e7: 4c 89 02                    	movq	%r8, (%rdx)
1000072ea: b8 01 00 00 00              	movl	$1, %eax
1000072ef: e9 e2 00 00 00              	jmp	226 <__ZNSt3__17__sort4IRZ4mainE3$_0P3RecEEjT0_S5_S5_S5_T_+0x136>
1000072f4: 31 c0                       	xorl	%eax, %eax
1000072f6: 0f 2e c1                    	ucomiss	%xmm1, %xmm0
1000072f9: 0f 86 d7 00 00 00           	jbe	215 <__ZNSt3__17__sort4IRZ4mainE3$_0P3RecEEjT0_S5_S5_S5_T_+0x136>
1000072ff: 4c 8b 06                    	movq	(%rsi), %r8
100007302: 48 8b 46 08                 	movq	8(%rsi), %rax
100007306: 48 89 45 f8                 	movq	%rax, -8(%rbp)
10000730a: 4c 89 45 f0                 	movq	%r8, -16(%rbp)
10000730e: 4c 8b 02                    	movq	(%rdx), %r8
100007311: 48 8b 42 08                 	movq	8(%rdx), %rax
100007315: 48 89 46 08                 	movq	%rax, 8(%rsi)
100007319: 4c 89 06                    	movq	%r8, (%rsi)
10000731c: 4c 8b 45 f0                 	movq	-16(%rbp), %r8
100007320: 48 8b 45 f8                 	movq	-8(%rbp), %rax
100007324: 48 89 42 08                 	movq	%rax, 8(%rdx)
100007328: 4c 89 02                    	movq	%r8, (%rdx)
10000732b: f3 0f 10 07                 	movss	(%rdi), %xmm0
10000732f: b8 01 00 00 00              	movl	$1, %eax
100007334: 0f 2e 06                    	ucomiss	(%rsi), %xmm0
100007337: 0f 86 99 00 00 00           	jbe	153 <__ZNSt3__17__sort4IRZ4mainE3$_0P3RecEEjT0_S5_S5_S5_T_+0x136>
10000733d: 4c 8b 07                    	movq	(%rdi), %r8
100007340: 48 8b 47 08                 	movq	8(%rdi), %rax
100007344: 48 89 45 f8                 	movq	%rax, -8(%rbp)
100007348: 4c 89 45 f0                 	movq	%r8, -16(%rbp)
10000734c: 4c 8b 06                    	movq	(%rsi), %r8
10000734f: 48 8b 46 08                 	movq	8(%rsi), %rax
100007353: 48 89 47 08                 	movq	%rax, 8(%rdi)
100007357: 4c 89 07                    	movq	%r8, (%rdi)
10000735a: 4c 8b 45 f0                 	movq	-16(%rbp), %r8
10000735e: 48 8b 45 f8                 	movq	-8(%rbp), %rax
100007362: 48 89 46 08                 	movq	%rax, 8(%rsi)
100007366: 4c 89 06                    	movq	%r8, (%rsi)
100007369: eb 66                       	jmp	102 <__ZNSt3__17__sort4IRZ4mainE3$_0P3RecEEjT0_S5_S5_S5_T_+0x131>
10000736b: 4c 8b 07                    	movq	(%rdi), %r8
10000736e: 48 8b 47 08                 	movq	8(%rdi), %rax
100007372: 48 89 45 f8                 	movq	%rax, -8(%rbp)
100007376: 4c 89 45 f0                 	movq	%r8, -16(%rbp)
10000737a: 4c 8b 06                    	movq	(%rsi), %r8
10000737d: 48 8b 46 08                 	movq	8(%rsi), %rax
100007381: 48 89 47 08                 	movq	%rax, 8(%rdi)
100007385: 4c 89 07                    	movq	%r8, (%rdi)
100007388: 4c 8b 45 f0                 	movq	-16(%rbp), %r8
10000738c: 48 8b 45 f8                 	movq	-8(%rbp), %rax
100007390: 48 89 46 08                 	movq	%rax, 8(%rsi)
100007394: 4c 89 06                    	movq	%r8, (%rsi)
100007397: f3 0f 10 06                 	movss	(%rsi), %xmm0
10000739b: b8 01 00 00 00              	movl	$1, %eax
1000073a0: 0f 2e 02                    	ucomiss	(%rdx), %xmm0
1000073a3: 76 31                       	jbe	49 <__ZNSt3__17__sort4IRZ4mainE3$_0P3RecEEjT0_S5_S5_S5_T_+0x136>
1000073a5: 4c 8b 06                    	movq	(%rsi), %r8
1000073a8: 48 8b 46 08                 	movq	8(%rsi), %rax
1000073ac: 48 89 45 f8                 	movq	%rax, -8(%rbp)
1000073b0: 4c 89 45 f0                 	movq	%r8, -16(%rbp)
1000073b4: 4c 8b 02                    	movq	(%rdx), %r8
1000073b7: 48 8b 42 08                 	movq	8(%rdx), %rax
1000073bb: 48 89 46 08                 	movq	%rax, 8(%rsi)
1000073bf: 4c 89 06                    	movq	%r8, (%rsi)
1000073c2: 4c 8b 45 f0                 	movq	-16(%rbp), %r8
1000073c6: 48 8b 45 f8                 	movq	-8(%rbp), %rax
1000073ca: 48 89 42 08                 	movq	%rax, 8(%rdx)
1000073ce: 4c 89 02                    	movq	%r8, (%rdx)
1000073d1: b8 02 00 00 00              	movl	$2, %eax
1000073d6: f3 0f 10 02                 	movss	(%rdx), %xmm0
1000073da: 0f 2e 01                    	ucomiss	(%rcx), %xmm0
1000073dd: 0f 86 99 00 00 00           	jbe	153 <__ZNSt3__17__sort4IRZ4mainE3$_0P3RecEEjT0_S5_S5_S5_T_+0x1dc>
1000073e3: 4c 8b 02                    	movq	(%rdx), %r8
1000073e6: 4c 8b 4a 08                 	movq	8(%rdx), %r9
1000073ea: 4c 89 4d f8                 	movq	%r9, -8(%rbp)
1000073ee: 4c 89 45 f0                 	movq	%r8, -16(%rbp)
1000073f2: 4c 8b 01                    	movq	(%rcx), %r8
1000073f5: 4c 8b 49 08                 	movq	8(%rcx), %r9
1000073f9: 4c 89 4a 08                 	movq	%r9, 8(%rdx)
1000073fd: 4c 89 02                    	movq	%r8, (%rdx)
100007400: 4c 8b 45 f0                 	movq	-16(%rbp), %r8
100007404: 4c 8b 4d f8                 	movq	-8(%rbp), %r9
100007408: 4c 89 49 08                 	movq	%r9, 8(%rcx)
10000740c: 4c 89 01                    	movq	%r8, (%rcx)
10000740f: f3 0f 10 06                 	movss	(%rsi), %xmm0
100007413: 0f 2e 02                    	ucomiss	(%rdx), %xmm0
100007416: 76 66                       	jbe	102 <__ZNSt3__17__sort4IRZ4mainE3$_0P3RecEEjT0_S5_S5_S5_T_+0x1de>
100007418: 4c 8b 06                    	movq	(%rsi), %r8
10000741b: 48 8b 4e 08                 	movq	8(%rsi), %rcx
10000741f: 48 89 4d f8                 	movq	%rcx, -8(%rbp)
100007423: 4c 89 45 f0                 	movq	%r8, -16(%rbp)
100007427: 4c 8b 02                    	movq	(%rdx), %r8
10000742a: 48 8b 4a 08                 	movq	8(%rdx), %rcx
10000742e: 48 89 4e 08                 	movq	%rcx, 8(%rsi)
100007432: 4c 89 06                    	movq	%r8, (%rsi)
100007435: 4c 8b 45 f0                 	movq	-16(%rbp), %r8
100007439: 48 8b 4d f8                 	movq	-8(%rbp), %rcx
10000743d: 48 89 4a 08                 	movq	%rcx, 8(%rdx)
100007441: 4c 89 02                    	movq	%r8, (%rdx)
100007444: f3 0f 10 07                 	movss	(%rdi), %xmm0
100007448: 0f 2e 06                    	ucomiss	(%rsi), %xmm0
10000744b: 76 35                       	jbe	53 <__ZNSt3__17__sort4IRZ4mainE3$_0P3RecEEjT0_S5_S5_S5_T_+0x1e2>
10000744d: 48 8b 0f                    	movq	(%rdi), %rcx
100007450: 48 8b 57 08                 	movq	8(%rdi), %rdx
100007454: 48 89 55 f8                 	movq	%rdx, -8(%rbp)
100007458: 48 89 4d f0                 	movq	%rcx, -16(%rbp)
10000745c: 48 8b 0e                    	movq	(%rsi), %rcx
10000745f: 48 8b 56 08                 	movq	8(%rsi), %rdx
100007463: 48 89 57 08                 	movq	%rdx, 8(%rdi)
100007467: 48 89 0f                    	movq	%rcx, (%rdi)
10000746a: 48 8b 4d f0                 	movq	-16(%rbp), %rcx
10000746e: 48 8b 55 f8                 	movq	-8(%rbp), %rdx
100007472: 48 89 56 08                 	movq	%rdx, 8(%rsi)
100007476: 48 89 0e                    	movq	%rcx, (%rsi)
100007479: 83 c0 03                    	addl	$3, %eax
10000747c: 5d                          	popq	%rbp
10000747d: c3                          	retq
10000747e: ff c0                       	incl	%eax
100007480: 5d                          	popq	%rbp
100007481: c3                          	retq
100007482: 83 c0 02                    	addl	$2, %eax
100007485: 5d                          	popq	%rbp
100007486: c3                          	retq
100007487: 66 0f 1f 84 00 00 00 00 00  	nopw	(%rax,%rax)

0000000100007490 __ZNSt3__127__insertion_sort_incompleteIRZ4mainE3$_0P3RecEEbT0_S5_T_:
100007490: 55                          	pushq	%rbp
100007491: 48 89 e5                    	movq	%rsp, %rbp
100007494: 41 57                       	pushq	%r15
100007496: 41 56                       	pushq	%r14
100007498: 41 55                       	pushq	%r13
10000749a: 41 54                       	pushq	%r12
10000749c: 53                          	pushq	%rbx
10000749d: 48 83 ec 18                 	subq	$24, %rsp
1000074a1: 49 89 f7                    	movq	%rsi, %r15
1000074a4: 48 89 fb                    	movq	%rdi, %rbx
1000074a7: 48 89 f0                    	movq	%rsi, %rax
1000074aa: 48 29 f8                    	subq	%rdi, %rax
1000074ad: 48 c1 f8 04                 	sarq	$4, %rax
1000074b1: 41 b6 01                    	movb	$1, %r14b
1000074b4: 48 83 f8 05                 	cmpq	$5, %rax
1000074b8: 0f 87 9f 00 00 00           	ja	159 <__ZNSt3__127__insertion_sort_incompleteIRZ4mainE3$_0P3RecEEbT0_S5_T_+0xcd>
1000074be: 48 8d 0d 97 04 00 00        	leaq	1175(%rip), %rcx
1000074c5: 48 63 04 81                 	movslq	(%rcx,%rax,4), %rax
1000074c9: 48 01 c8                    	addq	%rcx, %rax
1000074cc: ff e0                       	jmpq	*%rax
1000074ce: f3 0f 10 03                 	movss	(%rbx), %xmm0
1000074d2: 41 0f 2e 47 f0              	ucomiss	-16(%r15), %xmm0
1000074d7: 0f 86 6b 04 00 00           	jbe	1131 <__ZNSt3__127__insertion_sort_incompleteIRZ4mainE3$_0P3RecEEbT0_S5_T_+0x4b8>
1000074dd: 49 83 c7 f0                 	addq	$-16, %r15
1000074e1: 48 8b 03                    	movq	(%rbx), %rax
1000074e4: 48 8b 4b 08                 	movq	8(%rbx), %rcx
1000074e8: 48 89 4d d0                 	movq	%rcx, -48(%rbp)
1000074ec: 48 89 45 c8                 	movq	%rax, -56(%rbp)
1000074f0: 49 8b 07                    	movq	(%r15), %rax
1000074f3: 49 8b 4f 08                 	movq	8(%r15), %rcx
1000074f7: 48 89 4b 08                 	movq	%rcx, 8(%rbx)
1000074fb: 48 89 03                    	movq	%rax, (%rbx)
1000074fe: 48 8b 45 c8                 	movq	-56(%rbp), %rax
100007502: 48 8b 4d d0                 	movq	-48(%rbp), %rcx
100007506: 49 89 4f 08                 	movq	%rcx, 8(%r15)
10000750a: 49 89 07                    	movq	%rax, (%r15)
10000750d: e9 36 04 00 00              	jmp	1078 <__ZNSt3__127__insertion_sort_incompleteIRZ4mainE3$_0P3RecEEbT0_S5_T_+0x4b8>
100007512: 48 8d 43 10                 	leaq	16(%rbx), %rax
100007516: 49 8d 4f f0                 	leaq	-16(%r15), %rcx
10000751a: f3 0f 10 0b                 	movss	(%rbx), %xmm1
10000751e: f3 0f 10 43 10              	movss	16(%rbx), %xmm0
100007523: 0f 2e c8                    	ucomiss	%xmm0, %xmm1
100007526: f3 41 0f 10 4f f0           	movss	-16(%r15), %xmm1
10000752c: 0f 86 c0 01 00 00           	jbe	448 <__ZNSt3__127__insertion_sort_incompleteIRZ4mainE3$_0P3RecEEbT0_S5_T_+0x262>
100007532: 0f 2e c1                    	ucomiss	%xmm1, %xmm0
100007535: 0f 86 9a 02 00 00           	jbe	666 <__ZNSt3__127__insertion_sort_incompleteIRZ4mainE3$_0P3RecEEbT0_S5_T_+0x345>
10000753b: 48 8b 03                    	movq	(%rbx), %rax
10000753e: 48 8b 53 08                 	movq	8(%rbx), %rdx
100007542: 48 89 55 d0                 	movq	%rdx, -48(%rbp)
100007546: 48 89 45 c8                 	movq	%rax, -56(%rbp)
10000754a: 48 8b 01                    	movq	(%rcx), %rax
10000754d: 48 8b 51 08                 	movq	8(%rcx), %rdx
100007551: 48 89 53 08                 	movq	%rdx, 8(%rbx)
100007555: 48 89 03                    	movq	%rax, (%rbx)
100007558: e9 cf 02 00 00              	jmp	719 <__ZNSt3__127__insertion_sort_incompleteIRZ4mainE3$_0P3RecEEbT0_S5_T_+0x39c>
10000755d: 48 8d 43 20                 	leaq	32(%rbx), %rax
100007561: 48 8d 4b 10                 	leaq	16(%rbx), %rcx
100007565: f3 0f 10 03                 	movss	(%rbx), %xmm0
100007569: f3 0f 10 53 10              	movss	16(%rbx), %xmm2
10000756e: 0f 2e c2                    	ucomiss	%xmm2, %xmm0
100007571: f3 0f 10 4b 20              	movss	32(%rbx), %xmm1
100007576: 0f 86 ea 01 00 00           	jbe	490 <__ZNSt3__127__insertion_sort_incompleteIRZ4mainE3$_0P3RecEEbT0_S5_T_+0x2d6>
10000757c: 0f 2e d1                    	ucomiss	%xmm1, %xmm2
10000757f: 0f 86 bb 02 00 00           	jbe	699 <__ZNSt3__127__insertion_sort_incompleteIRZ4mainE3$_0P3RecEEbT0_S5_T_+0x3b0>
100007585: 48 8b 0b                    	movq	(%rbx), %rcx
100007588: 48 8b 53 08                 	movq	8(%rbx), %rdx
10000758c: 48 89 55 d0                 	movq	%rdx, -48(%rbp)
100007590: 48 89 4d c8                 	movq	%rcx, -56(%rbp)
100007594: 48 8b 08                    	movq	(%rax), %rcx
100007597: 48 8b 50 08                 	movq	8(%rax), %rdx
10000759b: 48 89 53 08                 	movq	%rdx, 8(%rbx)
10000759f: 48 89 0b                    	movq	%rcx, (%rbx)
1000075a2: e9 ec 02 00 00              	jmp	748 <__ZNSt3__127__insertion_sort_incompleteIRZ4mainE3$_0P3RecEEbT0_S5_T_+0x403>
1000075a7: 48 8d 73 10                 	leaq	16(%rbx), %rsi
1000075ab: 48 8d 53 20                 	leaq	32(%rbx), %rdx
1000075af: 49 83 c7 f0                 	addq	$-16, %r15
1000075b3: 48 89 df                    	movq	%rbx, %rdi
1000075b6: 4c 89 f9                    	movq	%r15, %rcx
1000075b9: e8 e2 fc ff ff              	callq	-798 <__ZNSt3__17__sort4IRZ4mainE3$_0P3RecEEjT0_S5_S5_S5_T_>
1000075be: e9 85 03 00 00              	jmp	901 <__ZNSt3__127__insertion_sort_incompleteIRZ4mainE3$_0P3RecEEbT0_S5_T_+0x4b8>
1000075c3: 4c 8d 73 10                 	leaq	16(%rbx), %r14
1000075c7: 4c 8d 6b 20                 	leaq	32(%rbx), %r13
1000075cb: 4c 8d 63 30                 	leaq	48(%rbx), %r12
1000075cf: 48 89 df                    	movq	%rbx, %rdi
1000075d2: 4c 89 f6                    	movq	%r14, %rsi
1000075d5: 4c 89 ea                    	movq	%r13, %rdx
1000075d8: 4c 89 e1                    	movq	%r12, %rcx
1000075db: e8 c0 fc ff ff              	callq	-832 <__ZNSt3__17__sort4IRZ4mainE3$_0P3RecEEjT0_S5_S5_S5_T_>
1000075e0: f3 0f 10 43 30              	movss	48(%rbx), %xmm0
1000075e5: 41 0f 2e 47 f0              	ucomiss	-16(%r15), %xmm0
1000075ea: 0f 86 fa 00 00 00           	jbe	250 <__ZNSt3__127__insertion_sort_incompleteIRZ4mainE3$_0P3RecEEbT0_S5_T_+0x25a>
1000075f0: 49 83 c7 f0                 	addq	$-16, %r15
1000075f4: 49 8b 04 24                 	movq	(%r12), %rax
1000075f8: 49 8b 4c 24 08              	movq	8(%r12), %rcx
1000075fd: 48 89 4d d0                 	movq	%rcx, -48(%rbp)
100007601: 48 89 45 c8                 	movq	%rax, -56(%rbp)
100007605: 49 8b 07                    	movq	(%r15), %rax
100007608: 49 8b 4f 08                 	movq	8(%r15), %rcx
10000760c: 49 89 4c 24 08              	movq	%rcx, 8(%r12)
100007611: 49 89 04 24                 	movq	%rax, (%r12)
100007615: 48 8b 45 c8                 	movq	-56(%rbp), %rax
100007619: 48 8b 4d d0                 	movq	-48(%rbp), %rcx
10000761d: 49 89 4f 08                 	movq	%rcx, 8(%r15)
100007621: 49 89 07                    	movq	%rax, (%r15)
100007624: f3 41 0f 10 45 00           	movss	(%r13), %xmm0
10000762a: 41 0f 2e 04 24              	ucomiss	(%r12), %xmm0
10000762f: 0f 86 b5 00 00 00           	jbe	181 <__ZNSt3__127__insertion_sort_incompleteIRZ4mainE3$_0P3RecEEbT0_S5_T_+0x25a>
100007635: 49 8b 45 00                 	movq	(%r13), %rax
100007639: 49 8b 4d 08                 	movq	8(%r13), %rcx
10000763d: 48 89 4d d0                 	movq	%rcx, -48(%rbp)
100007641: 48 89 45 c8                 	movq	%rax, -56(%rbp)
100007645: 49 8b 04 24                 	movq	(%r12), %rax
100007649: 49 8b 4c 24 08              	movq	8(%r12), %rcx
10000764e: 49 89 4d 08                 	movq	%rcx, 8(%r13)
100007652: 49 89 45 00                 	movq	%rax, (%r13)
100007656: 48 8b 45 c8                 	movq	-56(%rbp), %rax
10000765a: 48 8b 4d d0                 	movq	-48(%rbp), %rcx
10000765e: 49 89 4c 24 08              	movq	%rcx, 8(%r12)
100007663: 49 89 04 24                 	movq	%rax, (%r12)
100007667: 4c 89 f2                    	movq	%r14, %rdx
10000766a: f3 41 0f 10 06              	movss	(%r14), %xmm0
10000766f: 41 0f 2e 45 00              	ucomiss	(%r13), %xmm0
100007674: 41 b6 01                    	movb	$1, %r14b
100007677: 0f 86 cb 02 00 00           	jbe	715 <__ZNSt3__127__insertion_sort_incompleteIRZ4mainE3$_0P3RecEEbT0_S5_T_+0x4b8>
10000767d: 48 8b 02                    	movq	(%rdx), %rax
100007680: 48 8b 4a 08                 	movq	8(%rdx), %rcx
100007684: 48 89 4d d0                 	movq	%rcx, -48(%rbp)
100007688: 48 89 45 c8                 	movq	%rax, -56(%rbp)
10000768c: 49 8b 45 00                 	movq	(%r13), %rax
100007690: 49 8b 4d 08                 	movq	8(%r13), %rcx
100007694: 48 89 4a 08                 	movq	%rcx, 8(%rdx)
100007698: 48 89 02                    	movq	%rax, (%rdx)
10000769b: 48 8b 45 c8                 	movq	-56(%rbp), %rax
10000769f: 48 8b 4d d0                 	movq	-48(%rbp), %rcx
1000076a3: 49 89 4d 08                 	movq	%rcx, 8(%r13)
1000076a7: 49 89 45 00                 	movq	%rax, (%r13)
1000076ab: f3 0f 10 03                 	movss	(%rbx), %xmm0
1000076af: 0f 2e 43 10                 	ucomiss	16(%rbx), %xmm0
1000076b3: 0f 86 8f 02 00 00           	jbe	655 <__ZNSt3__127__insertion_sort_incompleteIRZ4mainE3$_0P3RecEEbT0_S5_T_+0x4b8>
1000076b9: 48 8b 03                    	movq	(%rbx), %rax
1000076bc: 48 8b 4b 08                 	movq	8(%rbx), %rcx
1000076c0: 48 89 4d d0                 	movq	%rcx, -48(%rbp)
1000076c4: 48 89 45 c8                 	movq	%rax, -56(%rbp)
1000076c8: 48 8b 02                    	movq	(%rdx), %rax
1000076cb: 48 8b 4a 08                 	movq	8(%rdx), %rcx
1000076cf: 48 89 4b 08                 	movq	%rcx, 8(%rbx)
1000076d3: 48 89 03                    	movq	%rax, (%rbx)
1000076d6: 48 8b 45 c8                 	movq	-56(%rbp), %rax
1000076da: 48 8b 4d d0                 	movq	-48(%rbp), %rcx
1000076de: 48 89 4a 08                 	movq	%rcx, 8(%rdx)
1000076e2: 48 89 02                    	movq	%rax, (%rdx)
1000076e5: e9 5e 02 00 00              	jmp	606 <__ZNSt3__127__insertion_sort_incompleteIRZ4mainE3$_0P3RecEEbT0_S5_T_+0x4b8>
1000076ea: 41 b6 01                    	movb	$1, %r14b
1000076ed: e9 56 02 00 00              	jmp	598 <__ZNSt3__127__insertion_sort_incompleteIRZ4mainE3$_0P3RecEEbT0_S5_T_+0x4b8>
1000076f2: 0f 2e c1                    	ucomiss	%xmm1, %xmm0
1000076f5: 0f 86 4d 02 00 00           	jbe	589 <__ZNSt3__127__insertion_sort_incompleteIRZ4mainE3$_0P3RecEEbT0_S5_T_+0x4b8>
1000076fb: 48 8b 10                    	movq	(%rax), %rdx
1000076fe: 48 8b 70 08                 	movq	8(%rax), %rsi
100007702: 48 89 75 d0                 	movq	%rsi, -48(%rbp)
100007706: 48 89 55 c8                 	movq	%rdx, -56(%rbp)
10000770a: 48 8b 11                    	movq	(%rcx), %rdx
10000770d: 48 8b 71 08                 	movq	8(%rcx), %rsi
100007711: 48 89 70 08                 	movq	%rsi, 8(%rax)
100007715: 48 89 10                    	movq	%rdx, (%rax)
100007718: 48 8b 55 c8                 	movq	-56(%rbp), %rdx
10000771c: 48 8b 75 d0                 	movq	-48(%rbp), %rsi
100007720: 48 89 71 08                 	movq	%rsi, 8(%rcx)
100007724: 48 89 11                    	movq	%rdx, (%rcx)
100007727: f3 0f 10 03                 	movss	(%rbx), %xmm0
10000772b: 0f 2e 43 10                 	ucomiss	16(%rbx), %xmm0
10000772f: 0f 86 13 02 00 00           	jbe	531 <__ZNSt3__127__insertion_sort_incompleteIRZ4mainE3$_0P3RecEEbT0_S5_T_+0x4b8>
100007735: 48 8b 0b                    	movq	(%rbx), %rcx
100007738: 48 8b 53 08                 	movq	8(%rbx), %rdx
10000773c: 48 89 55 d0                 	movq	%rdx, -48(%rbp)
100007740: 48 89 4d c8                 	movq	%rcx, -56(%rbp)
100007744: 48 8b 08                    	movq	(%rax), %rcx
100007747: 48 8b 50 08                 	movq	8(%rax), %rdx
10000774b: 48 89 53 08                 	movq	%rdx, 8(%rbx)
10000774f: 48 89 0b                    	movq	%rcx, (%rbx)
100007752: 48 8b 4d c8                 	movq	-56(%rbp), %rcx
100007756: 48 8b 55 d0                 	movq	-48(%rbp), %rdx
10000775a: 48 89 50 08                 	movq	%rdx, 8(%rax)
10000775e: 48 89 08                    	movq	%rcx, (%rax)
100007761: e9 e2 01 00 00              	jmp	482 <__ZNSt3__127__insertion_sort_incompleteIRZ4mainE3$_0P3RecEEbT0_S5_T_+0x4b8>
100007766: 0f 2e d1                    	ucomiss	%xmm1, %xmm2
100007769: 0f 86 33 01 00 00           	jbe	307 <__ZNSt3__127__insertion_sort_incompleteIRZ4mainE3$_0P3RecEEbT0_S5_T_+0x412>
10000776f: 48 8b 11                    	movq	(%rcx), %rdx
100007772: 48 8b 71 08                 	movq	8(%rcx), %rsi
100007776: 48 89 75 d0                 	movq	%rsi, -48(%rbp)
10000777a: 48 89 55 c8                 	movq	%rdx, -56(%rbp)
10000777e: 48 8b 10                    	movq	(%rax), %rdx
100007781: 48 8b 70 08                 	movq	8(%rax), %rsi
100007785: 48 89 71 08                 	movq	%rsi, 8(%rcx)
100007789: 48 89 11                    	movq	%rdx, (%rcx)
10000778c: 48 8b 55 c8                 	movq	-56(%rbp), %rdx
100007790: 48 8b 75 d0                 	movq	-48(%rbp), %rsi
100007794: 48 89 70 08                 	movq	%rsi, 8(%rax)
100007798: 48 89 10                    	movq	%rdx, (%rax)
10000779b: 0f 2e 01                    	ucomiss	(%rcx), %xmm0
10000779e: 0f 86 fe 00 00 00           	jbe	254 <__ZNSt3__127__insertion_sort_incompleteIRZ4mainE3$_0P3RecEEbT0_S5_T_+0x412>
1000077a4: 48 8b 13                    	movq	(%rbx), %rdx
1000077a7: 48 8b 73 08                 	movq	8(%rbx), %rsi
1000077ab: 48 89 75 d0                 	movq	%rsi, -48(%rbp)
1000077af: 48 89 55 c8                 	movq	%rdx, -56(%rbp)
1000077b3: 48 8b 11                    	movq	(%rcx), %rdx
1000077b6: 48 8b 71 08                 	movq	8(%rcx), %rsi
1000077ba: 48 89 73 08                 	movq	%rsi, 8(%rbx)
1000077be: 48 89 13                    	movq	%rdx, (%rbx)
1000077c1: 48 8b 55 c8                 	movq	-56(%rbp), %rdx
1000077c5: 48 8b 75 d0                 	movq	-48(%rbp), %rsi
1000077c9: 48 89 71 08                 	movq	%rsi, 8(%rcx)
1000077cd: 48 89 11                    	movq	%rdx, (%rcx)
1000077d0: e9 cd 00 00 00              	jmp	205 <__ZNSt3__127__insertion_sort_incompleteIRZ4mainE3$_0P3RecEEbT0_S5_T_+0x412>
1000077d5: 48 8b 13                    	movq	(%rbx), %rdx
1000077d8: 48 8b 73 08                 	movq	8(%rbx), %rsi
1000077dc: 48 89 75 d0                 	movq	%rsi, -48(%rbp)
1000077e0: 48 89 55 c8                 	movq	%rdx, -56(%rbp)
1000077e4: 48 8b 10                    	movq	(%rax), %rdx
1000077e7: 48 8b 70 08                 	movq	8(%rax), %rsi
1000077eb: 48 89 73 08                 	movq	%rsi, 8(%rbx)
1000077ef: 48 89 13                    	movq	%rdx, (%rbx)
1000077f2: 48 8b 55 c8                 	movq	-56(%rbp), %rdx
1000077f6: 48 8b 75 d0                 	movq	-48(%rbp), %rsi
1000077fa: 48 89 70 08                 	movq	%rsi, 8(%rax)
1000077fe: 48 89 10                    	movq	%rdx, (%rax)
100007801: f3 0f 10 43 10              	movss	16(%rbx), %xmm0
100007806: 0f 2e 01                    	ucomiss	(%rcx), %xmm0
100007809: 0f 86 39 01 00 00           	jbe	313 <__ZNSt3__127__insertion_sort_incompleteIRZ4mainE3$_0P3RecEEbT0_S5_T_+0x4b8>
10000780f: 48 8b 10                    	movq	(%rax), %rdx
100007812: 48 8b 70 08                 	movq	8(%rax), %rsi
100007816: 48 89 75 d0                 	movq	%rsi, -48(%rbp)
10000781a: 48 89 55 c8                 	movq	%rdx, -56(%rbp)
10000781e: 48 8b 11                    	movq	(%rcx), %rdx
100007821: 48 8b 71 08                 	movq	8(%rcx), %rsi
100007825: 48 89 70 08                 	movq	%rsi, 8(%rax)
100007829: 48 89 10                    	movq	%rdx, (%rax)
10000782c: 48 8b 45 c8                 	movq	-56(%rbp), %rax
100007830: 48 8b 55 d0                 	movq	-48(%rbp), %rdx
100007834: 48 89 51 08                 	movq	%rdx, 8(%rcx)
100007838: 48 89 01                    	movq	%rax, (%rcx)
10000783b: e9 08 01 00 00              	jmp	264 <__ZNSt3__127__insertion_sort_incompleteIRZ4mainE3$_0P3RecEEbT0_S5_T_+0x4b8>
100007840: 48 8b 13                    	movq	(%rbx), %rdx
100007843: 48 8b 73 08                 	movq	8(%rbx), %rsi
100007847: 48 89 75 d0                 	movq	%rsi, -48(%rbp)
10000784b: 48 89 55 c8                 	movq	%rdx, -56(%rbp)
10000784f: 48 8b 11                    	movq	(%rcx), %rdx
100007852: 48 8b 71 08                 	movq	8(%rcx), %rsi
100007856: 48 89 73 08                 	movq	%rsi, 8(%rbx)
10000785a: 48 89 13                    	movq	%rdx, (%rbx)
10000785d: 48 8b 55 c8                 	movq	-56(%rbp), %rdx
100007861: 48 8b 75 d0                 	movq	-48(%rbp), %rsi
100007865: 48 89 71 08                 	movq	%rsi, 8(%rcx)
100007869: 48 89 11                    	movq	%rdx, (%rcx)
10000786c: f3 0f 10 43 10              	movss	16(%rbx), %xmm0
100007871: 0f 2e c1                    	ucomiss	%xmm1, %xmm0
100007874: 76 2c                       	jbe	44 <__ZNSt3__127__insertion_sort_incompleteIRZ4mainE3$_0P3RecEEbT0_S5_T_+0x412>
100007876: 48 8b 11                    	movq	(%rcx), %rdx
100007879: 48 8b 71 08                 	movq	8(%rcx), %rsi
10000787d: 48 89 75 d0                 	movq	%rsi, -48(%rbp)
100007881: 48 89 55 c8                 	movq	%rdx, -56(%rbp)
100007885: 48 8b 10                    	movq	(%rax), %rdx
100007888: 48 8b 70 08                 	movq	8(%rax), %rsi
10000788c: 48 89 71 08                 	movq	%rsi, 8(%rcx)
100007890: 48 89 11                    	movq	%rdx, (%rcx)
100007893: 48 8b 4d c8                 	movq	-56(%rbp), %rcx
100007897: 48 8b 55 d0                 	movq	-48(%rbp), %rdx
10000789b: 48 89 50 08                 	movq	%rdx, 8(%rax)
10000789f: 48 89 08                    	movq	%rcx, (%rax)
1000078a2: 48 8d 73 30                 	leaq	48(%rbx), %rsi
1000078a6: 4c 39 fe                    	cmpq	%r15, %rsi
1000078a9: 0f 84 99 00 00 00           	je	153 <__ZNSt3__127__insertion_sort_incompleteIRZ4mainE3$_0P3RecEEbT0_S5_T_+0x4b8>
1000078af: 45 31 c0                    	xorl	%r8d, %r8d
1000078b2: ba 30 00 00 00              	movl	$48, %edx
1000078b7: eb 32                       	jmp	50 <__ZNSt3__127__insertion_sort_incompleteIRZ4mainE3$_0P3RecEEbT0_S5_T_+0x45b>
1000078b9: 0f 1f 80 00 00 00 00        	nopl	(%rax)
1000078c0: 48 89 de                    	movq	%rbx, %rsi
1000078c3: f3 0f 11 06                 	movss	%xmm0, (%rsi)
1000078c7: 48 8b 4d c8                 	movq	-56(%rbp), %rcx
1000078cb: 48 89 4e 04                 	movq	%rcx, 4(%rsi)
1000078cf: 8b 4d d0                    	movl	-48(%rbp), %ecx
1000078d2: 89 4e 0c                    	movl	%ecx, 12(%rsi)
1000078d5: 41 ff c0                    	incl	%r8d
1000078d8: 41 83 f8 08                 	cmpl	$8, %r8d
1000078dc: 74 5f                       	je	95 <__ZNSt3__127__insertion_sort_incompleteIRZ4mainE3$_0P3RecEEbT0_S5_T_+0x4ad>
1000078de: 48 8d 70 10                 	leaq	16(%rax), %rsi
1000078e2: 48 83 c2 10                 	addq	$16, %rdx
1000078e6: 4c 39 fe                    	cmpq	%r15, %rsi
1000078e9: 74 5d                       	je	93 <__ZNSt3__127__insertion_sort_incompleteIRZ4mainE3$_0P3RecEEbT0_S5_T_+0x4b8>
1000078eb: f3 0f 10 08                 	movss	(%rax), %xmm1
1000078ef: 48 89 f0                    	movq	%rsi, %rax
1000078f2: f3 0f 10 06                 	movss	(%rsi), %xmm0
1000078f6: 0f 2e c8                    	ucomiss	%xmm0, %xmm1
1000078f9: 76 e3                       	jbe	-29 <__ZNSt3__127__insertion_sort_incompleteIRZ4mainE3$_0P3RecEEbT0_S5_T_+0x44e>
1000078fb: 8b 70 0c                    	movl	12(%rax), %esi
1000078fe: 89 75 d0                    	movl	%esi, -48(%rbp)
100007901: 48 8b 70 04                 	movq	4(%rax), %rsi
100007905: 48 89 75 c8                 	movq	%rsi, -56(%rbp)
100007909: 48 89 d6                    	movq	%rdx, %rsi
10000790c: 0f 1f 40 00                 	nopl	(%rax)
100007910: 48 8b 7c 33 f0              	movq	-16(%rbx,%rsi), %rdi
100007915: 48 8b 4c 33 f8              	movq	-8(%rbx,%rsi), %rcx
10000791a: 48 89 4c 33 08              	movq	%rcx, 8(%rbx,%rsi)
10000791f: 48 89 3c 33                 	movq	%rdi, (%rbx,%rsi)
100007923: 48 83 fe 10                 	cmpq	$16, %rsi
100007927: 74 97                       	je	-105 <__ZNSt3__127__insertion_sort_incompleteIRZ4mainE3$_0P3RecEEbT0_S5_T_+0x430>
100007929: f3 0f 10 4c 33 e0           	movss	-32(%rbx,%rsi), %xmm1
10000792f: 48 83 c6 f0                 	addq	$-16, %rsi
100007933: 0f 2e c8                    	ucomiss	%xmm0, %xmm1
100007936: 77 d8                       	ja	-40 <__ZNSt3__127__insertion_sort_incompleteIRZ4mainE3$_0P3RecEEbT0_S5_T_+0x480>
100007938: 48 01 de                    	addq	%rbx, %rsi
10000793b: eb 86                       	jmp	-122 <__ZNSt3__127__insertion_sort_incompleteIRZ4mainE3$_0P3RecEEbT0_S5_T_+0x433>
10000793d: 48 83 c0 10                 	addq	$16, %rax
100007941: 4c 39 f8                    	cmpq	%r15, %rax
100007944: 41 0f 94 c6                 	sete	%r14b
100007948: 44 89 f0                    	movl	%r14d, %eax
10000794b: 48 83 c4 18                 	addq	$24, %rsp
10000794f: 5b                          	popq	%rbx
100007950: 41 5c                       	popq	%r12
100007952: 41 5d                       	popq	%r13
100007954: 41 5e                       	popq	%r14
100007956: 41 5f                       	popq	%r15
100007958: 5d                          	popq	%rbp
100007959: c3                          	retq
10000795a: 66 90                       	nop
10000795c: ec                          	inb	%dx, %al
10000795d: ff ff                       	<unknown>
10000795f: ff ec                       	<unknown>
100007961: ff ff                       	<unknown>
100007963: ff 72 fb                    	pushq	-5(%rdx)
100007966: ff ff                       	<unknown>
100007968: b6 fb                       	movb	$-5, %dh
10000796a: ff ff                       	<unknown>
10000796c: 4b fc                       	cld
10000796e: ff ff                       	<unknown>
100007970: 67 fc                       	cld
100007972: ff ff                       	<unknown>
100007974: 66 2e 0f 1f 84 00 00 00 00 00       	nopw	%cs:(%rax,%rax)
10000797e: 66 90                       	nop

0000000100007980 __GLOBAL__sub_I_SpacePartition.cpp:
100007980: 55                          	pushq	%rbp
100007981: 48 89 e5                    	movq	%rsp, %rbp
100007984: 48 c7 05 89 51 00 00 00 00 00 00    	movq	$0, 20873(%rip)
10000798f: 48 c7 05 76 51 00 00 00 00 00 00    	movq	$0, 20854(%rip)
10000799a: 48 c7 05 63 51 00 00 00 00 00 00    	movq	$0, 20835(%rip)
1000079a5: 48 8d 35 5c 51 00 00        	leaq	20828(%rip), %rsi
1000079ac: 48 8d 3d cd e3 ff ff        	leaq	-7219(%rip), %rdi
1000079b3: 48 8d 15 46 86 ff ff        	leaq	-31162(%rip), %rdx
1000079ba: e8 91 00 00 00              	callq	145 <dyld_stub_binder+0x100007a50>
1000079bf: 48 8d 3d 5a 51 00 00        	leaq	20826(%rip), %rdi
1000079c6: 5d                          	popq	%rbp
1000079c7: e9 04 df ff ff              	jmp	-8444 <__ZN13NodeAllocatorC1Ev>

Disassembly of section __TEXT,__stubs:

00000001000079cc __stubs:
1000079cc: ff 25 2e 46 00 00           	jmpq	*17966(%rip)
1000079d2: ff 25 30 46 00 00           	jmpq	*17968(%rip)
1000079d8: ff 25 32 46 00 00           	jmpq	*17970(%rip)
1000079de: ff 25 34 46 00 00           	jmpq	*17972(%rip)
1000079e4: ff 25 36 46 00 00           	jmpq	*17974(%rip)
1000079ea: ff 25 38 46 00 00           	jmpq	*17976(%rip)
1000079f0: ff 25 3a 46 00 00           	jmpq	*17978(%rip)
1000079f6: ff 25 3c 46 00 00           	jmpq	*17980(%rip)
1000079fc: ff 25 3e 46 00 00           	jmpq	*17982(%rip)
100007a02: ff 25 40 46 00 00           	jmpq	*17984(%rip)
100007a08: ff 25 42 46 00 00           	jmpq	*17986(%rip)
100007a0e: ff 25 44 46 00 00           	jmpq	*17988(%rip)
100007a14: ff 25 46 46 00 00           	jmpq	*17990(%rip)
100007a1a: ff 25 48 46 00 00           	jmpq	*17992(%rip)
100007a20: ff 25 4a 46 00 00           	jmpq	*17994(%rip)
100007a26: ff 25 4c 46 00 00           	jmpq	*17996(%rip)
100007a2c: ff 25 4e 46 00 00           	jmpq	*17998(%rip)
100007a32: ff 25 50 46 00 00           	jmpq	*18000(%rip)
100007a38: ff 25 52 46 00 00           	jmpq	*18002(%rip)
100007a3e: ff 25 54 46 00 00           	jmpq	*18004(%rip)
100007a44: ff 25 56 46 00 00           	jmpq	*18006(%rip)
100007a4a: ff 25 58 46 00 00           	jmpq	*18008(%rip)
100007a50: ff 25 5a 46 00 00           	jmpq	*18010(%rip)
100007a56: ff 25 5c 46 00 00           	jmpq	*18012(%rip)
100007a5c: ff 25 5e 46 00 00           	jmpq	*18014(%rip)
100007a62: ff 25 60 46 00 00           	jmpq	*18016(%rip)
100007a68: ff 25 62 46 00 00           	jmpq	*18018(%rip)
100007a6e: ff 25 64 46 00 00           	jmpq	*18020(%rip)
100007a74: ff 25 66 46 00 00           	jmpq	*18022(%rip)
100007a7a: ff 25 68 46 00 00           	jmpq	*18024(%rip)
100007a80: ff 25 6a 46 00 00           	jmpq	*18026(%rip)
100007a86: ff 25 6c 46 00 00           	jmpq	*18028(%rip)
100007a8c: ff 25 6e 46 00 00           	jmpq	*18030(%rip)
100007a92: ff 25 70 46 00 00           	jmpq	*18032(%rip)

Disassembly of section __TEXT,__stub_helper:

0000000100007a98 __stub_helper:
100007a98: 4c 8d 1d 71 46 00 00        	leaq	18033(%rip), %r11
100007a9f: 41 53                       	pushq	%r11
100007aa1: ff 25 b1 05 00 00           	jmpq	*1457(%rip)
100007aa7: 90                          	nop
100007aa8: 68 16 00 00 00              	pushq	$22
100007aad: e9 e6 ff ff ff              	jmp	-26 <__stub_helper>
100007ab2: 68 5c 00 00 00              	pushq	$92
100007ab7: e9 dc ff ff ff              	jmp	-36 <__stub_helper>
100007abc: 68 89 00 00 00              	pushq	$137
100007ac1: e9 d2 ff ff ff              	jmp	-46 <__stub_helper>
100007ac6: 68 ad 00 00 00              	pushq	$173
100007acb: e9 c8 ff ff ff              	jmp	-56 <__stub_helper>
100007ad0: 68 cd 00 00 00              	pushq	$205
100007ad5: e9 be ff ff ff              	jmp	-66 <__stub_helper>
100007ada: 68 0a 01 00 00              	pushq	$266
100007adf: e9 b4 ff ff ff              	jmp	-76 <__stub_helper>
100007ae4: 68 49 01 00 00              	pushq	$329
100007ae9: e9 aa ff ff ff              	jmp	-86 <__stub_helper>
100007aee: 68 8e 01 00 00              	pushq	$398
100007af3: e9 a0 ff ff ff              	jmp	-96 <__stub_helper>
100007af8: 68 d0 01 00 00              	pushq	$464
100007afd: e9 96 ff ff ff              	jmp	-106 <__stub_helper>
100007b02: 68 0b 02 00 00              	pushq	$523
100007b07: e9 8c ff ff ff              	jmp	-116 <__stub_helper>
100007b0c: 68 46 02 00 00              	pushq	$582
100007b11: e9 82 ff ff ff              	jmp	-126 <__stub_helper>
100007b16: 68 81 02 00 00              	pushq	$641
100007b1b: e9 78 ff ff ff              	jmp	-136 <__stub_helper>
100007b20: 68 bc 02 00 00              	pushq	$700
100007b25: e9 6e ff ff ff              	jmp	-146 <__stub_helper>
100007b2a: 68 1b 03 00 00              	pushq	$795
100007b2f: e9 64 ff ff ff              	jmp	-156 <__stub_helper>
100007b34: 68 3f 03 00 00              	pushq	$831
100007b39: e9 5a ff ff ff              	jmp	-166 <__stub_helper>
100007b3e: 68 5b 03 00 00              	pushq	$859
100007b43: e9 50 ff ff ff              	jmp	-176 <__stub_helper>
100007b48: 68 9b 03 00 00              	pushq	$923
100007b4d: e9 46 ff ff ff              	jmp	-186 <__stub_helper>
100007b52: 68 be 03 00 00              	pushq	$958
100007b57: e9 3c ff ff ff              	jmp	-196 <__stub_helper>
100007b5c: 68 d6 03 00 00              	pushq	$982
100007b61: e9 32 ff ff ff              	jmp	-206 <__stub_helper>
100007b66: 68 0c 04 00 00              	pushq	$1036
100007b6b: e9 28 ff ff ff              	jmp	-216 <__stub_helper>
100007b70: 68 26 04 00 00              	pushq	$1062
100007b75: e9 1e ff ff ff              	jmp	-226 <__stub_helper>
100007b7a: 68 3e 04 00 00              	pushq	$1086
100007b7f: e9 14 ff ff ff              	jmp	-236 <__stub_helper>
100007b84: 68 5b 04 00 00              	pushq	$1115
100007b89: e9 0a ff ff ff              	jmp	-246 <__stub_helper>
100007b8e: 68 75 04 00 00              	pushq	$1141
100007b93: e9 00 ff ff ff              	jmp	-256 <__stub_helper>
100007b98: 68 91 04 00 00              	pushq	$1169
100007b9d: e9 f6 fe ff ff              	jmp	-266 <__stub_helper>
100007ba2: 68 ad 04 00 00              	pushq	$1197
100007ba7: e9 ec fe ff ff              	jmp	-276 <__stub_helper>
100007bac: 68 00 00 00 00              	pushq	$0
100007bb1: e9 e2 fe ff ff              	jmp	-286 <__stub_helper>
100007bb6: 68 f7 03 00 00              	pushq	$1015
100007bbb: e9 d8 fe ff ff              	jmp	-296 <__stub_helper>
100007bc0: 68 c1 04 00 00              	pushq	$1217
100007bc5: e9 ce fe ff ff              	jmp	-306 <__stub_helper>
100007bca: 68 cf 04 00 00              	pushq	$1231
100007bcf: e9 c4 fe ff ff              	jmp	-316 <__stub_helper>
100007bd4: 68 de 04 00 00              	pushq	$1246
100007bd9: e9 ba fe ff ff              	jmp	-326 <__stub_helper>
100007bde: 68 ed 04 00 00              	pushq	$1261
100007be3: e9 b0 fe ff ff              	jmp	-336 <__stub_helper>
